 PhysX3CookingDEBUG_x64

 Timestamp is 5832913f (Mon Nov 21 14:16:31 2016)

 Preferred load address is 0000000180000000

 Start         Length     Name                   Class
 0001:00000000 000028aeH .text$di                CODE
 0001:000028b0 000c2555H .text$mn                CODE
 0001:000c4e10 0000204dH .text$x                 CODE
 0002:00000000 00000109H .CRT$XCA                DATA
 0002:00000110 00000229H .CRT$XCU                DATA
 0002:00000340 00000109H .CRT$XCZ                DATA
 0002:00000450 00000109H .CRT$XIA                DATA
 0002:00000560 00000130H .CRT$XIC                DATA
 0002:00000690 00000109H .CRT$XIZ                DATA
 0002:000007a0 00000109H .CRT$XPA                DATA
 0002:000008b0 00000113H .CRT$XPX                DATA
 0002:000009c8 00000109H .CRT$XPXA               DATA
 0002:00000ad8 00000109H .CRT$XPZ                DATA
 0002:00000be8 00000109H .CRT$XTA                DATA
 0002:00000cf8 00000109H .CRT$XTZ                DATA
 0002:00000e10 0001a1a6H .rdata                  DATA
 0002:0001afb8 00000181H .rdata$debug            DATA
 0002:0001b140 000008b4H .rdata$r                DATA
 0002:0001b9f8 00000109H .rtc$IAA                DATA
 0002:0001bb08 00000205H .rtc$IMZ                DATA
 0002:0001bd10 00000109H .rtc$IZZ                DATA
 0002:0001be20 00000109H .rtc$TAA                DATA
 0002:0001bf30 00000205H .rtc$TMZ                DATA
 0002:0001c138 00000109H .rtc$TZZ                DATA
 0002:0001c248 00004d5eH .xdata                  DATA
 0002:00020fa8 00000211H .xdata$x                DATA
 0002:000211c0 000001a0H .edata                  DATA
 0003:00000000 00001fafH .data                   DATA
 0003:00001fb0 00000695H .data$r                 DATA
 0003:00002660 00002bd1H .bss                    DATA
 0004:00000000 000051fcH .pdata                  DATA
 0005:00000000 000003a8H .idata$5                DATA
 0005:000003a8 00000014H .idata$2                DATA
 0005:000003bc 00000014H .idata$3                DATA
 0005:000003d0 000003a8H .idata$4                DATA
 0005:00000778 0000082fH .idata$6                DATA
 0006:00000000 00000020H .didat$2                DATA
 0006:00000020 00000020H .didat$3                DATA
 0006:00000040 00000468H .didat$4                DATA
 0006:000004a8 00000468H .didat$5                DATA
 0006:00000910 00001961H .didat$6                DATA
 0006:00002278 000004c8H .didat$7                DATA
 0007:00000000 000001c0H .rsrc$01                DATA
 0007:000001c0 000006a9H .rsrc$02                DATA

  Address         Publics by Value              Rva+Base               Lib:Object

 0000:00000000       ___safe_se_handler_table   0000000000000000     <absolute>
 0000:00000000       ___safe_se_handler_count   0000000000000000     <absolute>
 0000:00000000       __guard_fids_table         0000000000000000     <absolute>
 0000:00000000       __guard_flags              0000000000000000     <absolute>
 0000:00000000       __guard_fids_count         0000000000000000     <absolute>
 0000:00000000       __ImageBase                0000000180000000     <linker-defined>
 0001:000028b0       PxSetPhysXCookingDelayLoadHook 00000001800038b0 f   WindowsCookingDelayLoadHook.obj
 0001:000028d0       ?delayHook@@YAP6A_JXZIPEAUDelayLoadInfo@@@Z 00000001800038d0 f   WindowsCookingDelayLoadHook.obj
 0001:00002980       ?loadLibrary@shdfnd@physx@@YAPEAUHINSTANCE__@@PEBD@Z 0000000180003980 f i WindowsCookingDelayLoadHook.obj
 0001:000029a0       ?physXCommonDliNotePreLoadLibrary@shdfnd@physx@@YAP6A_JXZPEBDPEBVPxDelayLoadHook@2@@Z 00000001800039a0 f i WindowsCookingDelayLoadHook.obj
 0001:00002f00       ?strstr@@YAPEADPEADPEBD@Z  0000000180003f00 f i WindowsCookingDelayLoadHook.obj
 0001:00002f30       ?saveHeightField@physx@@YA_NAEBVHeightField@Gu@1@AEAVPxOutputStream@1@_N@Z 0000000180003f30 f   HeightFieldCooking.obj
 0001:00003450       ??B?$PxFlags@W4Enum@PxHeightFieldFlag@physx@@G@physx@@QEBAGXZ 0000000180004450 f i HeightFieldCooking.obj
 0001:00003470       ?getData@HeightField@Gu@physx@@QEBAAEBUHeightFieldData@23@XZ 0000000180004470 f i HeightFieldCooking.obj
 0001:00003490       ?buildFromTriangles@RTreeCooker@physx@@SAXAEAURTree@Gu@2@PEBVPxVec3@2@IPEBGPEBIIAEAV?$Array@IVNamedAllocator@shdfnd@physx@@@shdfnd@2@PEAURemapCallback@12@MW4Enum@PxMeshCookingHint@2@@Z 0000000180004490 f   RTreeCooking.obj
 0001:00005310       ??$PX_UNUSED@I@@YAXAEBI@Z  0000000180006310 f i RTreeCooking.obj
 0001:00005320       ??$PX_UNUSED@M@@YAXAEBM@Z  0000000180006320 f i RTreeCooking.obj
 0001:00005330       ??$PX_UNUSED@PEAURTreeNodeNQ@physx@@@@YAXAEBQEAURTreeNodeNQ@physx@@@Z 0000000180006330 f i RTreeCooking.obj
 0001:00005340       ??$PX_UNUSED@URTreeNodeNQ@physx@@@@YAXAEBURTreeNodeNQ@physx@@@Z 0000000180006340 f i RTreeCooking.obj
 0001:00005350       ??$PxMax@H@physx@@YAHHH@Z  0000000180006350 f i RTreeCooking.obj
 0001:00005390       ??$PxMax@I@physx@@YAIII@Z  0000000180006390 f i RTreeCooking.obj
 0001:000053d0       ??$PxMax@M@physx@@YAMMM@Z  00000001800063d0 f i RTreeCooking.obj
 0001:00005400       ??$PxMin@I@physx@@YAIII@Z  0000000180006400 f i RTreeCooking.obj
 0001:00005440       ??$PxMin@M@physx@@YAMMM@Z  0000000180006440 f i RTreeCooking.obj
 0001:00005470       ??$median3@I$$CBU?$Less@I@shdfnd@physx@@@internal@shdfnd@physx@@YAXPEAIHHAEBU?$Less@I@12@@Z 0000000180006470 f i RTreeCooking.obj
 0001:00005630       ??$median3@I$$CBUSortBoundsPredicate@physx@@@internal@shdfnd@physx@@YAXPEAIHHAEBUSortBoundsPredicate@2@@Z 0000000180006630 f i RTreeCooking.obj
 0001:000057f0       ??$partition@I$$CBU?$Less@I@shdfnd@physx@@@internal@shdfnd@physx@@YAHPEAIHHAEBU?$Less@I@12@@Z 00000001800067f0 f i RTreeCooking.obj
 0001:00005a60       ??$partition@I$$CBUSortBoundsPredicate@physx@@@internal@shdfnd@physx@@YAHPEAIHHAEBUSortBoundsPredicate@2@@Z 0000000180006a60 f i RTreeCooking.obj
 0001:00005cd0       ??$partition@UBoundsLTE@physx@@@quickSelect@physx@@YAIPEIAIIIIAEBUBoundsLTE@1@@Z 0000000180006cd0 f i RTreeCooking.obj
 0001:000060f0       ??$quickSelectFirstK@UBoundsLTE@physx@@@quickSelect@physx@@YAXPEIAIIIIAEBUBoundsLTE@1@@Z 00000001800070f0 f i RTreeCooking.obj
 0001:000062a0       ??$smallSort@I$$CBU?$Less@I@shdfnd@physx@@@internal@shdfnd@physx@@YAXPEAIHHAEBU?$Less@I@12@@Z 00000001800072a0 f i RTreeCooking.obj
 0001:000063b0       ??$smallSort@I$$CBUSortBoundsPredicate@physx@@@internal@shdfnd@physx@@YAXPEAIHHAEBUSortBoundsPredicate@2@@Z 00000001800073b0 f i RTreeCooking.obj
 0001:000064c0       ??$sort@I@shdfnd@physx@@YAXPEAII@Z 00000001800074c0 f i RTreeCooking.obj
 0001:00006540       ??$sort@IU?$Less@I@shdfnd@physx@@VNamedAllocator@23@@shdfnd@physx@@YAXPEAIIAEBU?$Less@I@01@AEBVNamedAllocator@01@I@Z 0000000180007540 f i RTreeCooking.obj
 0001:00006900       ??$sort@IUSortBoundsPredicate@physx@@@shdfnd@physx@@YAXPEAIIAEBUSortBoundsPredicate@1@@Z 0000000180007900 f i RTreeCooking.obj
 0001:00006960       ??$sort@IUSortBoundsPredicate@physx@@VNamedAllocator@shdfnd@2@@shdfnd@physx@@YAXPEAIIAEBUSortBoundsPredicate@1@AEBVNamedAllocator@01@I@Z 0000000180007960 f i RTreeCooking.obj
 0001:00006d20       ??$swap@I@shdfnd@physx@@YAXAEAI0@Z 0000000180007d20 f i RTreeCooking.obj
 0001:00006d70       ??0?$AlignedAllocator@$0IA@VAllocator@shdfnd@physx@@@shdfnd@physx@@QEAA@AEBVAllocator@12@@Z 0000000180007d70 f i RTreeCooking.obj
 0001:00006d90       ??0?$Array@IVNamedAllocator@shdfnd@physx@@@shdfnd@physx@@QEAA@IAEBIAEBVNamedAllocator@12@@Z 0000000180007d90 f i RTreeCooking.obj
 0001:00006e20       ??0?$Array@UInterval@physx@@V?$InlineAllocator@$0CA@VNamedAllocator@shdfnd@physx@@@shdfnd@2@@shdfnd@physx@@QEAA@AEBV?$InlineAllocator@$0CA@VNamedAllocator@shdfnd@physx@@@12@@Z 0000000180007e20 f i RTreeCooking.obj
 0001:00006e80       ??0?$Array@UPxBounds3V@physx@@VNamedAllocator@shdfnd@2@@shdfnd@physx@@QEAA@AEBVNamedAllocator@12@@Z 0000000180007e80 f i RTreeCooking.obj
 0001:00006ee0       ??0?$Array@URTreeNodeNQ@physx@@VNamedAllocator@shdfnd@2@@shdfnd@physx@@QEAA@AEBVNamedAllocator@12@@Z 0000000180007ee0 f i RTreeCooking.obj
 0001:00006f40       ??0?$Array@URTreeNodeQ@Gu@physx@@VNamedAllocator@shdfnd@3@@shdfnd@physx@@QEAA@AEBVNamedAllocator@12@@Z 0000000180007f40 f i RTreeCooking.obj
 0001:00006fa0       ??0?$Array@VPxVec3@physx@@VNamedAllocator@shdfnd@2@@shdfnd@physx@@QEAA@AEBVNamedAllocator@12@@Z 0000000180007fa0 f i RTreeCooking.obj
 0001:00007000       ??0?$InlineAllocator@$0CA@VNamedAllocator@shdfnd@physx@@@shdfnd@physx@@QEAA@AEBV012@@Z 0000000180008000 f i RTreeCooking.obj
 0001:00007040       ??0?$InlineAllocator@$0CA@VNamedAllocator@shdfnd@physx@@@shdfnd@physx@@QEAA@AEBVNamedAllocator@12@@Z 0000000180008040 f i RTreeCooking.obj
 0001:00007080       ??0?$InlineArray@UInterval@physx@@$03VNamedAllocator@shdfnd@2@@shdfnd@physx@@QEAA@AEBVNamedAllocator@12@@Z 0000000180008080 f i RTreeCooking.obj
 0001:00007100       ??0?$ScopedPointer@HVTempAllocator@shdfnd@physx@@@shdfnd@physx@@QEAA@XZ 0000000180008100 f i RTreeCooking.obj
 0001:00007130       ??0?$Stack@VNamedAllocator@shdfnd@physx@@@internal@shdfnd@physx@@QEAA@PEAHIAEBVNamedAllocator@23@@Z 0000000180008130 f i RTreeCooking.obj
 0001:000071b0       ??0BoundsLTE@physx@@QEAA@IPEBVPxVec3@1@@Z 00000001800081b0 f i RTreeCooking.obj
 0001:000071f0       ??0Interval@physx@@QEAA@II@Z 00000001800081f0 f i RTreeCooking.obj
 0001:00007230       ??0PxBounds3@physx@@QEAA@AEBV01@@Z 0000000180008230 f i RTreeCooking.obj
 0001:00007290       ??0PxBounds3@physx@@QEAA@AEBVPxVec3@1@0@Z 0000000180008290 f i RTreeCooking.obj
 0001:000072f0       ??0PxBounds3V@physx@@QEAA@AEAT__m128@@0@Z 00000001800082f0 f i RTreeCooking.obj
 0001:00007340       ??0PxBounds3V@physx@@QEAA@UU@01@@Z 0000000180008340 f i RTreeCooking.obj
 0001:00007360       ??0PxVec3@physx@@QEAA@AEBV01@@Z 0000000180008360 f i RTreeCooking.obj
 0001:000073c0       ??0PxVec3@physx@@QEAA@M@Z  00000001800083c0 f i RTreeCooking.obj
 0001:00007410       ??0PxVec3@physx@@QEAA@MMM@Z 0000000180008410 f i RTreeCooking.obj
 0001:00007470       ??0PxVec4@physx@@QEAA@AEBVPxVec3@1@M@Z 0000000180008470 f i RTreeCooking.obj
 0001:000074f0       ??0PxVec4@physx@@QEAA@M@Z  00000001800084f0 f i RTreeCooking.obj
 0001:00007560       ??0PxVec4@physx@@QEAA@MMMM@Z 0000000180008560 f i RTreeCooking.obj
 0001:000075e0       ??0RTreeNodeNQ@physx@@QEAA@AEBU01@@Z 00000001800085e0 f i RTreeCooking.obj
 0001:00007640       ??0RTreeNodeNQ@physx@@QEAA@XZ 0000000180008640 f i RTreeCooking.obj
 0001:00007690       ??0SortBoundsPredicate@physx@@QEAA@IPEBUPxBounds3V@1@@Z 0000000180008690 f i RTreeCooking.obj
 0001:000076d0       ??0SubSortQuick@physx@@QEAA@PEAIPEBUPxBounds3V@1@IM@Z 00000001800086d0 f i RTreeCooking.obj
 0001:00007880       ??0SubSortSAH@physx@@QEAA@PEAIPEBUPxBounds3V@1@IPEBI22222M@Z 0000000180008880 f i RTreeCooking.obj
 0001:00007af0       ??1?$Array@IVNamedAllocator@shdfnd@physx@@@shdfnd@physx@@QEAA@XZ 0000000180008af0 f i RTreeCooking.obj
 0001:00007b80       ??1?$Array@UInterval@physx@@V?$InlineAllocator@$0CA@VNamedAllocator@shdfnd@physx@@@shdfnd@2@@shdfnd@physx@@QEAA@XZ 0000000180008b80 f i RTreeCooking.obj
 0001:00007c10       ??1?$Array@UPxBounds3V@physx@@VNamedAllocator@shdfnd@2@@shdfnd@physx@@QEAA@XZ 0000000180008c10 f i RTreeCooking.obj
 0001:00007ca0       ??1?$Array@URTreeNodeNQ@physx@@VNamedAllocator@shdfnd@2@@shdfnd@physx@@QEAA@XZ 0000000180008ca0 f i RTreeCooking.obj
 0001:00007d30       ??1?$Array@URTreeNodeQ@Gu@physx@@VNamedAllocator@shdfnd@3@@shdfnd@physx@@QEAA@XZ 0000000180008d30 f i RTreeCooking.obj
 0001:00007dc0       ??1?$Array@VPxVec3@physx@@VNamedAllocator@shdfnd@2@@shdfnd@physx@@QEAA@XZ 0000000180008dc0 f i RTreeCooking.obj
 0001:00007e50       ??1?$InlineAllocator@$0CA@VNamedAllocator@shdfnd@physx@@@shdfnd@physx@@QEAA@XZ 0000000180008e50 f i RTreeCooking.obj
 0001:00007e70       ??1?$InlineArray@UInterval@physx@@$03VNamedAllocator@shdfnd@2@@shdfnd@physx@@QEAA@XZ 0000000180008e70 f i RTreeCooking.obj
 0001:00007e90       ??1?$ScopedPointer@HVTempAllocator@shdfnd@physx@@@shdfnd@physx@@QEAA@XZ 0000000180008e90 f i RTreeCooking.obj
 0001:00007ed0       ??1?$Stack@VNamedAllocator@shdfnd@physx@@@internal@shdfnd@physx@@QEAA@XZ 0000000180008ed0 f i RTreeCooking.obj
 0001:00007f20       ??1SubSortQuick@physx@@QEAA@XZ 0000000180008f20 f i RTreeCooking.obj
 0001:00007f50       ??1SubSortSAH@physx@@QEAA@XZ 0000000180008f50 f i RTreeCooking.obj
 0001:00008020       ??2@YAPEAX_KPEAX@Z         0000000180009020 f i RTreeCooking.obj
 0001:00008040       ??4PxVec3@physx@@QEAAAEAV01@AEBV01@@Z 0000000180009040 f i RTreeCooking.obj
 0001:000080a0       ??4PxVec4@physx@@QEAAAEAV01@AEBV01@@Z 00000001800090a0 f i RTreeCooking.obj
 0001:00008120       ??A?$Array@IVNamedAllocator@shdfnd@physx@@@shdfnd@physx@@QEAAAEAII@Z 0000000180009120 f i RTreeCooking.obj
 0001:000081c0       ??A?$Array@UInterval@physx@@V?$InlineAllocator@$0CA@VNamedAllocator@shdfnd@physx@@@shdfnd@2@@shdfnd@physx@@QEAAAEAUInterval@2@I@Z 00000001800091c0 f i RTreeCooking.obj
 0001:00008260       ??A?$Array@URTreeNodeNQ@physx@@VNamedAllocator@shdfnd@2@@shdfnd@physx@@QEAAAEAURTreeNodeNQ@2@I@Z 0000000180009260 f i RTreeCooking.obj
 0001:00008300       ??A?$Array@URTreeNodeQ@Gu@physx@@VNamedAllocator@shdfnd@3@@shdfnd@physx@@QEAAAEAURTreeNodeQ@Gu@2@I@Z 0000000180009300 f i RTreeCooking.obj
 0001:000083a0       ??APxVec3@physx@@QEBAAEBMI@Z 00000001800093a0 f i RTreeCooking.obj
 0001:00008430       ??B?$ScopedPointer@HVTempAllocator@shdfnd@physx@@@shdfnd@physx@@QEBAPEAHXZ 0000000180009430 f i RTreeCooking.obj
 0001:00008450       ??GPxVec4@physx@@QEBA?AV01@AEBV01@@Z 0000000180009450 f i RTreeCooking.obj
 0001:00008500       ??HPxVec3@physx@@QEBA?AV01@AEBV01@@Z 0000000180009500 f i RTreeCooking.obj
 0001:000085a0       ??KPxVec4@physx@@QEBA?AV01@M@Z 00000001800095a0 f i RTreeCooking.obj
 0001:00008660       ??R?$Less@I@shdfnd@physx@@QEBA_NAEBI0@Z 0000000180009660 f i RTreeCooking.obj
 0001:000086b0       ??RBoundsLTE@physx@@QEBA_NAEBI0@Z 00000001800096b0 f i RTreeCooking.obj
 0001:00008770       ??RSortBoundsPredicate@physx@@QEBA_NAEBI0@Z 0000000180009770 f i RTreeCooking.obj
 0001:000088f0       ?FLoad@aos@shdfnd@physx@@YA?AT__m128@@M@Z 00000001800098f0 f i RTreeCooking.obj
 0001:00008920       ?FMax@aos@shdfnd@physx@@YA?AT__m128@@XZ 0000000180009920 f i RTreeCooking.obj
 0001:00008950       ?FNegMax@aos@shdfnd@physx@@YA?AT__m128@@XZ 0000000180009950 f i RTreeCooking.obj
 0001:00008980       ?FStore@aos@shdfnd@physx@@YAXT__m128@@PEIAM@Z 0000000180009980 f i RTreeCooking.obj
 0001:000089b0       ?PxAbs@physx@@YAHH@Z       00000001800099b0 f i RTreeCooking.obj
 0001:000089d0       ?PxIsFinite@physx@@YA_NM@Z 00000001800099d0 f i RTreeCooking.obj
 0001:000089f0       ?PxMemCopy@physx@@YAPEAXPEIAXPEIBXI@Z 00000001800099f0 f i RTreeCooking.obj
 0001:00008a30       ?V3Add@aos@shdfnd@physx@@YA?AT__m128@@T4@0@Z 0000000180009a30 f i RTreeCooking.obj
 0001:00008a70       ?V3Dot@aos@shdfnd@physx@@YA?AT__m128@@T4@0@Z 0000000180009a70 f i RTreeCooking.obj
 0001:00008b60       ?V3Load@aos@shdfnd@physx@@YA?AT__m128@@M@Z 0000000180009b60 f i RTreeCooking.obj
 0001:00008bb0       ?V3LoadU@aos@shdfnd@physx@@YA?AT__m128@@AEBVPxVec3@3@@Z 0000000180009bb0 f i RTreeCooking.obj
 0001:00008c10       ?V3Max@aos@shdfnd@physx@@YA?AT__m128@@T4@0@Z 0000000180009c10 f i RTreeCooking.obj
 0001:00008c50       ?V3Min@aos@shdfnd@physx@@YA?AT__m128@@T4@0@Z 0000000180009c50 f i RTreeCooking.obj
 0001:00008c90       ?V3PermZXY@aos@shdfnd@physx@@YA?AT__m128@@T4@@Z 0000000180009c90 f i RTreeCooking.obj
 0001:00008cc0       ?V3ReadXYZ@aos@shdfnd@physx@@YAAEBVPxVec3@3@AEBT__m128@@@Z 0000000180009cc0 f i RTreeCooking.obj
 0001:00008cd0       ?V3Splat@aos@shdfnd@physx@@YA?AT__m128@@T4@@Z 0000000180009cd0 f i RTreeCooking.obj
 0001:00008d40       ?V3StoreA@aos@shdfnd@physx@@YAXT__m128@@AEAVPxVec3@3@@Z 0000000180009d40 f i RTreeCooking.obj
 0001:00008dc0       ?V3Sub@aos@shdfnd@physx@@YA?AT__m128@@T4@0@Z 0000000180009dc0 f i RTreeCooking.obj
 0001:00008e00       ?V3Zero@aos@shdfnd@physx@@YA?AT__m128@@XZ 0000000180009e00 f i RTreeCooking.obj
 0001:00008e20       ?V4ClearW@aos@shdfnd@physx@@YA?AT__m128@@T4@@Z 0000000180009e20 f i RTreeCooking.obj
 0001:00008e50       ?V4Load@aos@shdfnd@physx@@YA?AT__m128@@M@Z 0000000180009e50 f i RTreeCooking.obj
 0001:00008e80       ?Vec3V_From_FloatV@aos@shdfnd@physx@@YA?AT__m128@@T4@@Z 0000000180009e80 f i RTreeCooking.obj
 0001:00008ee0       ?Vec3V_From_Vec4V@aos@shdfnd@physx@@YA?AT__m128@@T4@@Z 0000000180009ee0 f i RTreeCooking.obj
 0001:00008f20       ?Vec4V_From_FloatV@aos@shdfnd@physx@@YA?AT__m128@@T4@@Z 0000000180009f20 f i RTreeCooking.obj
 0001:00008f40       ?allocate@?$AlignedAllocator@$0IA@VAllocator@shdfnd@physx@@@shdfnd@physx@@QEAAPEAX_KPEBDH@Z 0000000180009f40 f i RTreeCooking.obj
 0001:00009010       ?allocate@?$Array@IVNamedAllocator@shdfnd@physx@@@shdfnd@physx@@IEAAPEAII@Z 000000018000a010 f i RTreeCooking.obj
 0001:000090c0       ?allocate@?$Array@UInterval@physx@@V?$InlineAllocator@$0CA@VNamedAllocator@shdfnd@physx@@@shdfnd@2@@shdfnd@physx@@IEAAPEAUInterval@3@I@Z 000000018000a0c0 f i RTreeCooking.obj
 0001:00009170       ?allocate@?$Array@UPxBounds3V@physx@@VNamedAllocator@shdfnd@2@@shdfnd@physx@@IEAAPEAUPxBounds3V@3@I@Z 000000018000a170 f i RTreeCooking.obj
 0001:00009220       ?allocate@?$Array@URTreeNodeNQ@physx@@VNamedAllocator@shdfnd@2@@shdfnd@physx@@IEAAPEAURTreeNodeNQ@3@I@Z 000000018000a220 f i RTreeCooking.obj
 0001:000092d0       ?allocate@?$Array@URTreeNodeQ@Gu@physx@@VNamedAllocator@shdfnd@3@@shdfnd@physx@@IEAAPEAURTreeNodeQ@Gu@3@I@Z 000000018000a2d0 f i RTreeCooking.obj
 0001:00009380       ?allocate@?$Array@VPxVec3@physx@@VNamedAllocator@shdfnd@2@@shdfnd@physx@@IEAAPEAVPxVec3@3@I@Z 000000018000a380 f i RTreeCooking.obj
 0001:00009430       ?allocate@?$InlineAllocator@$0CA@VNamedAllocator@shdfnd@physx@@@shdfnd@physx@@QEAAPEAXIPEBDH@Z 000000018000a430 f i RTreeCooking.obj
 0001:000094b0       ?begin@?$Array@IVNamedAllocator@shdfnd@physx@@@shdfnd@physx@@QEAAPEAIXZ 000000018000a4b0 f i RTreeCooking.obj
 0001:000094d0       ?begin@?$Array@UPxBounds3V@physx@@VNamedAllocator@shdfnd@2@@shdfnd@physx@@QEAAPEAUPxBounds3V@3@XZ 000000018000a4d0 f i RTreeCooking.obj
 0001:000094f0       ?begin@?$Array@VPxVec3@physx@@VNamedAllocator@shdfnd@2@@shdfnd@physx@@QEAAPEAVPxVec3@3@XZ 000000018000a4f0 f i RTreeCooking.obj
 0001:00009510       ?capacity@?$Array@IVNamedAllocator@shdfnd@physx@@@shdfnd@physx@@QEBAIXZ 000000018000a510 f i RTreeCooking.obj
 0001:00009530       ?capacity@?$Array@UInterval@physx@@V?$InlineAllocator@$0CA@VNamedAllocator@shdfnd@physx@@@shdfnd@2@@shdfnd@physx@@QEBAIXZ 000000018000a530 f i RTreeCooking.obj
 0001:00009550       ?capacity@?$Array@UPxBounds3V@physx@@VNamedAllocator@shdfnd@2@@shdfnd@physx@@QEBAIXZ 000000018000a550 f i RTreeCooking.obj
 0001:00009570       ?capacity@?$Array@URTreeNodeNQ@physx@@VNamedAllocator@shdfnd@2@@shdfnd@physx@@QEBAIXZ 000000018000a570 f i RTreeCooking.obj
 0001:00009590       ?capacity@?$Array@URTreeNodeQ@Gu@physx@@VNamedAllocator@shdfnd@3@@shdfnd@physx@@QEBAIXZ 000000018000a590 f i RTreeCooking.obj
 0001:000095b0       ?capacity@?$Array@VPxVec3@physx@@VNamedAllocator@shdfnd@2@@shdfnd@physx@@QEBAIXZ 000000018000a5b0 f i RTreeCooking.obj
 0001:000095d0       ?capacityIncrement@?$Array@IVNamedAllocator@shdfnd@physx@@@shdfnd@physx@@IEBAIXZ 000000018000a5d0 f i RTreeCooking.obj
 0001:00009620       ?capacityIncrement@?$Array@UInterval@physx@@V?$InlineAllocator@$0CA@VNamedAllocator@shdfnd@physx@@@shdfnd@2@@shdfnd@physx@@IEBAIXZ 000000018000a620 f i RTreeCooking.obj
 0001:00009670       ?capacityIncrement@?$Array@UPxBounds3V@physx@@VNamedAllocator@shdfnd@2@@shdfnd@physx@@IEBAIXZ 000000018000a670 f i RTreeCooking.obj
 0001:000096c0       ?capacityIncrement@?$Array@URTreeNodeNQ@physx@@VNamedAllocator@shdfnd@2@@shdfnd@physx@@IEBAIXZ 000000018000a6c0 f i RTreeCooking.obj
 0001:00009710       ?capacityIncrement@?$Array@URTreeNodeQ@Gu@physx@@VNamedAllocator@shdfnd@3@@shdfnd@physx@@IEBAIXZ 000000018000a710 f i RTreeCooking.obj
 0001:00009760       ?capacityIncrement@?$Array@VPxVec3@physx@@VNamedAllocator@shdfnd@2@@shdfnd@physx@@IEBAIXZ 000000018000a760 f i RTreeCooking.obj
 0001:000097b0       ?computeSA@SubSortSAH@physx@@QEAAMPEBIAEBUInterval@2@@Z 000000018000a7b0 f i RTreeCooking.obj
 0001:00009a40       ?copy@?$Array@IVNamedAllocator@shdfnd@physx@@@shdfnd@physx@@KAXPEAI0PEBI@Z 000000018000aa40 f i RTreeCooking.obj
 0001:00009af0       ?copy@?$Array@UInterval@physx@@V?$InlineAllocator@$0CA@VNamedAllocator@shdfnd@physx@@@shdfnd@2@@shdfnd@physx@@KAXPEAUInterval@3@0PEBU43@@Z 000000018000aaf0 f i RTreeCooking.obj
 0001:00009ba0       ?copy@?$Array@UPxBounds3V@physx@@VNamedAllocator@shdfnd@2@@shdfnd@physx@@KAXPEAUPxBounds3V@3@0PEBU43@@Z 000000018000aba0 f i RTreeCooking.obj
 0001:00009c50       ?copy@?$Array@URTreeNodeNQ@physx@@VNamedAllocator@shdfnd@2@@shdfnd@physx@@KAXPEAURTreeNodeNQ@3@0PEBU43@@Z 000000018000ac50 f i RTreeCooking.obj
 0001:00009cf0       ?copy@?$Array@URTreeNodeQ@Gu@physx@@VNamedAllocator@shdfnd@3@@shdfnd@physx@@KAXPEAURTreeNodeQ@Gu@3@0PEBU453@@Z 000000018000acf0 f i RTreeCooking.obj
 0001:00009da0       ?copy@?$Array@VPxVec3@physx@@VNamedAllocator@shdfnd@2@@shdfnd@physx@@KAXPEAVPxVec3@3@0PEBV43@@Z 000000018000ada0 f i RTreeCooking.obj
 0001:00009e40       ?create@?$Array@IVNamedAllocator@shdfnd@physx@@@shdfnd@physx@@KAXPEAI0AEBI@Z 000000018000ae40 f i RTreeCooking.obj
 0001:00009ee0       ?deallocate@?$Array@IVNamedAllocator@shdfnd@physx@@@shdfnd@physx@@IEAAXPEAX@Z 000000018000aee0 f i RTreeCooking.obj
 0001:00009f10       ?deallocate@?$Array@UInterval@physx@@V?$InlineAllocator@$0CA@VNamedAllocator@shdfnd@physx@@@shdfnd@2@@shdfnd@physx@@IEAAXPEAX@Z 000000018000af10 f i RTreeCooking.obj
 0001:00009f40       ?deallocate@?$Array@UPxBounds3V@physx@@VNamedAllocator@shdfnd@2@@shdfnd@physx@@IEAAXPEAX@Z 000000018000af40 f i RTreeCooking.obj
 0001:00009f70       ?deallocate@?$Array@URTreeNodeNQ@physx@@VNamedAllocator@shdfnd@2@@shdfnd@physx@@IEAAXPEAX@Z 000000018000af70 f i RTreeCooking.obj
 0001:00009fa0       ?deallocate@?$Array@URTreeNodeQ@Gu@physx@@VNamedAllocator@shdfnd@3@@shdfnd@physx@@IEAAXPEAX@Z 000000018000afa0 f i RTreeCooking.obj
 0001:00009fd0       ?deallocate@?$Array@VPxVec3@physx@@VNamedAllocator@shdfnd@2@@shdfnd@physx@@IEAAXPEAX@Z 000000018000afd0 f i RTreeCooking.obj
 0001:0000a000       ?deallocate@?$InlineAllocator@$0CA@VNamedAllocator@shdfnd@physx@@@shdfnd@physx@@QEAAXPEAX@Z 000000018000b000 f i RTreeCooking.obj
 0001:0000a050       ?destroy@?$Array@IVNamedAllocator@shdfnd@physx@@@shdfnd@physx@@KAXPEAI0@Z 000000018000b050 f i RTreeCooking.obj
 0001:0000a090       ?destroy@?$Array@UInterval@physx@@V?$InlineAllocator@$0CA@VNamedAllocator@shdfnd@physx@@@shdfnd@2@@shdfnd@physx@@KAXPEAUInterval@3@0@Z 000000018000b090 f i RTreeCooking.obj
 0001:0000a0d0       ?destroy@?$Array@UPxBounds3V@physx@@VNamedAllocator@shdfnd@2@@shdfnd@physx@@KAXPEAUPxBounds3V@3@0@Z 000000018000b0d0 f i RTreeCooking.obj
 0001:0000a110       ?destroy@?$Array@URTreeNodeNQ@physx@@VNamedAllocator@shdfnd@2@@shdfnd@physx@@KAXPEAURTreeNodeNQ@3@0@Z 000000018000b110 f i RTreeCooking.obj
 0001:0000a150       ?destroy@?$Array@URTreeNodeQ@Gu@physx@@VNamedAllocator@shdfnd@3@@shdfnd@physx@@KAXPEAURTreeNodeQ@Gu@3@0@Z 000000018000b150 f i RTreeCooking.obj
 0001:0000a190       ?destroy@?$Array@VPxVec3@physx@@VNamedAllocator@shdfnd@2@@shdfnd@physx@@KAXPEAVPxVec3@3@0@Z 000000018000b190 f i RTreeCooking.obj
 0001:0000a1d0       ?empty@?$Stack@VNamedAllocator@shdfnd@physx@@@internal@shdfnd@physx@@QEAA_NXZ 000000018000b1d0 f i RTreeCooking.obj
 0001:0000a210       ?empty@PxBounds3@physx@@SA?AV12@XZ 000000018000b210 f i RTreeCooking.obj
 0001:0000a280       ?getExtents@PxBounds3V@physx@@QEBA?AT__m128@@XZ 000000018000b280 f i RTreeCooking.obj
 0001:0000a2f0       ?getMaxVec3@PxBounds3V@physx@@QEBAAEBVPxVec3@2@XZ 000000018000b2f0 f i RTreeCooking.obj
 0001:0000a310       ?getMinVec3@PxBounds3V@physx@@QEBAAEBVPxVec3@2@XZ 000000018000b310 f i RTreeCooking.obj
 0001:0000a320       ?grow@?$Array@IVNamedAllocator@shdfnd@physx@@@shdfnd@physx@@IEAAXI@Z 000000018000b320 f i RTreeCooking.obj
 0001:0000a3c0       ?grow@?$Array@UPxBounds3V@physx@@VNamedAllocator@shdfnd@2@@shdfnd@physx@@IEAAXI@Z 000000018000b3c0 f i RTreeCooking.obj
 0001:0000a460       ?grow@?$Array@URTreeNodeNQ@physx@@VNamedAllocator@shdfnd@2@@shdfnd@physx@@IEAAXI@Z 000000018000b460 f i RTreeCooking.obj
 0001:0000a500       ?grow@?$Array@URTreeNodeQ@Gu@physx@@VNamedAllocator@shdfnd@3@@shdfnd@physx@@IEAAXI@Z 000000018000b500 f i RTreeCooking.obj
 0001:0000a5a0       ?grow@?$Array@VPxVec3@physx@@VNamedAllocator@shdfnd@2@@shdfnd@physx@@IEAAXI@Z 000000018000b5a0 f i RTreeCooking.obj
 0001:0000a640       ?grow@?$Stack@VNamedAllocator@shdfnd@physx@@@internal@shdfnd@physx@@QEAAXXZ 000000018000b640 f i RTreeCooking.obj
 0001:0000a720       ?growAndPushBack@?$Array@IVNamedAllocator@shdfnd@physx@@@shdfnd@physx@@IEAAAEAIAEBI@Z 000000018000b720 f i RTreeCooking.obj
 0001:0000a930       ?growAndPushBack@?$Array@UInterval@physx@@V?$InlineAllocator@$0CA@VNamedAllocator@shdfnd@physx@@@shdfnd@2@@shdfnd@physx@@IEAAAEAUInterval@3@AEBU43@@Z 000000018000b930 f i RTreeCooking.obj
 0001:0000ab40       ?growAndPushBack@?$Array@UPxBounds3V@physx@@VNamedAllocator@shdfnd@2@@shdfnd@physx@@IEAAAEAUPxBounds3V@3@AEBU43@@Z 000000018000bb40 f i RTreeCooking.obj
 0001:0000ada0       ?growAndPushBack@?$Array@URTreeNodeNQ@physx@@VNamedAllocator@shdfnd@2@@shdfnd@physx@@IEAAAEAURTreeNodeNQ@3@AEBU43@@Z 000000018000bda0 f i RTreeCooking.obj
 0001:0000afb0       ?growAndPushBack@?$Array@URTreeNodeQ@Gu@physx@@VNamedAllocator@shdfnd@3@@shdfnd@physx@@IEAAAEAURTreeNodeQ@Gu@3@AEBU453@@Z 000000018000bfb0 f i RTreeCooking.obj
 0001:0000b210       ?growAndPushBack@?$Array@VPxVec3@physx@@VNamedAllocator@shdfnd@2@@shdfnd@physx@@IEAAAEAVPxVec3@3@AEBV43@@Z 000000018000c210 f i RTreeCooking.obj
 0001:0000b420       ?include@PxBounds3V@physx@@QEAAXAEBU12@@Z 000000018000c420 f i RTreeCooking.obj
 0001:0000b4f0       ?isFinite@PxBounds3@physx@@QEBA_NXZ 000000018000c4f0 f i RTreeCooking.obj
 0001:0000b560       ?isFinite@PxVec3@physx@@QEBA_NXZ 000000018000c560 f i RTreeCooking.obj
 0001:0000b5e0       ?isFinite@intrinsics@physx@@YA_NM@Z 000000018000c5e0 f i RTreeCooking.obj
 0001:0000b630       ?isInUserMemory@?$Array@IVNamedAllocator@shdfnd@physx@@@shdfnd@physx@@QEBAIXZ 000000018000c630 f i RTreeCooking.obj
 0001:0000b650       ?isInUserMemory@?$Array@UInterval@physx@@V?$InlineAllocator@$0CA@VNamedAllocator@shdfnd@physx@@@shdfnd@2@@shdfnd@physx@@QEBAIXZ 000000018000c650 f i RTreeCooking.obj
 0001:0000b670       ?isInUserMemory@?$Array@UPxBounds3V@physx@@VNamedAllocator@shdfnd@2@@shdfnd@physx@@QEBAIXZ 000000018000c670 f i RTreeCooking.obj
 0001:0000b690       ?isInUserMemory@?$Array@URTreeNodeNQ@physx@@VNamedAllocator@shdfnd@2@@shdfnd@physx@@QEBAIXZ 000000018000c690 f i RTreeCooking.obj
 0001:0000b6b0       ?isInUserMemory@?$Array@URTreeNodeQ@Gu@physx@@VNamedAllocator@shdfnd@3@@shdfnd@physx@@QEBAIXZ 000000018000c6b0 f i RTreeCooking.obj
 0001:0000b6d0       ?isInUserMemory@?$Array@VPxVec3@physx@@VNamedAllocator@shdfnd@2@@shdfnd@physx@@QEBAIXZ 000000018000c6d0 f i RTreeCooking.obj
 0001:0000b6f0       ?isInside@PxBounds3@physx@@QEBA_NAEBV12@@Z 000000018000c6f0 f i RTreeCooking.obj
 0001:0000b850       ?isLeaf@RTreeNodeQ@Gu@physx@@QEBAIXZ 000000018000c850 f i RTreeCooking.obj
 0001:0000b870       ?isValid@PxBounds3@physx@@QEBA_NXZ 000000018000c870 f i RTreeCooking.obj
 0001:0000b9a0       ?memCopy@intrinsics@physx@@YAPEAXPEIAXPEIBXI@Z 000000018000c9a0 f i RTreeCooking.obj
 0001:0000b9e0       ?pop@?$Stack@VNamedAllocator@shdfnd@physx@@@internal@shdfnd@physx@@QEAAXAEAH0@Z 000000018000c9e0 f i RTreeCooking.obj
 0001:0000baf0       ?popBack@?$Array@IVNamedAllocator@shdfnd@physx@@@shdfnd@physx@@QEAAIXZ 000000018000caf0 f i RTreeCooking.obj
 0001:0000bbb0       ?push@?$Stack@VNamedAllocator@shdfnd@physx@@@internal@shdfnd@physx@@QEAAXHH@Z 000000018000cbb0 f i RTreeCooking.obj
 0001:0000bc60       ?pushBack@?$Array@IVNamedAllocator@shdfnd@physx@@@shdfnd@physx@@QEAAAEAIAEBI@Z 000000018000cc60 f i RTreeCooking.obj
 0001:0000bd50       ?pushBack@?$Array@UInterval@physx@@V?$InlineAllocator@$0CA@VNamedAllocator@shdfnd@physx@@@shdfnd@2@@shdfnd@physx@@QEAAAEAUInterval@3@AEBU43@@Z 000000018000cd50 f i RTreeCooking.obj
 0001:0000be40       ?pushBack@?$Array@UPxBounds3V@physx@@VNamedAllocator@shdfnd@2@@shdfnd@physx@@QEAAAEAUPxBounds3V@3@AEBU43@@Z 000000018000ce40 f i RTreeCooking.obj
 0001:0000bf40       ?pushBack@?$Array@URTreeNodeNQ@physx@@VNamedAllocator@shdfnd@2@@shdfnd@physx@@QEAAAEAURTreeNodeNQ@3@AEBU43@@Z 000000018000cf40 f i RTreeCooking.obj
 0001:0000c030       ?pushBack@?$Array@URTreeNodeQ@Gu@physx@@VNamedAllocator@shdfnd@3@@shdfnd@physx@@QEAAAEAURTreeNodeQ@Gu@3@AEBU453@@Z 000000018000d030 f i RTreeCooking.obj
 0001:0000c130       ?pushBack@?$Array@VPxVec3@physx@@VNamedAllocator@shdfnd@2@@shdfnd@physx@@QEAAAEAVPxVec3@3@AEBV43@@Z 000000018000d130 f i RTreeCooking.obj
 0001:0000c220       ?recreate@?$Array@IVNamedAllocator@shdfnd@physx@@@shdfnd@physx@@IEAAXI@Z 000000018000d220 f i RTreeCooking.obj
 0001:0000c380       ?recreate@?$Array@UPxBounds3V@physx@@VNamedAllocator@shdfnd@2@@shdfnd@physx@@IEAAXI@Z 000000018000d380 f i RTreeCooking.obj
 0001:0000c4e0       ?recreate@?$Array@URTreeNodeNQ@physx@@VNamedAllocator@shdfnd@2@@shdfnd@physx@@IEAAXI@Z 000000018000d4e0 f i RTreeCooking.obj
 0001:0000c640       ?recreate@?$Array@URTreeNodeQ@Gu@physx@@VNamedAllocator@shdfnd@3@@shdfnd@physx@@IEAAXI@Z 000000018000d640 f i RTreeCooking.obj
 0001:0000c7a0       ?recreate@?$Array@VPxVec3@physx@@VNamedAllocator@shdfnd@2@@shdfnd@physx@@IEAAXI@Z 000000018000d7a0 f i RTreeCooking.obj
 0001:0000c900       ?replaceWithLast@?$Array@UInterval@physx@@V?$InlineAllocator@$0CA@VNamedAllocator@shdfnd@physx@@@shdfnd@2@@shdfnd@physx@@QEAAXI@Z 000000018000d900 f i RTreeCooking.obj
 0001:0000c9d0       ?reserve@?$Array@IVNamedAllocator@shdfnd@physx@@@shdfnd@physx@@QEAAXI@Z 000000018000d9d0 f i RTreeCooking.obj
 0001:0000ca10       ?reserve@?$Array@UPxBounds3V@physx@@VNamedAllocator@shdfnd@2@@shdfnd@physx@@QEAAXI@Z 000000018000da10 f i RTreeCooking.obj
 0001:0000ca50       ?reserve@?$Array@URTreeNodeNQ@physx@@VNamedAllocator@shdfnd@2@@shdfnd@physx@@QEAAXI@Z 000000018000da50 f i RTreeCooking.obj
 0001:0000ca90       ?reserve@?$Array@URTreeNodeQ@Gu@physx@@VNamedAllocator@shdfnd@3@@shdfnd@physx@@QEAAXI@Z 000000018000da90 f i RTreeCooking.obj
 0001:0000cad0       ?reserve@?$Array@VPxVec3@physx@@VNamedAllocator@shdfnd@2@@shdfnd@physx@@QEAAXI@Z 000000018000dad0 f i RTreeCooking.obj
 0001:0000cb10       ?resize@?$Array@IVNamedAllocator@shdfnd@physx@@@shdfnd@physx@@QEAAXIAEBI@Z 000000018000db10 f i RTreeCooking.obj
 0001:0000cbd0       ?resizeUninitialized@?$Array@URTreeNodeNQ@physx@@VNamedAllocator@shdfnd@2@@shdfnd@physx@@QEAAXI@Z 000000018000dbd0 f i RTreeCooking.obj
 0001:0000cc10       ?selectMax@intrinsics@physx@@YAMMM@Z 000000018000dc10 f i RTreeCooking.obj
 0001:0000cc60       ?selectMin@intrinsics@physx@@YAMMM@Z 000000018000dc60 f i RTreeCooking.obj
 0001:0000ccb0       ?setEmpty@PxBounds3@physx@@QEAAXXZ 000000018000dcb0 f i RTreeCooking.obj
 0001:0000cd20       ?setLeaf@RTreeNodeQ@Gu@physx@@QEAAX_N@Z 000000018000dd20 f i RTreeCooking.obj
 0001:0000cd70       ?size@?$Array@IVNamedAllocator@shdfnd@physx@@@shdfnd@physx@@QEBAIXZ 000000018000dd70 f i RTreeCooking.obj
 0001:0000cd90       ?size@?$Array@UInterval@physx@@V?$InlineAllocator@$0CA@VNamedAllocator@shdfnd@physx@@@shdfnd@2@@shdfnd@physx@@QEBAIXZ 000000018000dd90 f i RTreeCooking.obj
 0001:0000cdb0       ?size@?$Array@URTreeNodeNQ@physx@@VNamedAllocator@shdfnd@2@@shdfnd@physx@@QEBAIXZ 000000018000ddb0 f i RTreeCooking.obj
 0001:0000cdd0       ?size@?$Array@URTreeNodeQ@Gu@physx@@VNamedAllocator@shdfnd@3@@shdfnd@physx@@QEBAIXZ 000000018000ddd0 f i RTreeCooking.obj
 0001:0000cdf0       ?size@?$Array@VPxVec3@physx@@VNamedAllocator@shdfnd@2@@shdfnd@physx@@QEBAIXZ 000000018000ddf0 f i RTreeCooking.obj
 0001:0000ce10       ?sort4@SubSortQuick@physx@@QEAAXPEIAIIAEAV?$Array@URTreeNodeNQ@physx@@VNamedAllocator@shdfnd@2@@shdfnd@2@AEAIAEAUPxBounds3V@2@I@Z 000000018000de10 f i RTreeCooking.obj
 0001:0000dac0       ?sort4@SubSortSAH@physx@@QEAAXPEAIIAEAV?$Array@URTreeNodeNQ@physx@@VNamedAllocator@shdfnd@2@@shdfnd@2@AEAIIPEAURTreeNodeNQ@2@@Z 000000018000eac0 f i RTreeCooking.obj
 0001:0000ec70       ?split@SubSortSAH@physx@@QEAAIPEAII@Z 000000018000fc70 f i RTreeCooking.obj
 0001:0000ff10       ?loadFromDesc@TriangleMeshBuilder@physx@@QEAA_NAEBVPxTriangleMeshDesc@2@AEBUPxCookingParams@2@_N@Z 0000000180010f10 f   TriangleMeshBuilder.obj
 0001:00010220       ?save@TriangleMeshBuilder@physx@@QEBA_NAEAVPxOutputStream@2@_NAEBUPxCookingParams@2@@Z 0000000180011220 f   TriangleMeshBuilder.obj
 0001:00010a30       ?computeLocalBounds@TriangleMeshBuilder@physx@@IEAAXXZ 0000000180011a30 f   TriangleMeshBuilder.obj
 0001:00010b50       ?importMesh@TriangleMeshBuilder@physx@@IEAA_NAEBVPxTriangleMeshDesc@2@AEBUPxCookingParams@2@_N@Z 0000000180011b50 f   TriangleMeshBuilder.obj
 0001:00011600       ??$?_UI@@YAPEAX_KV?$ReflectionAllocator@I@shdfnd@physx@@PEBDH@Z 0000000180012600 f i TriangleMeshBuilder.obj
 0001:00011650       ??0?$PxFlags@W4Enum@PxMeshFlag@physx@@G@physx@@QEAA@AEBV01@@Z 0000000180012650 f i TriangleMeshBuilder.obj
 0001:00011680       ??0?$PxFlags@W4Enum@PxMeshFlag@physx@@G@physx@@QEAA@W4Enum@PxMeshFlag@1@@Z 0000000180012680 f i TriangleMeshBuilder.obj
 0001:000116b0       ??0?$PxFlags@W4Enum@PxMeshFlag@physx@@G@physx@@QEAA@XZ 00000001800126b0 f i TriangleMeshBuilder.obj
 0001:000116d0       ??0?$PxFlags@W4Enum@PxMeshPreprocessingFlag@physx@@I@physx@@QEAA@AEBV01@@Z 00000001800126d0 f i TriangleMeshBuilder.obj
 0001:00011700       ??0?$ReflectionAllocator@I@shdfnd@physx@@QEAA@PEBD@Z 0000000180012700 f i TriangleMeshBuilder.obj
 0001:00011720       ??0PxSimpleTriangleMesh@physx@@QEAA@AEBV01@@Z 0000000180012720 f i TriangleMeshBuilder.obj
 0001:000117a0       ??0PxTriangleMeshDesc@physx@@QEAA@AEBV01@@Z 00000001800127a0 f i TriangleMeshBuilder.obj
 0001:00011810       ??APxVec3@physx@@QEAAAEAMI@Z 0000000180012810 f i TriangleMeshBuilder.obj
 0001:000118a0       ??B?$PxFlags@W4Enum@PxMeshFlag@physx@@G@physx@@QEBA_NXZ 00000001800128a0 f i TriangleMeshBuilder.obj
 0001:000118e0       ??B?$PxFlags@W4Enum@PxMeshPreprocessingFlag@physx@@I@physx@@QEBA_NXZ 00000001800128e0 f i TriangleMeshBuilder.obj
 0001:00011910       ??I?$PxFlags@W4Enum@PxMeshFlag@physx@@G@physx@@QEBA?AV01@W4Enum@PxMeshFlag@1@@Z 0000000180012910 f i TriangleMeshBuilder.obj
 0001:00011980       ??I?$PxFlags@W4Enum@PxMeshPreprocessingFlag@physx@@I@physx@@QEBA?AV01@W4Enum@PxMeshPreprocessingFlag@1@@Z 0000000180012980 f i TriangleMeshBuilder.obj
 0001:000119e0       ??S?$PxFlags@W4Enum@PxMeshFlag@physx@@G@physx@@QEBA?AV01@XZ 00000001800129e0 f i TriangleMeshBuilder.obj
 0001:00011a30       ??Sphysx@@YA?AV?$PxFlags@W4Enum@PxMeshFlag@physx@@G@0@W4Enum@PxMeshFlag@0@@Z 0000000180012a30 f i TriangleMeshBuilder.obj
 0001:00011a70       ??_4?$PxFlags@W4Enum@PxMeshFlag@physx@@G@physx@@QEAAAEAV01@AEBV01@@Z 0000000180012a70 f i TriangleMeshBuilder.obj
 0001:00011ab0       ??_H@YAXPEAX_KHP6APEAX0@Z@Z 0000000180012ab0 f i TriangleMeshBuilder.obj
 0001:00011b20       ?PxAbs@physx@@YAMM@Z       0000000180012b20 f i TriangleMeshBuilder.obj
 0001:00011b40       ?abs@intrinsics@physx@@YAMM@Z 0000000180012b40 f i TriangleMeshBuilder.obj
 0001:00011b60       ?allocate@?$ReflectionAllocator@I@shdfnd@physx@@QEAAPEAX_KPEBDH@Z 0000000180012b60 f i TriangleMeshBuilder.obj
 0001:00011c00       ?gatherStrided@shdfnd@physx@@YAXPEBXPEAXIII@Z 0000000180012c00 f i TriangleMeshBuilder.obj
 0001:00011cb0       ?getFoundation@shdfnd@physx@@YAAEAVFoundation@12@XZ 0000000180012cb0 f i TriangleMeshBuilder.obj
 0001:00011cd0       ?getName@?$ReflectionAllocator@I@shdfnd@physx@@CAPEBDXZ 0000000180012cd0 f i TriangleMeshBuilder.obj
 0001:00011d30       ?isValid@PxSimpleTriangleMesh@physx@@QEBA_NXZ 0000000180012d30 f i TriangleMeshBuilder.obj
 0001:00011e40       ?isValid@PxTriangleMeshDesc@physx@@QEBA_NXZ 0000000180012e40 f i TriangleMeshBuilder.obj
 0001:00011ed0       ?to16@shdfnd@physx@@YAGI@Z 0000000180012ed0 f i TriangleMeshBuilder.obj
 0001:00011f50       ?writeIntBuffer@physx@@YAXPEBII_NAEAVPxOutputStream@1@@Z 0000000180012f50 f i TriangleMeshBuilder.obj
 0001:00011fa0       fabsf                      0000000180012fa0 f i TriangleMeshBuilder.obj
 0001:00011fd0       ??0BigConvexDataBuilder@physx@@QEAA@PEBUConvexHullData@Gu@1@PEAVBigConvexData@1@PEBVPxVec3@1@@Z 0000000180012fd0 f   BigConvexDataBuilder.obj
 0001:00012020       ??1BigConvexDataBuilder@physx@@QEAA@XZ 0000000180013020 f   BigConvexDataBuilder.obj
 0001:00012030       ?Precompute@BigConvexDataBuilder@physx@@QEAA_NI@Z 0000000180013030 f   BigConvexDataBuilder.obj
 0001:000123d0       ?Initialize@BigConvexDataBuilder@physx@@QEAA_NXZ 00000001800133d0 f   BigConvexDataBuilder.obj
 0001:00012440       ?PrecomputeSample@BigConvexDataBuilder@physx@@QEAA_NIAEBVPxVec3@2@@Z 0000000180013440 f   BigConvexDataBuilder.obj
 0001:00012590       ?Save@BigConvexDataBuilder@physx@@QEBA_NAEAVPxOutputStream@2@_NIPEBUHullTriangleData@2@@Z 0000000180013590 f   BigConvexDataBuilder.obj
 0001:000126e0       ?ComputeValencies@BigConvexDataBuilder@physx@@QEBA_NIPEBUHullTriangleData@2@@Z 00000001800136e0 f   BigConvexDataBuilder.obj
 0001:00012750       ?Compute@BigConvexDataBuilder@physx@@QEBA_NAEBUVALENCIESCREATE@2@@Z 0000000180013750 f   BigConvexDataBuilder.obj
 0001:00012e10       ?Save@BigConvexDataBuilder@physx@@QEBA_NAEAVPxOutputStream@2@_N@Z 0000000180013e10 f   BigConvexDataBuilder.obj
 0001:00013480       ??$?_UE@@YAPEAX_KV?$ReflectionAllocator@E@shdfnd@physx@@PEBDH@Z 0000000180014480 f i BigConvexDataBuilder.obj
 0001:000134d0       ??$?_UG@@YAPEAX_KV?$ReflectionAllocator@G@shdfnd@physx@@PEBDH@Z 00000001800144d0 f i BigConvexDataBuilder.obj
 0001:00013520       ??$?_UUValency@Gu@physx@@@@YAPEAX_KV?$ReflectionAllocator@UValency@Gu@physx@@@shdfnd@physx@@PEBDH@Z 0000000180014520 f i BigConvexDataBuilder.obj
 0001:00013570       ??0?$ReflectionAllocator@E@shdfnd@physx@@QEAA@PEBD@Z 0000000180014570 f i BigConvexDataBuilder.obj
 0001:00013590       ??0?$ReflectionAllocator@G@shdfnd@physx@@QEAA@PEBD@Z 0000000180014590 f i BigConvexDataBuilder.obj
 0001:000135b0       ??0?$ReflectionAllocator@UValency@Gu@physx@@@shdfnd@physx@@QEAA@PEBD@Z 00000001800145b0 f i BigConvexDataBuilder.obj
 0001:000135d0       ??0EDGELISTCREATE@Gu@physx@@QEAA@XZ 00000001800145d0 f i BigConvexDataBuilder.obj
 0001:00013650       ??0PxVec3@physx@@QEAA@XZ   0000000180014650 f i BigConvexDataBuilder.obj
 0001:00013660       ??0VALENCIESCREATE@physx@@QEAA@XZ 0000000180014660 f i BigConvexDataBuilder.obj
 0001:00013690       ??_0PxVec3@physx@@QEAAAEAV01@M@Z 0000000180014690 f i BigConvexDataBuilder.obj
 0001:00013720       ?GetEdge@EdgeList@Gu@physx@@QEBAAEBUEdgeData@23@I@Z 0000000180014720 f i BigConvexDataBuilder.obj
 0001:00013750       ?GetNbEdges@EdgeList@Gu@physx@@QEBAIXZ 0000000180014750 f i BigConvexDataBuilder.obj
 0001:00013760       ?PxMemZero@physx@@YAPEAXPEIAXI@Z 0000000180014760 f i BigConvexDataBuilder.obj
 0001:00013790       ?PxSqrt@physx@@YAMM@Z      0000000180014790 f i BigConvexDataBuilder.obj
 0001:000137b0       ?allocate@?$ReflectionAllocator@E@shdfnd@physx@@QEAAPEAX_KPEBDH@Z 00000001800147b0 f i BigConvexDataBuilder.obj
 0001:00013850       ?allocate@?$ReflectionAllocator@G@shdfnd@physx@@QEAAPEAX_KPEBDH@Z 0000000180014850 f i BigConvexDataBuilder.obj
 0001:000138f0       ?allocate@?$ReflectionAllocator@UValency@Gu@physx@@@shdfnd@physx@@QEAAPEAX_KPEBDH@Z 00000001800148f0 f i BigConvexDataBuilder.obj
 0001:00013990       ?dot@PxVec3@physx@@QEBAMAEBV12@@Z 0000000180014990 f i BigConvexDataBuilder.obj
 0001:000139f0       ?getName@?$ReflectionAllocator@E@shdfnd@physx@@CAPEBDXZ 00000001800149f0 f i BigConvexDataBuilder.obj
 0001:00013a50       ?getName@?$ReflectionAllocator@G@shdfnd@physx@@CAPEBDXZ 0000000180014a50 f i BigConvexDataBuilder.obj
 0001:00013ab0       ?getName@?$ReflectionAllocator@UValency@Gu@physx@@@shdfnd@physx@@CAPEBDXZ 0000000180014ab0 f i BigConvexDataBuilder.obj
 0001:00013b10       ?magnitude@PxVec3@physx@@QEBAMXZ 0000000180014b10 f i BigConvexDataBuilder.obj
 0001:00013b40       ?magnitudeSquared@PxVec3@physx@@QEBAMXZ 0000000180014b40 f i BigConvexDataBuilder.obj
 0001:00013ba0       ?memZero@intrinsics@physx@@YAPEAXPEIAXI@Z 0000000180014ba0 f i BigConvexDataBuilder.obj
 0001:00013be0       ?normalize@PxVec3@physx@@QEAAMXZ 0000000180014be0 f i BigConvexDataBuilder.obj
 0001:00013c40       ?sqrt@intrinsics@physx@@YAMM@Z 0000000180014c40 f i BigConvexDataBuilder.obj
 0001:00013ce0       ??0ConvexHullBuilder@physx@@QEAA@PEAUConvexHullData@Gu@1@@Z 0000000180014ce0 f   ConvexHullBuilder.obj
 0001:00013d80       ??1ConvexHullBuilder@physx@@QEAA@XZ 0000000180014d80 f   ConvexHullBuilder.obj
 0001:00013ed0       ?Init@ConvexHullBuilder@physx@@QEAA_NIPEBVPxVec3@2@IPEBIIPEBUPxHullPolygon@2@@Z 0000000180014ed0 f   ConvexHullBuilder.obj
 0001:00014b50       ?Save@ConvexHullBuilder@physx@@QEBA_NAEAVPxOutputStream@2@_N@Z 0000000180015b50 f   ConvexHullBuilder.obj
 0001:00014e90       ?CreateEdgeList@ConvexHullBuilder@physx@@QEAA_NXZ 0000000180015e90 f   ConvexHullBuilder.obj
 0001:00015e70       ?CreatePolygonData@ConvexHullBuilder@physx@@QEAA_NXZ 0000000180016e70 f   ConvexHullBuilder.obj
 0001:00016f60       ?CheckHullPolygons@ConvexHullBuilder@physx@@QEBA_NXZ 0000000180017f60 f   ConvexHullBuilder.obj
 0001:00017710       ?CreateTrianglesFromPolygons@ConvexHullBuilder@physx@@QEAA_NXZ 0000000180018710 f   ConvexHullBuilder.obj
 0001:00017dd0       ?ComputeGeomCenter@ConvexHullBuilder@physx@@QEBA_NAEAVPxVec3@2@@Z 0000000180018dd0 f   ConvexHullBuilder.obj
 0001:00017f90       ?CalculateVertexMapTable@ConvexHullBuilder@physx@@QEAA_NI_N@Z 0000000180018f90 f   ConvexHullBuilder.obj
 0001:00018270       ?ComputeHullPolygons@ConvexHullBuilder@physx@@QEAA_NAEBIPEBVPxVec3@2@0PEBI@Z 0000000180019270 f   ConvexHullBuilder.obj
 0001:0001cbd0       ??$?_UUEdgeDescData@Gu@physx@@@@YAPEAX_KV?$ReflectionAllocator@UEdgeDescData@Gu@physx@@@shdfnd@physx@@PEBDH@Z 000000018001dbd0 f i ConvexHullBuilder.obj
 0001:0001cc20       ??$?_UUHullTriangleData@physx@@@@YAPEAX_KV?$ReflectionAllocator@UHullTriangleData@physx@@@shdfnd@physx@@PEBDH@Z 000000018001dc20 f i ConvexHullBuilder.obj
 0001:0001cc70       ??$PX_UNUSED@H@@YAXAEBH@Z  000000018001dc70 f i ConvexHullBuilder.obj
 0001:0001cc80       ??$PlaneEquation@U?$TriangleT@I@Gu@physx@@@@YA?AVPxPlane@physx@@AEBU?$TriangleT@I@Gu@1@PEBVPxVec3@1@@Z 000000018001dc80 f i ConvexHullBuilder.obj
 0001:0001cd50       ??$swap@E@shdfnd@physx@@YAXAEAE0@Z 000000018001dd50 f i ConvexHullBuilder.obj
 0001:0001cda0       ??0?$ReflectionAllocator@UEdgeDescData@Gu@physx@@@shdfnd@physx@@QEAA@PEBD@Z 000000018001dda0 f i ConvexHullBuilder.obj
 0001:0001cdc0       ??0?$ReflectionAllocator@UHullTriangleData@physx@@@shdfnd@physx@@QEAA@PEBD@Z 000000018001ddc0 f i ConvexHullBuilder.obj
 0001:0001cde0       ??0?$TriangleT@I@Gu@physx@@QEAA@III@Z 000000018001dde0 f i ConvexHullBuilder.obj
 0001:0001ce50       ??0ADJACENCIESCREATE@physx@@QEAA@XZ 000000018001de50 f i ConvexHullBuilder.obj
 0001:0001cec0       ??0HullPolygonData@Gu@physx@@QEAA@AEBU012@@Z 000000018001dec0 f i ConvexHullBuilder.obj
 0001:0001cf40       ??0PxPlane@physx@@QEAA@AEBV01@@Z 000000018001df40 f i ConvexHullBuilder.obj
 0001:0001cf90       ??0PxPlane@physx@@QEAA@AEBVPxVec3@1@00@Z 000000018001df90 f i ConvexHullBuilder.obj
 0001:0001d080       ??0PxPlane@physx@@QEAA@MMMM@Z 000000018001e080 f i ConvexHullBuilder.obj
 0001:0001d0f0       ??4PxPlane@physx@@QEAAAEAV01@AEBV01@@Z 000000018001e0f0 f i ConvexHullBuilder.obj
 0001:0001d140       ??DPxVec3@physx@@QEBA?AV01@M@Z 000000018001e140 f i ConvexHullBuilder.obj
 0001:0001d1d0       ??GPxVec3@physx@@QEBA?AV01@AEBV01@@Z 000000018001e1d0 f i ConvexHullBuilder.obj
 0001:0001d270       ??GPxVec3@physx@@QEBA?AV01@XZ 000000018001e270 f i ConvexHullBuilder.obj
 0001:0001d300       ??YPxVec3@physx@@QEAAAEAV01@AEBV01@@Z 000000018001e300 f i ConvexHullBuilder.obj
 0001:0001d380       ?ComputeNbPolygons@ConvexHullBuilder@physx@@QEBAIXZ 000000018001e380 f i ConvexHullBuilder.obj
 0001:0001d3d0       ?Flip@physx@@YAXAEAUHullTriangleData@1@@Z 000000018001e3d0 f i ConvexHullBuilder.obj
 0001:0001d440       ?GetAdjTri@AdjTriangle@physx@@QEBAIW4SharedEdgeIndex@2@@Z 000000018001e440 f i ConvexHullBuilder.obj
 0001:0001d470       ?GetFaces@ConvexHullBuilder@physx@@QEBAPEBUHullTriangleData@2@XZ 000000018001e470 f i ConvexHullBuilder.obj
 0001:0001d490       ?GetNbFaces@ConvexHullBuilder@physx@@QEBAIXZ 000000018001e490 f i ConvexHullBuilder.obj
 0001:0001d4b0       ?HasActiveEdge01@AdjTriangle@physx@@QEBAHXZ 000000018001e4b0 f i ConvexHullBuilder.obj
 0001:0001d4e0       ?HasActiveEdge12@AdjTriangle@physx@@QEBAHXZ 000000018001e4e0 f i ConvexHullBuilder.obj
 0001:0001d510       ?HasActiveEdge20@AdjTriangle@physx@@QEBAHXZ 000000018001e510 f i ConvexHullBuilder.obj
 0001:0001d540       ?HasActiveEdge@AdjTriangle@physx@@QEBAHI@Z 000000018001e540 f i ConvexHullBuilder.obj
 0001:0001d570       ?PxRecipSqrt@physx@@YAMM@Z 000000018001e570 f i ConvexHullBuilder.obj
 0001:0001d590       ?allocate@?$ReflectionAllocator@UEdgeDescData@Gu@physx@@@shdfnd@physx@@QEAAPEAX_KPEBDH@Z 000000018001e590 f i ConvexHullBuilder.obj
 0001:0001d630       ?allocate@?$ReflectionAllocator@UHullTriangleData@physx@@@shdfnd@physx@@QEAAPEAX_KPEBDH@Z 000000018001e630 f i ConvexHullBuilder.obj
 0001:0001d6d0       ?area@?$TriangleT@I@Gu@physx@@QEBAMPEBVPxVec3@3@@Z 000000018001e6d0 f i ConvexHullBuilder.obj
 0001:0001d7f0       ?center@?$TriangleT@I@Gu@physx@@QEBAXPEBVPxVec3@3@AEAV43@@Z 000000018001e7f0 f i ConvexHullBuilder.obj
 0001:0001d900       ?cross@PxVec3@physx@@QEBA?AV12@AEBV12@@Z 000000018001e900 f i ConvexHullBuilder.obj
 0001:0001d9f0       ?distance@PxPlane@physx@@QEBAMAEBVPxVec3@2@@Z 000000018001e9f0 f i ConvexHullBuilder.obj
 0001:0001da30       ?flip@?$TriangleT@I@Gu@physx@@QEAAXXZ 000000018001ea30 f i ConvexHullBuilder.obj
 0001:0001da80       ?flip@physx@@YAXAEAG@Z     000000018001ea80 f i ConvexHullBuilder.obj
 0001:0001db00       ?flip@physx@@YAXAEAM@Z     000000018001eb00 f i ConvexHullBuilder.obj
 0001:0001dbf0       ?flipData@Gu@physx@@YAXAEAUHullPolygonData@12@@Z 000000018001ebf0 f i ConvexHullBuilder.obj
 0001:0001dc70       ?getName@?$ReflectionAllocator@UEdgeDescData@Gu@physx@@@shdfnd@physx@@CAPEBDXZ 000000018001ec70 f i ConvexHullBuilder.obj
 0001:0001dcd0       ?getName@?$ReflectionAllocator@UHullTriangleData@physx@@@shdfnd@physx@@CAPEBDXZ 000000018001ecd0 f i ConvexHullBuilder.obj
 0001:0001dd30       ?getNormalized@PxVec3@physx@@QEBA?AV12@XZ 000000018001ed30 f i ConvexHullBuilder.obj
 0001:0001dde0       ?recipSqrt@intrinsics@physx@@YAMM@Z 000000018001ede0 f i ConvexHullBuilder.obj
 0001:0001de20       ?to8@shdfnd@physx@@YAEI@Z  000000018001ee20 f i ConvexHullBuilder.obj
 0001:0001dea0       ??0ConvexMeshBuilder@physx@@QEAA@XZ 000000018001eea0 f   ConvexMeshBuilder.obj
 0001:0001df00       ??1ConvexMeshBuilder@physx@@UEAA@XZ 000000018001ef00 f   ConvexMeshBuilder.obj
 0001:0001df60       ?loadFromDesc@ConvexMeshBuilder@physx@@QEAA_NAEBVPxConvexMeshDesc@2@W4Enum@PxPlatform@2@@Z 000000018001ef60 f   ConvexMeshBuilder.obj
 0001:0001e040       ?save@ConvexMeshBuilder@physx@@QEBA_NAEAVPxOutputStream@2@_N@Z 000000018001f040 f   ConvexMeshBuilder.obj
 0001:0001e3f0       ?loadConvexHull@ConvexMeshBuilder@physx@@QEAA_NAEBVPxConvexMeshDesc@2@@Z 000000018001f3f0 f   ConvexMeshBuilder.obj
 0001:0001e880       ?computeHullPolygons@ConvexMeshBuilder@physx@@QEAA_NAEBIPEBVPxVec3@2@0PEBIAEAVPxAllocatorCallback@2@AEAIAEAPEAV32@4AEAPEAI4AEAPEAUPxHullPolygon@2@@Z 000000018001f880 f   ConvexMeshBuilder.obj
 0001:0001ece0       ?computeGaussMaps@ConvexMeshBuilder@physx@@QEAA_NXZ 000000018001fce0 f   ConvexMeshBuilder.obj
 0001:0001ee20       ?computeMassInfo@ConvexMeshBuilder@physx@@QEAAXXZ 000000018001fe20 f   ConvexMeshBuilder.obj
 0001:0001f120       ?computeInternalObjects@ConvexMeshBuilder@physx@@QEAAXXZ 0000000180020120 f   ConvexMeshBuilder.obj
 0001:000204b0       ??0?$PxFlags@W4Enum@PxBaseFlag@physx@@G@physx@@QEAA@AEBV01@@Z 00000001800214b0 f i ConvexMeshBuilder.obj
 0001:000204e0       ??0?$PxFlags@W4Enum@PxConvexFlag@physx@@G@physx@@QEAA@AEBV01@@Z 00000001800214e0 f i ConvexMeshBuilder.obj
 0001:00020510       ??0?$ReflectionAllocator@VBigConvexData@physx@@@shdfnd@physx@@QEAA@PEBD@Z 0000000180021510 f i ConvexMeshBuilder.obj
 0001:00020530       ??0PxBoundedData@physx@@QEAA@XZ 0000000180021530 f i ConvexMeshBuilder.obj
 0001:00020570       ??0PxIntegrals@physx@@QEAA@XZ 0000000180021570 f i ConvexMeshBuilder.obj
 0001:000205a0       ??0PxMat33@physx@@QEAA@AEBVPxVec3@1@00@Z 00000001800215a0 f i ConvexMeshBuilder.obj
 0001:00020620       ??0PxSimpleTriangleMesh@physx@@QEAA@XZ 0000000180021620 f i ConvexMeshBuilder.obj
 0001:00020680       ??0PxStridedData@physx@@QEAA@XZ 0000000180021680 f i ConvexMeshBuilder.obj
 0001:000206b0       ??2UserAllocated@shdfnd@physx@@SAPEAX_KPEAX@Z 00000001800216b0 f i ConvexMeshBuilder.obj
 0001:000206d0       ??3UserAllocated@shdfnd@physx@@SAXPEAX@Z 00000001800216d0 f i ConvexMeshBuilder.obj
 0001:00020710       ??4PxMat33@physx@@QEAAAEAV01@AEBV01@@Z 0000000180021710 f i ConvexMeshBuilder.obj
 0001:00020790       ??APxMat33@physx@@QEAAAEAVPxVec3@1@I@Z 0000000180021790 f i ConvexMeshBuilder.obj
 0001:000207c0       ??B?$PxFlags@W4Enum@PxBaseFlag@physx@@G@physx@@QEBA_NXZ 00000001800217c0 f i ConvexMeshBuilder.obj
 0001:00020800       ??B?$PxFlags@W4Enum@PxConvexFlag@physx@@G@physx@@QEBA_NXZ 0000000180021800 f i ConvexMeshBuilder.obj
 0001:00020840       ??GPxMat33@physx@@QEBA?AV01@XZ 0000000180021840 f i ConvexMeshBuilder.obj
 0001:000208e0       ??I?$PxFlags@W4Enum@PxBaseFlag@physx@@G@physx@@QEBA?AV01@W4Enum@PxBaseFlag@1@@Z 00000001800218e0 f i ConvexMeshBuilder.obj
 0001:00020950       ??I?$PxFlags@W4Enum@PxConvexFlag@physx@@G@physx@@QEBA?AV01@W4Enum@PxConvexFlag@1@@Z 0000000180021950 f i ConvexMeshBuilder.obj
 0001:000209c0       ??RPxMat33@physx@@QEAAAEAMII@Z 00000001800219c0 f i ConvexMeshBuilder.obj
 0001:00020a00       ??XPxVec3@physx@@QEAAAEAV01@M@Z 0000000180021a00 f i ConvexMeshBuilder.obj
 0001:00020a74       ??_EConvexMeshBuilder@physx@@WBA@EAAPEAXI@Z 0000000180021a74 f i ConvexMeshBuilder.obj
 0001:00020a80       ??_GBigConvexData@physx@@QEAAPEAXI@Z 0000000180021a80 f i ConvexMeshBuilder.obj
 0001:00020ad0       ??_GConvexMeshBuilder@physx@@UEAAPEAXI@Z 0000000180021ad0 f i ConvexMeshBuilder.obj
 0001:00020ad0       ??_EConvexMeshBuilder@physx@@UEAAPEAXI@Z 0000000180021ad0 f i ConvexMeshBuilder.obj
 0001:00020b20       ?PxGetGaussMapVertexLimitForPlatform@physx@@YAIW4Enum@PxPlatform@1@@Z 0000000180021b20 f i ConvexMeshBuilder.obj
 0001:00020bf0       ?allocate@?$ReflectionAllocator@VBigConvexData@physx@@@shdfnd@physx@@QEAAPEAX_KPEBDH@Z 0000000180021bf0 f i ConvexMeshBuilder.obj
 0001:00020c90       ?getName@?$ReflectionAllocator@VBigConvexData@physx@@@shdfnd@physx@@CAPEBDXZ 0000000180021c90 f i ConvexMeshBuilder.obj
 0001:00020cf0       ?getOriginInertia@PxIntegrals@physx@@QEAAXAEAVPxMat33@2@@Z 0000000180021cf0 f i ConvexMeshBuilder.obj
 0001:00020da0       ?isReleasable@PxBase@physx@@UEBA_NXZ 0000000180021da0 f i ConvexMeshBuilder.obj
 0001:00020de0       ?isValid@PxConvexMeshDesc@physx@@QEBA_NXZ 0000000180021de0 f i ConvexMeshBuilder.obj
 0001:00021060       ?largestAxis@shdfnd@physx@@YAIAEBVPxVec3@2@@Z 0000000180022060 f i ConvexMeshBuilder.obj
 0001:000210f0       ?markSerializedMem@Cm@physx@@YAXPEAXI@Z 00000001800220f0 f i ConvexMeshBuilder.obj
 0001:00021140       ?requires@ConvexMesh@Gu@physx@@UEAAXAEAVPxProcessPxBaseCallback@3@@Z 0000000180022140 f i ConvexMeshBuilder.obj
 0001:00021150       ??0HullLibrary@physx@@QEAA@XZ 0000000180022150 f   hulllib.obj
 0001:000211f0       ??1HullLibrary@physx@@QEAA@XZ 00000001800221f0 f   hulllib.obj
 0001:00021240       ?CreateConvexHull@HullLibrary@physx@@QEAA?AW4HullError@2@AEBVHullDesc@2@AEAVHullResult@2@@Z 0000000180022240 f   hulllib.obj
 0001:00021bc0       ?ReleaseResult@HullLibrary@physx@@QEAA?AW4HullError@2@AEAVHullResult@2@@Z 0000000180022bc0 f   hulllib.obj
 0001:00021c70       ?CreateTriangleMesh@HullLibrary@physx@@QEAA?AW4HullError@2@AEAVHullResult@2@PEAVConvexHullTriangleInterface@2@@Z 0000000180022c70 f   hulllib.obj
 0001:00021e50       ?b2bfix@HullLibrary@physx@@AEAAXPEAVTri@2@0@Z 0000000180022e50 f   hulllib.obj
 0001:000220d0       ?removeb2b@HullLibrary@physx@@AEAAXPEAVTri@2@0@Z 00000001800230d0 f   hulllib.obj
 0001:00022130       ?checkit@HullLibrary@physx@@AEBAXPEAVTri@2@@Z 0000000180023130 f   hulllib.obj
 0001:00022320       ?extrude@HullLibrary@physx@@AEAAXPEAVTri@2@H@Z 0000000180023320 f   hulllib.obj
 0001:000229e0       ?extrudable@HullLibrary@physx@@AEBAPEAVTri@2@M@Z 00000001800239e0 f   hulllib.obj
 0001:00022ac0       ?calchullgen@HullLibrary@physx@@AEAA?AW4HullError@2@PEAVfloat3@2@HHM@Z 0000000180023ac0 f   hulllib.obj
 0001:00023f10       ?calchull@HullLibrary@physx@@AEAA?AW4HullError@2@PEAVfloat3@2@HAEAPEAHAEAHAEAPEAV42@2HM@Z 0000000180024f10 f   hulllib.obj
 0001:00024280       ?expandhull@HullLibrary@physx@@AEAA?AW4HullError@2@PEAVfloat3@2@HAEAPEAV42@AEAHM@Z 0000000180025280 f   hulllib.obj
 0001:00025040       ?calchullpbev@HullLibrary@physx@@AEAA?AW4HullError@2@PEAVfloat3@2@HHAEAV?$Array@VPlane@physx@@@hullLibArray@2@M@Z 0000000180026040 f   hulllib.obj
 0001:00025d40       ?ComputeHull@HullLibrary@physx@@AEAA?AW4HullError@2@IPEBMAEAVPHullResult@2@IMM@Z 0000000180026d40 f   hulllib.obj
 0001:000261f0       ?overhullv@HullLibrary@physx@@AEAA?AW4HullError@2@PEAVfloat3@2@HHAEAPEAV42@AEAHAEAPEAH2MMHM@Z 00000001800271f0 f   hulllib.obj
 0001:00027380       ??0ConvexH@physx@@QEAA@HHH@Z 0000000180028380 f   hulllib.obj
 0001:0002a930       ?neib@Tri@physx@@QEAAAEAHHH@Z 000000018002b930 f   hulllib.obj
 0001:000312d0       ??$?2V?$ReflectionAllocator@VConvexH@physx@@@shdfnd@physx@@@UserAllocated@shdfnd@physx@@SAPEAX_KV?$ReflectionAllocator@VConvexH@physx@@@12@PEBDH@Z 00000001800322d0 f i hulllib.obj
 0001:00031320       ??$?2V?$ReflectionAllocator@VTri@physx@@@shdfnd@physx@@@UserAllocated@shdfnd@physx@@SAPEAX_KV?$ReflectionAllocator@VTri@physx@@@12@PEBDH@Z 0000000180032320 f i hulllib.obj
 0001:00031370       ??$?_UM@@YAPEAX_KV?$ReflectionAllocator@M@shdfnd@physx@@PEBDH@Z 0000000180032370 f i hulllib.obj
 0001:000313c0       ??$Max@M@physx@@YAMAEBM0@Z 00000001800323c0 f i hulllib.obj
 0001:00031420       ??$Min@H@physx@@YAHAEBH0@Z 0000000180032420 f i hulllib.obj
 0001:00031470       ??$Min@M@physx@@YAMAEBM0@Z 0000000180032470 f i hulllib.obj
 0001:000314d0       ??$Swap@H@physx@@YAXAEAH0@Z 00000001800324d0 f i hulllib.obj
 0001:00031520       ??$maxdir@Vfloat3@physx@@@physx@@YAHPEBVfloat3@0@HAEBV10@@Z 0000000180032520 f i hulllib.obj
 0001:00031650       ??$maxdirfiltered@Vfloat3@physx@@@physx@@YAHPEBVfloat3@0@HAEBV10@PEA_N@Z 0000000180032650 f i hulllib.obj
 0001:00031810       ??$maxdirsterid@Vfloat3@physx@@@physx@@YAHPEBVfloat3@0@HAEBV10@AEAV?$Array@H@hullLibArray@0@@Z 0000000180032810 f i hulllib.obj
 0001:00031df0       ??0?$Array@H@hullLibArray@physx@@QEAA@H@Z 0000000180032df0 f i hulllib.obj
 0001:00031e60       ??0?$Array@PEAVTri@physx@@@hullLibArray@physx@@QEAA@H@Z 0000000180032e60 f i hulllib.obj
 0001:00031ed0       ??0?$Array@UExpandPlane@physx@@@hullLibArray@physx@@QEAA@H@Z 0000000180032ed0 f i hulllib.obj
 0001:00031f40       ??0?$Array@VHalfEdge@ConvexH@physx@@@hullLibArray@physx@@QEAA@H@Z 0000000180032f40 f i hulllib.obj
 0001:00031fb0       ??0?$Array@VPlane@physx@@@hullLibArray@physx@@QEAA@H@Z 0000000180032fb0 f i hulllib.obj
 0001:00032020       ??0?$Array@Vfloat3@physx@@@hullLibArray@physx@@QEAA@H@Z 0000000180033020 f i hulllib.obj
 0001:00032090       ??0?$Array@Vint3@physx@@@hullLibArray@physx@@QEAA@H@Z 0000000180033090 f i hulllib.obj
 0001:00032100       ??0?$ReflectionAllocator@M@shdfnd@physx@@QEAA@PEBD@Z 0000000180033100 f i hulllib.obj
 0001:00032120       ??0?$ReflectionAllocator@VConvexH@physx@@@shdfnd@physx@@QEAA@PEBD@Z 0000000180033120 f i hulllib.obj
 0001:00032140       ??0?$ReflectionAllocator@VTri@physx@@@shdfnd@physx@@QEAA@PEBD@Z 0000000180033140 f i hulllib.obj
 0001:00032160       ??0?$ScopedPointer@_NVTempAllocator@shdfnd@physx@@@shdfnd@physx@@QEAA@XZ 0000000180033160 f i hulllib.obj
 0001:00032190       ??0ExpandPlane@physx@@QEAA@XZ 0000000180033190 f i hulllib.obj
 0001:00032240       ??0HalfEdge@ConvexH@physx@@QEAA@FEE@Z 0000000180033240 f i hulllib.obj
 0001:000322a0       ??0HalfEdge@ConvexH@physx@@QEAA@XZ 00000001800332a0 f i hulllib.obj
 0001:000322b0       ??0PHullResult@physx@@QEAA@XZ 00000001800332b0 f i hulllib.obj
 0001:00032310       ??0Plane@physx@@QEAA@AEBVfloat3@1@M@Z 0000000180033310 f i hulllib.obj
 0001:00032360       ??0Plane@physx@@QEAA@XZ    0000000180033360 f i hulllib.obj
 0001:000323a0       ??0Tri@physx@@QEAA@HHHPEAV?$Array@PEAVTri@physx@@@hullLibArray@1@@Z 00000001800333a0 f i hulllib.obj
 0001:00032460       ??0float3@physx@@QEAA@MMM@Z 0000000180033460 f i hulllib.obj
 0001:000324c0       ??0float3@physx@@QEAA@XZ   00000001800334c0 f i hulllib.obj
 0001:00032500       ??0float3x3@physx@@QEAA@Vfloat3@1@00@Z 0000000180033500 f i hulllib.obj
 0001:00032570       ??0float3x3@physx@@QEAA@XZ 0000000180033570 f i hulllib.obj
 0001:000325d0       ??0int3@physx@@QEAA@HHH@Z  00000001800335d0 f i hulllib.obj
 0001:00032620       ??0int4@physx@@QEAA@HHHH@Z 0000000180033620 f i hulllib.obj
 0001:00032680       ??1?$Array@H@hullLibArray@physx@@QEAA@XZ 0000000180033680 f i hulllib.obj
 0001:00032700       ??1?$Array@PEAVTri@physx@@@hullLibArray@physx@@QEAA@XZ 0000000180033700 f i hulllib.obj
 0001:00032780       ??1?$Array@UExpandPlane@physx@@@hullLibArray@physx@@QEAA@XZ 0000000180033780 f i hulllib.obj
 0001:00032800       ??1?$Array@VHalfEdge@ConvexH@physx@@@hullLibArray@physx@@QEAA@XZ 0000000180033800 f i hulllib.obj
 0001:00032880       ??1?$Array@VPlane@physx@@@hullLibArray@physx@@QEAA@XZ 0000000180033880 f i hulllib.obj
 0001:00032900       ??1?$Array@Vfloat3@physx@@@hullLibArray@physx@@QEAA@XZ 0000000180033900 f i hulllib.obj
 0001:00032980       ??1?$Array@Vint3@physx@@@hullLibArray@physx@@QEAA@XZ 0000000180033980 f i hulllib.obj
 0001:00032a00       ??1?$ScopedPointer@_NVTempAllocator@shdfnd@physx@@@shdfnd@physx@@QEAA@XZ 0000000180033a00 f i hulllib.obj
 0001:00032a40       ??1ConvexH@physx@@QEAA@XZ  0000000180033a40 f i hulllib.obj
 0001:00032a90       ??1Tri@physx@@IEAA@XZ      0000000180033a90 f i hulllib.obj
 0001:00032aa0       ??8physx@@YAHAEBVPlane@0@0@Z 0000000180033aa0 f i hulllib.obj
 0001:00032b10       ??8physx@@YAHAEBVfloat3@0@0@Z 0000000180033b10 f i hulllib.obj
 0001:00032b90       ??9physx@@YAHAEBVfloat3@0@0@Z 0000000180033b90 f i hulllib.obj
 0001:00032c10       ??A?$Array@H@hullLibArray@physx@@QEAAAEAHH@Z 0000000180033c10 f i hulllib.obj
 0001:00032cb0       ??A?$Array@PEAVTri@physx@@@hullLibArray@physx@@QEAAAEAPEAVTri@2@H@Z 0000000180033cb0 f i hulllib.obj
 0001:00032d50       ??A?$Array@UExpandPlane@physx@@@hullLibArray@physx@@QEAAAEAUExpandPlane@2@H@Z 0000000180033d50 f i hulllib.obj
 0001:00032df0       ??A?$Array@VHalfEdge@ConvexH@physx@@@hullLibArray@physx@@QEAAAEAVHalfEdge@ConvexH@2@H@Z 0000000180033df0 f i hulllib.obj
 0001:00032e90       ??A?$Array@VPlane@physx@@@hullLibArray@physx@@QEAAAEAVPlane@2@H@Z 0000000180033e90 f i hulllib.obj
 0001:00032f30       ??A?$Array@Vfloat3@physx@@@hullLibArray@physx@@QEAAAEAVfloat3@2@H@Z 0000000180033f30 f i hulllib.obj
 0001:00032fd0       ??Afloat3@physx@@QEAAAEAMH@Z 0000000180033fd0 f i hulllib.obj
 0001:00033070       ??Afloat3@physx@@QEBAAEBMH@Z 0000000180034070 f i hulllib.obj
 0001:00033110       ??Afloat3x3@physx@@QEAAAEAVfloat3@1@H@Z 0000000180034110 f i hulllib.obj
 0001:000331b0       ??Afloat3x3@physx@@QEBAAEBVfloat3@1@H@Z 00000001800341b0 f i hulllib.obj
 0001:00033250       ??Aint3@physx@@QEAAAEAHH@Z 0000000180034250 f i hulllib.obj
 0001:00033270       ??Aint3@physx@@QEBAAEBHH@Z 0000000180034270 f i hulllib.obj
 0001:00033290       ??Aint4@physx@@QEAAAEAHH@Z 0000000180034290 f i hulllib.obj
 0001:000332b0       ??B?$ScopedPointer@_NVTempAllocator@shdfnd@physx@@@shdfnd@physx@@QEBAPEA_NXZ 00000001800342b0 f i hulllib.obj
 0001:000332d0       ??_G?$Array@PEAVTri@physx@@@hullLibArray@physx@@QEAAPEAXI@Z 00000001800342d0 f i hulllib.obj
 0001:00033320       ??_GConvexH@physx@@QEAAPEAXI@Z 0000000180034320 f i hulllib.obj
 0001:00033370       ??_GTri@physx@@IEAAPEAXI@Z 0000000180034370 f i hulllib.obj
 0001:000333c0       ?Add@?$Array@H@hullLibArray@physx@@QEAAAEAHH@Z 00000001800343c0 f i hulllib.obj
 0001:000334f0       ?Add@?$Array@PEAVTri@physx@@@hullLibArray@physx@@QEAAAEAPEAVTri@3@PEAV43@@Z 00000001800344f0 f i hulllib.obj
 0001:00033630       ?Add@?$Array@UExpandPlane@physx@@@hullLibArray@physx@@QEAAAEAUExpandPlane@3@U43@@Z 0000000180034630 f i hulllib.obj
 0001:00033780       ?Add@?$Array@VPlane@physx@@@hullLibArray@physx@@QEAAAEAVPlane@3@V43@@Z 0000000180034780 f i hulllib.obj
 0001:000338d0       ?Add@?$Array@Vfloat3@physx@@@hullLibArray@physx@@QEAAAEAVfloat3@3@V43@@Z 00000001800348d0 f i hulllib.obj
 0001:00033a20       ?Add@?$Array@Vint3@physx@@@hullLibArray@physx@@QEAAAEAVint3@3@V43@@Z 0000000180034a20 f i hulllib.obj
 0001:00033b70       ?HasHullFlag@HullDesc@physx@@QEBA_NW4HullFlag@2@@Z 0000000180034b70 f i hulllib.obj
 0001:00033bc0       ?PxMemSet@physx@@YAPEAXPEIAXHI@Z 0000000180034bc0 f i hulllib.obj
 0001:00033c00       ?SetSize@?$Array@PEAVTri@physx@@@hullLibArray@physx@@QEAAXH@Z 0000000180034c00 f i hulllib.obj
 0001:00033cb0       ?SetSize@?$Array@Vint3@physx@@@hullLibArray@physx@@QEAAXH@Z 0000000180034cb0 f i hulllib.obj
 0001:00033d60       ?allocate@?$Array@H@hullLibArray@physx@@QEAAXH@Z 0000000180034d60 f i hulllib.obj
 0001:00033fe0       ?allocate@?$Array@PEAVTri@physx@@@hullLibArray@physx@@QEAAXH@Z 0000000180034fe0 f i hulllib.obj
 0001:00034260       ?allocate@?$Array@UExpandPlane@physx@@@hullLibArray@physx@@QEAAXH@Z 0000000180035260 f i hulllib.obj
 0001:00034520       ?allocate@?$Array@VHalfEdge@ConvexH@physx@@@hullLibArray@physx@@QEAAXH@Z 0000000180035520 f i hulllib.obj
 0001:000347a0       ?allocate@?$Array@VPlane@physx@@@hullLibArray@physx@@QEAAXH@Z 00000001800357a0 f i hulllib.obj
 0001:00034a60       ?allocate@?$Array@Vfloat3@physx@@@hullLibArray@physx@@QEAAXH@Z 0000000180035a60 f i hulllib.obj
 0001:00034d20       ?allocate@?$Array@Vint3@physx@@@hullLibArray@physx@@QEAAXH@Z 0000000180035d20 f i hulllib.obj
 0001:00034fe0       ?allocate@?$ReflectionAllocator@M@shdfnd@physx@@QEAAPEAX_KPEBDH@Z 0000000180035fe0 f i hulllib.obj
 0001:00035080       ?allocate@?$ReflectionAllocator@VConvexH@physx@@@shdfnd@physx@@QEAAPEAX_KPEBDH@Z 0000000180036080 f i hulllib.obj
 0001:00035120       ?allocate@?$ReflectionAllocator@VTri@physx@@@shdfnd@physx@@QEAAPEAX_KPEBDH@Z 0000000180036120 f i hulllib.obj
 0001:000351c0       ?cos@@YAMM@Z               00000001800361c0 f i hulllib.obj
 0001:000351e0       ?distance@Plane@physx@@QEBAMAEBVfloat3@2@@Z 00000001800361e0 f i hulllib.obj
 0001:00035250       ?getName@?$ReflectionAllocator@M@shdfnd@physx@@CAPEBDXZ 0000000180036250 f i hulllib.obj
 0001:000352b0       ?getName@?$ReflectionAllocator@VConvexH@physx@@@shdfnd@physx@@CAPEBDXZ 00000001800362b0 f i hulllib.obj
 0001:00035310       ?getName@?$ReflectionAllocator@VTri@physx@@@shdfnd@physx@@CAPEBDXZ 0000000180036310 f i hulllib.obj
 0001:00035370       ?memSet@intrinsics@physx@@YAPEAXPEIAXHI@Z 0000000180036370 f i hulllib.obj
 0001:000353c0       ?to8@shdfnd@physx@@YAEG@Z  00000001800363c0 f i hulllib.obj
 0001:000354c0       ?computeVolumeIntegrals@physx@@YA_NAEBVPxSimpleTriangleMesh@1@MAEAUPxIntegrals@1@@Z 00000001800364c0 f   VolumeIntegration.obj
 0001:00035550       ?computeVolumeIntegralsEberly@physx@@YA_NAEBVPxSimpleTriangleMesh@1@MAEAUPxIntegrals@1@AEBVPxVec3@1@@Z 0000000180036550 f   VolumeIntegration.obj
 0001:000355c0       ??0VolumeIntegrator@?A0x1f919d06@physx@@QEAA@VPxSimpleTriangleMesh@2@N@Z 00000001800365c0 f   VolumeIntegration.obj
 0001:00035630       ??1VolumeIntegrator@?A0x1f919d06@physx@@QEAA@XZ 0000000180036630 f   VolumeIntegration.obj
 0001:00035640       ?computeVolumeIntegrals@VolumeIntegrator@?A0x1f919d06@physx@@QEAA_NAEAUPxIntegrals@3@@Z 0000000180036640 f   VolumeIntegration.obj
 0001:000360f0       ?computeCenterOfMass@VolumeIntegrator@?A0x1f919d06@physx@@AEAA?AVPxVec3@3@XZ 00000001800370f0 f   VolumeIntegration.obj
 0001:000361d0       ?computeInertiaTensor@VolumeIntegrator@?A0x1f919d06@physx@@AEAAXPEAN@Z 00000001800371d0 f   VolumeIntegration.obj
 0001:000364a0       ?computeCOMInertiaTensor@VolumeIntegrator@?A0x1f919d06@physx@@AEAAXPEAN@Z 00000001800374a0 f   VolumeIntegration.obj
 0001:000367f0       ?computeFaceNormal@VolumeIntegrator@?A0x1f919d06@physx@@AEAAXAEAUFace@123@PEAI@Z 00000001800377f0 f   VolumeIntegration.obj
 0001:000369a0       ?computeProjectionIntegrals@VolumeIntegrator@?A0x1f919d06@physx@@AEAAXAEBUFace@123@@Z 00000001800379a0 f   VolumeIntegration.obj
 0001:000372c0       ?computeFaceIntegrals@VolumeIntegrator@?A0x1f919d06@physx@@AEAAXAEBUFace@123@@Z 00000001800382c0 f   VolumeIntegration.obj
 0001:00037a10       ??0VolumeIntegratorEberly@?A0x1f919d06@physx@@QEAA@AEBVPxSimpleTriangleMesh@2@N@Z 0000000180038a10 f   VolumeIntegration.obj
 0001:00037a60       ??1VolumeIntegratorEberly@?A0x1f919d06@physx@@QEAA@XZ 0000000180038a60 f   VolumeIntegration.obj
 0001:00037a70       ?computeVolumeIntegrals@VolumeIntegratorEberly@?A0x1f919d06@physx@@QEAA_NAEAUPxIntegrals@3@AEBVPxVec3@3@@Z 0000000180038a70 f   VolumeIntegration.obj
 0001:000390c0       ?subexpressions@VolumeIntegratorEberly@?A0x1f919d06@physx@@AEAAXNNNAEAN00000@Z 000000018003a0c0 f   VolumeIntegration.obj
 0001:0003a1b0       ??4?$PxFlags@W4Enum@PxMeshFlag@physx@@G@physx@@QEAAAEAV01@AEBV01@@Z 000000018003b1b0 f i VolumeIntegration.obj
 0001:0003a1e0       ??4PxSimpleTriangleMesh@physx@@QEAAAEAV01@AEBV01@@Z 000000018003b1e0 f i VolumeIntegration.obj
 0001:0003a260       ?isZero@PxVec3@physx@@QEBA_NXZ 000000018003b260 f i VolumeIntegration.obj
 0001:0003a2c0       ?ComputeNbBoundaryEdges@AdjTriangle@physx@@QEBAIXZ 000000018003b2c0 f   Adjacencies.obj
 0001:0003a350       ?ComputeNbNeighbors@AdjTriangle@physx@@QEBAIXZ 000000018003b350 f   Adjacencies.obj
 0001:0003a3e0       ?HasNeighbor@AdjTriangle@physx@@QEBA_NIPEAI@Z 000000018003b3e0 f   Adjacencies.obj
 0001:0003a4f0       ?Flip@AdjTriangle@physx@@QEAAXXZ 000000018003b4f0 f   Adjacencies.obj
 0001:0003a540       ??0Adjacencies@physx@@QEAA@XZ 000000018003b540 f   Adjacencies.obj
 0001:0003a570       ??1Adjacencies@physx@@QEAA@XZ 000000018003b570 f   Adjacencies.obj
 0001:0003a5d0       ?Load@Adjacencies@physx@@QEAA_NAEAVPxInputStream@2@@Z 000000018003b5d0 f   Adjacencies.obj
 0001:0003a760       ?Walk@Adjacencies@physx@@QEAA_NP6AXAEBUCommonWalkParams@2@IIII@ZPEAX@Z 000000018003b760 f   Adjacencies.obj
 0001:0003a900       ?Walk2@Adjacencies@physx@@QEAA_NP6AXAEBUCommonWalkParams@2@IIII@ZPEAXPEBVPxVec3@2@PEBU?$TriangleT@I@Gu@2@@Z 000000018003b900 f   Adjacencies.obj
 0001:0003ab00       ?ComputeNbBoundaryEdges@Adjacencies@physx@@QEBAIXZ 000000018003bb00 f   Adjacencies.obj
 0001:0003ab80       ?GetBoundaryVertices@Adjacencies@physx@@QEBA_NIPEA_NPEBU?$TriangleT@I@Gu@2@@Z 000000018003bb80 f   Adjacencies.obj
 0001:0003ae90       ?MakeLastRef@Adjacencies@physx@@QEAA_NAEAVAdjTriangle@2@IPEAU?$TriangleT@I@Gu@2@@Z 000000018003be90 f   Adjacencies.obj
 0001:0003b1f0       ?AssignNewEdgeCode@Adjacencies@physx@@AEAAXIE@Z 000000018003c1f0 f   Adjacencies.obj
 0001:0003b290       ??0AdjacenciesBuilder@physx@@QEAA@XZ 000000018003c290 f   Adjacencies.obj
 0001:0003b2c0       ??1AdjacenciesBuilder@physx@@QEAA@XZ 000000018003c2c0 f   Adjacencies.obj
 0001:0003b2e0       ?Init@AdjacenciesBuilder@physx@@QEAA_NAEBUADJACENCIESCREATE@2@@Z 000000018003c2e0 f   Adjacencies.obj
 0001:0003d740       ??$?_UV?$ReflectionAllocator@VAdjEdge@@@shdfnd@physx@@@UserAllocated@shdfnd@physx@@SAPEAX_KV?$ReflectionAllocator@VAdjEdge@@@12@PEBDH@Z 000000018003e740 f i Adjacencies.obj
 0001:0003d790       ??$?_UV?$ReflectionAllocator@VAdjTriangle@physx@@@shdfnd@physx@@@UserAllocated@shdfnd@physx@@SAPEAX_KV?$ReflectionAllocator@VAdjTriangle@physx@@@12@PEBDH@Z 000000018003e790 f i Adjacencies.obj
 0001:0003d7e0       ??$swap@M@shdfnd@physx@@YAXAEAM0@Z 000000018003e7e0 f i Adjacencies.obj
 0001:0003d840       ??0?$ReflectionAllocator@VAdjEdge@@@shdfnd@physx@@QEAA@PEBD@Z 000000018003e840 f i Adjacencies.obj
 0001:0003d860       ??0?$ReflectionAllocator@VAdjTriangle@physx@@@shdfnd@physx@@QEAA@PEBD@Z 000000018003e860 f i Adjacencies.obj
 0001:0003d880       ??0?$TriangleT@I@Gu@physx@@QEAA@XZ 000000018003e880 f i Adjacencies.obj
 0001:0003d890       ??0AdjEdge@@QEAA@XZ        000000018003e890 f i Adjacencies.obj
 0001:0003d8a0       ??0AdjTriangle@physx@@QEAA@XZ 000000018003e8a0 f i Adjacencies.obj
 0001:0003d8b0       ??0PrivateWalkParams@?1??Walk2@Adjacencies@physx@@QEAA_NP6AXAEBUCommonWalkParams@3@IIII@ZPEAXPEBVPxVec3@3@PEBU?$TriangleT@I@Gu@3@@Z@QEAA@XZ 000000018003e8b0 f i Adjacencies.obj
 0001:0003d8e0       ??1AdjEdge@@QEAA@XZ        000000018003e8e0 f i Adjacencies.obj
 0001:0003d8f0       ??1AdjTriangle@physx@@QEAA@XZ 000000018003e8f0 f i Adjacencies.obj
 0001:0003d900       ??_EAdjEdge@@QEAAPEAXI@Z   000000018003e900 f i Adjacencies.obj
 0001:0003d9b0       ??_EAdjTriangle@physx@@QEAAPEAXI@Z 000000018003e9b0 f i Adjacencies.obj
 0001:0003da60       ??_I@YAXPEAX_KHP6AX0@Z@Z   000000018003ea60 f i Adjacencies.obj
 0001:0003daf0       ??_VUserAllocated@shdfnd@physx@@SAXPEAX@Z 000000018003eaf0 f i Adjacencies.obj
 0001:0003db30       ?GetEdgeTriangle@EdgeList@Gu@physx@@QEBAAEBUEdgeTriangleData@23@I@Z 000000018003eb30 f i Adjacencies.obj
 0001:0003db60       ?HasActiveEdge01@EdgeTriangleAC@Gu@physx@@SAHAEBUEdgeTriangleData@23@@Z 000000018003eb60 f i Adjacencies.obj
 0001:0003db90       ?HasActiveEdge12@EdgeTriangleAC@Gu@physx@@SAHAEBUEdgeTriangleData@23@@Z 000000018003eb90 f i Adjacencies.obj
 0001:0003dbc0       ?HasActiveEdge20@EdgeTriangleAC@Gu@physx@@SAHAEBUEdgeTriangleData@23@@Z 000000018003ebc0 f i Adjacencies.obj
 0001:0003dbf0       ?allocate@?$ReflectionAllocator@VAdjEdge@@@shdfnd@physx@@QEAAPEAX_KPEBDH@Z 000000018003ebf0 f i Adjacencies.obj
 0001:0003dc90       ?allocate@?$ReflectionAllocator@VAdjTriangle@physx@@@shdfnd@physx@@QEAAPEAX_KPEBDH@Z 000000018003ec90 f i Adjacencies.obj
 0001:0003dd30       ?findEdge@?$TriangleT@I@Gu@physx@@QEBAEII@Z 000000018003ed30 f i Adjacencies.obj
 0001:0003dee0       ?getName@?$ReflectionAllocator@VAdjEdge@@@shdfnd@physx@@CAPEBDXZ 000000018003eee0 f i Adjacencies.obj
 0001:0003df40       ?getName@?$ReflectionAllocator@VAdjTriangle@physx@@@shdfnd@physx@@CAPEBDXZ 000000018003ef40 f i Adjacencies.obj
 0001:0003dfa0       PxCreateCooking            000000018003efa0 f   Cooking.obj
 0001:0003e090       ?release@Cooking@physx@@UEAAXXZ 000000018003f090 f   Cooking.obj
 0001:0003e0f0       ?setParams@Cooking@physx@@UEAAXAEBUPxCookingParams@2@@Z 000000018003f0f0 f   Cooking.obj
 0001:0003e120       ?getParams@Cooking@physx@@UEAAAEBUPxCookingParams@2@XZ 000000018003f120 f   Cooking.obj
 0001:0003e140       ?platformMismatch@Cooking@physx@@UEAA_NXZ 000000018003f140 f   Cooking.obj
 0001:0003e2c0       ?cookTriangleMesh@Cooking@physx@@UEAA_NAEBVPxTriangleMeshDesc@2@AEAVPxOutputStream@2@@Z 000000018003f2c0 f   Cooking.obj
 0001:0003e4d0       ?createTriangleMesh@Cooking@physx@@UEAAPEAVPxTriangleMesh@2@AEBVPxTriangleMeshDesc@2@AEAVPxPhysicsInsertionCallback@2@@Z 000000018003f4d0 f   Cooking.obj
 0001:0003e730       ?validateTriangleMesh@Cooking@physx@@UEAA_NAEBVPxTriangleMeshDesc@2@@Z 000000018003f730 f   Cooking.obj
 0001:0003e7f0       ?cookConvexMesh@Cooking@physx@@UEAA_NAEBVPxConvexMeshDesc@2@AEAVPxOutputStream@2@PEAW4Enum@PxConvexMeshCookingResult@2@@Z 000000018003f7f0 f   Cooking.obj
 0001:0003ee20       ?computeHullPolygons@Cooking@physx@@UEAA_NAEBVPxSimpleTriangleMesh@2@AEAVPxAllocatorCallback@2@AEAIAEAPEAVPxVec3@2@2AEAPEAI2AEAPEAUPxHullPolygon@2@@Z 000000018003fe20 f   Cooking.obj
 0001:0003f0f0       ?cookHeightField@Cooking@physx@@UEAA_NAEBVPxHeightFieldDesc@2@AEAVPxOutputStream@2@@Z 00000001800400f0 f   Cooking.obj
 0001:0003f3b0       ?createHeightField@Cooking@physx@@UEAAPEAVPxHeightField@2@AEBVPxHeightFieldDesc@2@AEAVPxPhysicsInsertionCallback@2@@Z 00000001800403b0 f   Cooking.obj
 0001:0003f660       ?loadTriangleMeshDesc@Cooking@physx@@AEAA_NAEBVPxTriangleMeshDesc@2@AEAVTriangleMeshBuilder@2@@Z 0000000180040660 f   Cooking.obj
 0001:0003fd60       ??$?2V?$ReflectionAllocator@VCooking@physx@@@shdfnd@physx@@@UserAllocated@shdfnd@physx@@SAPEAX_KV?$ReflectionAllocator@VCooking@physx@@@12@PEBDH@Z 0000000180040d60 f i Cooking.obj
 0001:0003fdb0       ??$PX_UNUSED@VPxFoundation@physx@@@@YAXAEBVPxFoundation@physx@@@Z 0000000180040db0 f i Cooking.obj
 0001:0003fdc0       ??0?$PxFlags@W4Enum@PxConvexFlag@physx@@G@physx@@QEAA@W4Enum@PxConvexFlag@1@@Z 0000000180040dc0 f i Cooking.obj
 0001:0003fdf0       ??0?$PxFlags@W4Enum@PxConvexFlag@physx@@G@physx@@QEAA@XZ 0000000180040df0 f i Cooking.obj
 0001:0003fe10       ??0?$PxFlags@W4Enum@PxHeightFieldFlag@physx@@G@physx@@QEAA@AEBV01@@Z 0000000180040e10 f i Cooking.obj
 0001:0003fe40       ??0?$ReflectionAllocator@VCooking@physx@@@shdfnd@physx@@QEAA@PEBD@Z 0000000180040e40 f i Cooking.obj
 0001:0003fe60       ??0?$ReflectionAllocator@VHeightField@Gu@physx@@@shdfnd@physx@@QEAA@PEBD@Z 0000000180040e60 f i Cooking.obj
 0001:0003fe80       ??0?$ReflectionAllocator@VTriangleMeshBuilder@physx@@@shdfnd@physx@@QEAA@PEBD@Z 0000000180040e80 f i Cooking.obj
 0001:0003fea0       ??0Cooking@physx@@QEAA@AEBUPxCookingParams@1@@Z 0000000180040ea0 f i Cooking.obj
 0001:0003ff00       ??0HullDesc@physx@@QEAA@XZ 0000000180040f00 f i Cooking.obj
 0001:0003ff90       ??0HullResult@physx@@QEAA@XZ 0000000180040f90 f i Cooking.obj
 0001:00040000       ??0PxConvexMeshDesc@physx@@QEAA@AEBV01@@Z 0000000180041000 f i Cooking.obj
 0001:000400d0       ??0PxCooking@physx@@QEAA@XZ 00000001800410d0 f i Cooking.obj
 0001:000400f0       ??0PxCookingParams@physx@@QEAA@AEBU01@@Z 00000001800410f0 f i Cooking.obj
 0001:00040210       ??0TriangleMeshBuilder@physx@@QEAA@XZ 0000000180041210 f i Cooking.obj
 0001:00040260       ??1Cooking@physx@@UEAA@XZ  0000000180041260 f i Cooking.obj
 0001:00040280       ??1PxCooking@physx@@MEAA@XZ 0000000180041280 f i Cooking.obj
 0001:000402a0       ??1TriangleMeshBuilder@physx@@UEAA@XZ 00000001800412a0 f i Cooking.obj
 0001:000402c0       ??4?$PxFlags@W4Enum@PxMeshPreprocessingFlag@physx@@I@physx@@QEAAAEAV01@AEBV01@@Z 00000001800412c0 f i Cooking.obj
 0001:000402f0       ??4PxCookingParams@physx@@QEAAAEAU01@AEBU01@@Z 00000001800412f0 f i Cooking.obj
 0001:00040410       ??9?$PxFlags@W4Enum@PxHeightFieldFlag@physx@@G@physx@@QEBA_NAEBV01@@Z 0000000180041410 f i Cooking.obj
 0001:00040460       ??I?$PxFlags@W4Enum@PxHeightFieldFlag@physx@@G@physx@@QEBA?AV01@W4Enum@PxHeightFieldFlag@1@@Z 0000000180041460 f i Cooking.obj
 0001:000404d0       ??S?$PxFlags@W4Enum@PxConvexFlag@physx@@G@physx@@QEBA?AV01@XZ 00000001800414d0 f i Cooking.obj
 0001:00040520       ??Sphysx@@YA?AV?$PxFlags@W4Enum@PxConvexFlag@physx@@G@0@W4Enum@PxConvexFlag@0@@Z 0000000180041520 f i Cooking.obj
 0001:00040560       ??_4?$PxFlags@W4Enum@PxConvexFlag@physx@@G@physx@@QEAAAEAV01@AEBV01@@Z 0000000180041560 f i Cooking.obj
 0001:00040598       ??_ETriangleMeshBuilder@physx@@WBA@EAAPEAXI@Z 0000000180041598 f i Cooking.obj
 0001:000405b0       ??_GCooking@physx@@UEAAPEAXI@Z 00000001800415b0 f i Cooking.obj
 0001:000405b0       ??_ECooking@physx@@UEAAPEAXI@Z 00000001800415b0 f i Cooking.obj
 0001:00040600       ??_EPxCooking@physx@@MEAAPEAXI@Z 0000000180041600 f i Cooking.obj
 0001:00040600       ??_GPxCooking@physx@@MEAAPEAXI@Z 0000000180041600 f i Cooking.obj
 0001:00040650       ??_GTriangleMeshBuilder@physx@@UEAAPEAXI@Z 0000000180041650 f i Cooking.obj
 0001:00040650       ??_ETriangleMeshBuilder@physx@@UEAAPEAXI@Z 0000000180041650 f i Cooking.obj
 0001:000406a0       ?allocate@?$ReflectionAllocator@VCooking@physx@@@shdfnd@physx@@QEAAPEAX_KPEBDH@Z 00000001800416a0 f i Cooking.obj
 0001:00040740       ?allocate@?$ReflectionAllocator@VHeightField@Gu@physx@@@shdfnd@physx@@QEAAPEAX_KPEBDH@Z 0000000180041740 f i Cooking.obj
 0001:000407e0       ?allocate@?$ReflectionAllocator@VTriangleMeshBuilder@physx@@@shdfnd@physx@@QEAAPEAX_KPEBDH@Z 00000001800417e0 f i Cooking.obj
 0001:00040880       ?getName@?$ReflectionAllocator@VCooking@physx@@@shdfnd@physx@@CAPEBDXZ 0000000180041880 f i Cooking.obj
 0001:000408e0       ?getName@?$ReflectionAllocator@VHeightField@Gu@physx@@@shdfnd@physx@@CAPEBDXZ 00000001800418e0 f i Cooking.obj
 0001:00040940       ?getName@?$ReflectionAllocator@VTriangleMeshBuilder@physx@@@shdfnd@physx@@CAPEBDXZ 0000000180041940 f i Cooking.obj
 0001:000409a0       ?isValid@PxHeightFieldDesc@physx@@QEBA_NXZ 00000001800419a0 f i Cooking.obj
 0001:00040ac0       ?littleEndian@shdfnd@physx@@YADXZ 0000000180041ac0 f i Cooking.obj
 0001:00040ae0       ?requires@TriangleMesh@Gu@physx@@UEAAXAEAVPxProcessPxBaseCallback@3@@Z 0000000180041ae0 f i Cooking.obj
 0001:00040af0       ??0ReducedVertexCloud@physx@@QEAA@PEBVPxVec3@1@I@Z 0000000180041af0 f   CookingUtils.obj
 0001:00040b50       ??1ReducedVertexCloud@physx@@QEAA@XZ 0000000180041b50 f   CookingUtils.obj
 0001:00040b70       ?Clean@ReducedVertexCloud@physx@@QEAAAEAV12@XZ 0000000180041b70 f   CookingUtils.obj
 0001:00040bf0       ?Reduce@ReducedVertexCloud@physx@@QEAA_NPEAUREDUCEDCLOUD@2@@Z 0000000180041bf0 f   CookingUtils.obj
 0001:00041250       ??0EdgeList@Gu@physx@@QEAA@XZ 0000000180042250 f   EdgeList.obj
 0001:000412a0       ??1EdgeList@Gu@physx@@QEAA@XZ 00000001800422a0 f   EdgeList.obj
 0001:00041370       ?Load@EdgeList@Gu@physx@@QEAA_NAEAVPxInputStream@3@@Z 0000000180042370 f   EdgeList.obj
 0001:000416b0       ??0EdgeListBuilder@Gu@physx@@QEAA@XZ 00000001800426b0 f   EdgeList.obj
 0001:000416e0       ??1EdgeListBuilder@Gu@physx@@QEAA@XZ 00000001800426e0 f   EdgeList.obj
 0001:00041700       ?Init@EdgeListBuilder@Gu@physx@@QEAA_NAEBUEDGELISTCREATE@23@@Z 0000000180042700 f   EdgeList.obj
 0001:000418e0       ?CreateFacesToEdges@EdgeListBuilder@Gu@physx@@AEAA_NIPEBIPEBG@Z 00000001800428e0 f   EdgeList.obj
 0001:000420c0       ?CreateEdgesToFaces@EdgeListBuilder@Gu@physx@@AEAA_NIPEBIPEBG@Z 00000001800430c0 f   EdgeList.obj
 0001:00042660       ?ComputeActiveEdges@EdgeListBuilder@Gu@physx@@AEAA_NIPEBIPEBGPEBVPxVec3@3@M@Z 0000000180043660 f   EdgeList.obj
 0001:00044ca0       ??$?_UUEdgeData@Gu@physx@@@@YAPEAX_KV?$ReflectionAllocator@UEdgeData@Gu@physx@@@shdfnd@physx@@PEBDH@Z 0000000180045ca0 f i EdgeList.obj
 0001:00044cf0       ??$?_UUEdgeTriangleData@Gu@physx@@@@YAPEAX_KV?$ReflectionAllocator@UEdgeTriangleData@Gu@physx@@@shdfnd@physx@@PEBDH@Z 0000000180045cf0 f i EdgeList.obj
 0001:00044d40       ??0?$ReflectionAllocator@UEdgeData@Gu@physx@@@shdfnd@physx@@QEAA@PEBD@Z 0000000180045d40 f i EdgeList.obj
 0001:00044d60       ??0?$ReflectionAllocator@UEdgeTriangleData@Gu@physx@@@shdfnd@physx@@QEAA@PEBD@Z 0000000180045d60 f i EdgeList.obj
 0001:00044d80       ??0PxTriangle@physx@@QEAA@AEBVPxVec3@1@00@Z 0000000180045d80 f i EdgeList.obj
 0001:00044e50       ??1PxTriangle@physx@@QEAA@XZ 0000000180045e50 f i EdgeList.obj
 0001:00044e60       ?GetEdgeToTriangles@EdgeList@Gu@physx@@QEBAPEBUEdgeDescData@23@XZ 0000000180045e60 f i EdgeList.obj
 0001:00044e80       ?GetEdges@EdgeList@Gu@physx@@QEBAPEBUEdgeData@23@XZ 0000000180045e80 f i EdgeList.obj
 0001:00044ea0       ?GetFacesByEdges@EdgeList@Gu@physx@@QEBAPEBIXZ 0000000180045ea0 f i EdgeList.obj
 0001:00044ec0       ?OppositeVertex@@YAIIIIII@Z 0000000180045ec0 f i EdgeList.obj
 0001:00044f90       ?PxAtan2@physx@@YAMMM@Z    0000000180045f90 f i EdgeList.obj
 0001:00044fc0       ?allocate@?$ReflectionAllocator@UEdgeData@Gu@physx@@@shdfnd@physx@@QEAAPEAX_KPEBDH@Z 0000000180045fc0 f i EdgeList.obj
 0001:00045060       ?allocate@?$ReflectionAllocator@UEdgeTriangleData@Gu@physx@@@shdfnd@physx@@QEAAPEAX_KPEBDH@Z 0000000180046060 f i EdgeList.obj
 0001:00045100       ?angle@shdfnd@physx@@YAMAEBVPxVec3@2@0@Z 0000000180046100 f i EdgeList.obj
 0001:00045180       ?getName@?$ReflectionAllocator@UEdgeData@Gu@physx@@@shdfnd@physx@@CAPEBDXZ 0000000180046180 f i EdgeList.obj
 0001:000451e0       ?getName@?$ReflectionAllocator@UEdgeTriangleData@Gu@physx@@@shdfnd@physx@@CAPEBDXZ 00000001800461e0 f i EdgeList.obj
 0001:00045240       ?normal@PxTriangle@physx@@QEBAXAEAVPxVec3@2@@Z 0000000180046240 f i EdgeList.obj
 0001:00045330       ??0InternalTriangleMeshBuilder@physx@@QEAA@PEAVInternalTriangleMesh@1@AEBUPxCookingParams@1@@Z 0000000180046330 f   InternalTriangleMeshBuilder.obj
 0001:00045380       ??1InternalTriangleMeshBuilder@physx@@QEAA@XZ 0000000180046380 f   InternalTriangleMeshBuilder.obj
 0001:000453a0       ?cleanMesh@InternalTriangleMeshBuilder@physx@@QEAA_N_N@Z 00000001800463a0 f   InternalTriangleMeshBuilder.obj
 0001:00045bc0       ?fillRemapTable@InternalTriangleMeshBuilder@physx@@QEAAXXZ 0000000180046bc0 f   InternalTriangleMeshBuilder.obj
 0001:00045cd0       ?remapTopology@InternalTriangleMeshBuilder@physx@@QEAAXPEBI@Z 0000000180046cd0 f   InternalTriangleMeshBuilder.obj
 0001:00046110       ?createRTree@InternalTriangleMeshBuilder@physx@@QEAA_NXZ 0000000180047110 f   InternalTriangleMeshBuilder.obj
 0001:00046310       ?createSharedEdgeData@InternalTriangleMeshBuilder@physx@@QEAAX_N0@Z 0000000180047310 f   InternalTriangleMeshBuilder.obj
 0001:00046cb0       ?releaseEdgeList@InternalTriangleMeshBuilder@physx@@AEAAXXZ 0000000180047cb0 f   InternalTriangleMeshBuilder.obj
 0001:00046d10       ?createEdgeList@InternalTriangleMeshBuilder@physx@@AEAAXXZ 0000000180047d10 f   InternalTriangleMeshBuilder.obj
 0001:00047570       ??$?2V?$ReflectionAllocator@VEdgeListBuilder@Gu@physx@@@shdfnd@physx@@@UserAllocated@shdfnd@physx@@SAPEAX_KV?$ReflectionAllocator@VEdgeListBuilder@Gu@physx@@@12@PEBDH@Z 0000000180048570 f i InternalTriangleMeshBuilder.obj
 0001:000475c0       ??$PX_UNUSED@U?$TriangleT@I@Gu@physx@@@@YAXAEBU?$TriangleT@I@Gu@physx@@@Z 00000001800485c0 f i InternalTriangleMeshBuilder.obj
 0001:000475d0       ??0?$Array@IVNamedAllocator@shdfnd@physx@@@shdfnd@physx@@QEAA@AEBVNamedAllocator@12@@Z 00000001800485d0 f i InternalTriangleMeshBuilder.obj
 0001:00047630       ??0?$ReflectionAllocator@VEdgeListBuilder@Gu@physx@@@shdfnd@physx@@QEAA@PEBD@Z 0000000180048630 f i InternalTriangleMeshBuilder.obj
 0001:00047650       ??0RTreeCookerRemap@@QEAA@I@Z 0000000180048650 f i InternalTriangleMeshBuilder.obj
 0001:000476a0       ??0RemapCallback@RTreeCooker@physx@@QEAA@XZ 00000001800486a0 f i InternalTriangleMeshBuilder.obj
 0001:000476c0       ??1RTreeCookerRemap@@UEAA@XZ 00000001800486c0 f i InternalTriangleMeshBuilder.obj
 0001:000476e0       ??1RemapCallback@RTreeCooker@physx@@UEAA@XZ 00000001800486e0 f i InternalTriangleMeshBuilder.obj
 0001:00047700       ??_GEdgeListBuilder@Gu@physx@@QEAAPEAXI@Z 0000000180048700 f i InternalTriangleMeshBuilder.obj
 0001:00047750       ??_GRTreeCookerRemap@@UEAAPEAXI@Z 0000000180048750 f i InternalTriangleMeshBuilder.obj
 0001:00047750       ??_ERTreeCookerRemap@@UEAAPEAXI@Z 0000000180048750 f i InternalTriangleMeshBuilder.obj
 0001:000477a0       ??_GRemapCallback@RTreeCooker@physx@@UEAAPEAXI@Z 00000001800487a0 f i InternalTriangleMeshBuilder.obj
 0001:000477a0       ??_ERemapCallback@RTreeCooker@physx@@UEAAPEAXI@Z 00000001800487a0 f i InternalTriangleMeshBuilder.obj
 0001:000477f0       ?GetNbFaces@EdgeList@Gu@physx@@QEBAIXZ 00000001800487f0 f i InternalTriangleMeshBuilder.obj
 0001:00047810       ?LeafSetData@Gu@physx@@YAIII@Z 0000000180048810 f i InternalTriangleMeshBuilder.obj
 0001:00047920       ?SetData@LeafTriangles@Gu@physx@@QEAAXII@Z 0000000180048920 f i InternalTriangleMeshBuilder.obj
 0001:00047960       ?allocate@?$ReflectionAllocator@VEdgeListBuilder@Gu@physx@@@shdfnd@physx@@QEAAPEAX_KPEBDH@Z 0000000180048960 f i InternalTriangleMeshBuilder.obj
 0001:00047a00       ?findEdgeCCW@?$TriangleT@I@Gu@physx@@QEBAEII@Z 0000000180048a00 f i InternalTriangleMeshBuilder.obj
 0001:00047bb0       ?getName@?$ReflectionAllocator@VEdgeListBuilder@Gu@physx@@@shdfnd@physx@@CAPEBDXZ 0000000180048bb0 f i InternalTriangleMeshBuilder.obj
 0001:00047c10       ?remap@RTreeCookerRemap@@UEAAXPEAIII@Z 0000000180048c10 f i InternalTriangleMeshBuilder.obj
 0001:00047e80       ??0MeshCleaner@physx@@QEAA@IPEBVPxVec3@1@IPEBIM@Z 0000000180048e80 f   MeshCleaner.obj
 0001:00048b70       ??1MeshCleaner@physx@@QEAA@XZ 0000000180049b70 f   MeshCleaner.obj
 0001:00049280       ??9Indices@@QEBA_NAEBU0@@Z 000000018004a280 f i MeshCleaner.obj
 0001:00049340       ??9PxVec3@physx@@QEBA_NAEBV01@@Z 000000018004a340 f i MeshCleaner.obj
 0001:000493c0       ?PxFloor@physx@@YAMM@Z     000000018004a3c0 f i MeshCleaner.obj
 0001:000493e0       ?nextPowerOfTwo@shdfnd@physx@@YAII@Z 000000018004a3e0 f i MeshCleaner.obj
 0001:00049464       GetModuleFileNameA         000000018004a464 f   kernel32:KERNEL32.dll
 0001:0004946a       LoadLibraryA               000000018004a46a f   kernel32:KERNEL32.dll
 0001:00049470       __imp_load_?writeWord@physx@@YAXG_NAEAVPxOutputStream@1@@Z 000000018004a470 f   PhysX3CommonDEBUG_x64:PhysX3CommonDEBUG_x64.dll
 0001:0004947c       __tailMerge_PhysX3CommonDEBUG_x64_dll 000000018004a47c f i PhysX3CommonDEBUG_x64:PhysX3CommonDEBUG_x64.dll
 0001:000494f5       ?writeWord@physx@@YAXG_NAEAVPxOutputStream@1@@Z 000000018004a4f5 f   PhysX3CommonDEBUG_x64:PhysX3CommonDEBUG_x64.dll
 0001:000494fb       __imp_load_?writeDword@physx@@YAXI_NAEAVPxOutputStream@1@@Z 000000018004a4fb f   PhysX3CommonDEBUG_x64:PhysX3CommonDEBUG_x64.dll
 0001:00049507       ?writeDword@physx@@YAXI_NAEAVPxOutputStream@1@@Z 000000018004a507 f   PhysX3CommonDEBUG_x64:PhysX3CommonDEBUG_x64.dll
 0001:0004950d       __imp_load_?writeFloat@physx@@YAXM_NAEAVPxOutputStream@1@@Z 000000018004a50d f   PhysX3CommonDEBUG_x64:PhysX3CommonDEBUG_x64.dll
 0001:00049519       ?writeFloat@physx@@YAXM_NAEAVPxOutputStream@1@@Z 000000018004a519 f   PhysX3CommonDEBUG_x64:PhysX3CommonDEBUG_x64.dll
 0001:0004951f       __imp_load_?writeHeader@physx@@YA_NCCCCI_NAEAVPxOutputStream@1@@Z 000000018004a51f f   PhysX3CommonDEBUG_x64:PhysX3CommonDEBUG_x64.dll
 0001:0004952b       ?writeHeader@physx@@YA_NCCCCI_NAEAVPxOutputStream@1@@Z 000000018004a52b f   PhysX3CommonDEBUG_x64:PhysX3CommonDEBUG_x64.dll
 0001:00049531       __imp_load_??0Allocator@shdfnd@physx@@QEAA@PEBD@Z 000000018004a531 f   PhysX3CommonDEBUG_x64:PhysX3CommonDEBUG_x64.dll
 0001:0004953d       ??0Allocator@shdfnd@physx@@QEAA@PEBD@Z 000000018004a53d f   PhysX3CommonDEBUG_x64:PhysX3CommonDEBUG_x64.dll
 0001:00049543       __imp_load_?allocate@Allocator@shdfnd@physx@@QEAAPEAX_KPEBDH@Z 000000018004a543 f   PhysX3CommonDEBUG_x64:PhysX3CommonDEBUG_x64.dll
 0001:0004954f       ?allocate@Allocator@shdfnd@physx@@QEAAPEAX_KPEBDH@Z 000000018004a54f f   PhysX3CommonDEBUG_x64:PhysX3CommonDEBUG_x64.dll
 0001:00049555       __imp_load_??0NamedAllocator@shdfnd@physx@@QEAA@PEBD@Z 000000018004a555 f   PhysX3CommonDEBUG_x64:PhysX3CommonDEBUG_x64.dll
 0001:00049561       ??0NamedAllocator@shdfnd@physx@@QEAA@PEBD@Z 000000018004a561 f   PhysX3CommonDEBUG_x64:PhysX3CommonDEBUG_x64.dll
 0001:00049567       __imp_load_??0NamedAllocator@shdfnd@physx@@QEAA@AEBV012@@Z 000000018004a567 f   PhysX3CommonDEBUG_x64:PhysX3CommonDEBUG_x64.dll
 0001:00049573       ??0NamedAllocator@shdfnd@physx@@QEAA@AEBV012@@Z 000000018004a573 f   PhysX3CommonDEBUG_x64:PhysX3CommonDEBUG_x64.dll
 0001:00049579       __imp_load_??1NamedAllocator@shdfnd@physx@@QEAA@XZ 000000018004a579 f   PhysX3CommonDEBUG_x64:PhysX3CommonDEBUG_x64.dll
 0001:00049585       ??1NamedAllocator@shdfnd@physx@@QEAA@XZ 000000018004a585 f   PhysX3CommonDEBUG_x64:PhysX3CommonDEBUG_x64.dll
 0001:0004958b       __imp_load_?allocate@NamedAllocator@shdfnd@physx@@QEAAPEAX_KPEBDH@Z 000000018004a58b f   PhysX3CommonDEBUG_x64:PhysX3CommonDEBUG_x64.dll
 0001:00049597       ?allocate@NamedAllocator@shdfnd@physx@@QEAAPEAX_KPEBDH@Z 000000018004a597 f   PhysX3CommonDEBUG_x64:PhysX3CommonDEBUG_x64.dll
 0001:0004959d       __imp_load_?deallocate@NamedAllocator@shdfnd@physx@@QEAAXPEAX@Z 000000018004a59d f   PhysX3CommonDEBUG_x64:PhysX3CommonDEBUG_x64.dll
 0001:000495a9       ?deallocate@NamedAllocator@shdfnd@physx@@QEAAXPEAX@Z 000000018004a5a9 f   PhysX3CommonDEBUG_x64:PhysX3CommonDEBUG_x64.dll
 0001:000495af       __imp_load_?PxGetAssertHandler@physx@@YAAEAVPxAssertHandler@1@XZ 000000018004a5af f   PhysX3CommonDEBUG_x64:PhysX3CommonDEBUG_x64.dll
 0001:000495bb       ?PxGetAssertHandler@physx@@YAAEAVPxAssertHandler@1@XZ 000000018004a5bb f   PhysX3CommonDEBUG_x64:PhysX3CommonDEBUG_x64.dll
 0001:000495c1       __imp_load_?validate@RTree@Gu@physx@@QEAAXXZ 000000018004a5c1 f   PhysX3CommonDEBUG_x64:PhysX3CommonDEBUG_x64.dll
 0001:000495cd       ?validate@RTree@Gu@physx@@QEAAXXZ 000000018004a5cd f   PhysX3CommonDEBUG_x64:PhysX3CommonDEBUG_x64.dll
 0001:000495d3       __imp_load_??0TempAllocator@shdfnd@physx@@QEAA@PEBD@Z 000000018004a5d3 f   PhysX3CommonDEBUG_x64:PhysX3CommonDEBUG_x64.dll
 0001:000495df       ??0TempAllocator@shdfnd@physx@@QEAA@PEBD@Z 000000018004a5df f   PhysX3CommonDEBUG_x64:PhysX3CommonDEBUG_x64.dll
 0001:000495e5       __imp_load_?allocate@TempAllocator@shdfnd@physx@@QEAAPEAX_KPEBDH@Z 000000018004a5e5 f   PhysX3CommonDEBUG_x64:PhysX3CommonDEBUG_x64.dll
 0001:000495f1       ?allocate@TempAllocator@shdfnd@physx@@QEAAPEAX_KPEBDH@Z 000000018004a5f1 f   PhysX3CommonDEBUG_x64:PhysX3CommonDEBUG_x64.dll
 0001:000495f7       __imp_load_?deallocate@TempAllocator@shdfnd@physx@@QEAAXPEAX@Z 000000018004a5f7 f   PhysX3CommonDEBUG_x64:PhysX3CommonDEBUG_x64.dll
 0001:00049603       ?deallocate@TempAllocator@shdfnd@physx@@QEAAXPEAX@Z 000000018004a603 f   PhysX3CommonDEBUG_x64:PhysX3CommonDEBUG_x64.dll
 0001:00049609       __imp_load_?computeBoundsAroundVertices@Gu@physx@@YAXAEAVPxBounds3@2@IPEIBVPxVec3@2@@Z 000000018004a609 f   PhysX3CommonDEBUG_x64:PhysX3CommonDEBUG_x64.dll
 0001:00049615       ?computeBoundsAroundVertices@Gu@physx@@YAXAEAVPxBounds3@2@IPEIBVPxVec3@2@@Z 000000018004a615 f   PhysX3CommonDEBUG_x64:PhysX3CommonDEBUG_x64.dll
 0001:0004961b       __imp_load_PxGetFoundation 000000018004a61b f   PhysX3CommonDEBUG_x64:PhysX3CommonDEBUG_x64.dll
 0001:00049627       PxGetFoundation            000000018004a627 f   PhysX3CommonDEBUG_x64:PhysX3CommonDEBUG_x64.dll
 0001:0004962d       __imp_load_?getAllocator@shdfnd@physx@@YAAEAVPxAllocatorCallback@2@XZ 000000018004a62d f   PhysX3CommonDEBUG_x64:PhysX3CommonDEBUG_x64.dll
 0001:00049639       ?getAllocator@shdfnd@physx@@YAAEAVPxAllocatorCallback@2@XZ 000000018004a639 f   PhysX3CommonDEBUG_x64:PhysX3CommonDEBUG_x64.dll
 0001:0004963f       __imp_load_?deallocate@Allocator@shdfnd@physx@@QEAAXPEAX@Z 000000018004a63f f   PhysX3CommonDEBUG_x64:PhysX3CommonDEBUG_x64.dll
 0001:0004964b       ?deallocate@Allocator@shdfnd@physx@@QEAAXPEAX@Z 000000018004a64b f   PhysX3CommonDEBUG_x64:PhysX3CommonDEBUG_x64.dll
 0001:00049651       __imp_load_?getInstance@Foundation@shdfnd@physx@@SAAEAV123@XZ 000000018004a651 f   PhysX3CommonDEBUG_x64:PhysX3CommonDEBUG_x64.dll
 0001:0004965d       ?getInstance@Foundation@shdfnd@physx@@SAAEAV123@XZ 000000018004a65d f   PhysX3CommonDEBUG_x64:PhysX3CommonDEBUG_x64.dll
 0001:00049663       __imp_load_?error@Foundation@shdfnd@physx@@QEAAXW4Enum@PxErrorCode@3@PEBDH1ZZ 000000018004a663 f   PhysX3CommonDEBUG_x64:PhysX3CommonDEBUG_x64.dll
 0001:0004966f       ?error@Foundation@shdfnd@physx@@QEAAXW4Enum@PxErrorCode@3@PEBDH1ZZ 000000018004a66f f   PhysX3CommonDEBUG_x64:PhysX3CommonDEBUG_x64.dll
 0001:00049675       __imp_load_?save@RTree@Gu@physx@@QEBA_NAEAVPxOutputStream@3@@Z 000000018004a675 f   PhysX3CommonDEBUG_x64:PhysX3CommonDEBUG_x64.dll
 0001:00049681       ?save@RTree@Gu@physx@@QEBA_NAEAVPxOutputStream@3@@Z 000000018004a681 f   PhysX3CommonDEBUG_x64:PhysX3CommonDEBUG_x64.dll
 0001:00049687       __imp_load_?release@InternalTriangleMesh@physx@@QEAAXXZ 000000018004a687 f   PhysX3CommonDEBUG_x64:PhysX3CommonDEBUG_x64.dll
 0001:00049693       ?release@InternalTriangleMesh@physx@@QEAAXXZ 000000018004a693 f   PhysX3CommonDEBUG_x64:PhysX3CommonDEBUG_x64.dll
 0001:00049699       __imp_load_?allocateVertices@InternalTriangleMesh@physx@@QEAAPEAVPxVec3@2@I@Z 000000018004a699 f   PhysX3CommonDEBUG_x64:PhysX3CommonDEBUG_x64.dll
 0001:000496a5       ?allocateVertices@InternalTriangleMesh@physx@@QEAAPEAVPxVec3@2@I@Z 000000018004a6a5 f   PhysX3CommonDEBUG_x64:PhysX3CommonDEBUG_x64.dll
 0001:000496ab       __imp_load_?allocateTriangles@InternalTriangleMesh@physx@@QEAAPEAXI_N@Z 000000018004a6ab f   PhysX3CommonDEBUG_x64:PhysX3CommonDEBUG_x64.dll
 0001:000496b7       ?allocateTriangles@InternalTriangleMesh@physx@@QEAAPEAXI_N@Z 000000018004a6b7 f   PhysX3CommonDEBUG_x64:PhysX3CommonDEBUG_x64.dll
 0001:000496bd       __imp_load_?allocateMaterials@InternalTriangleMesh@physx@@QEAAPEAGXZ 000000018004a6bd f   PhysX3CommonDEBUG_x64:PhysX3CommonDEBUG_x64.dll
 0001:000496c9       ?allocateMaterials@InternalTriangleMesh@physx@@QEAAPEAGXZ 000000018004a6c9 f   PhysX3CommonDEBUG_x64:PhysX3CommonDEBUG_x64.dll
 0001:000496cf       __imp_load_?getNumVertices@InternalTriangleMesh@physx@@QEBAIXZ 000000018004a6cf f   PhysX3CommonDEBUG_x64:PhysX3CommonDEBUG_x64.dll
 0001:000496db       ?getNumVertices@InternalTriangleMesh@physx@@QEBAIXZ 000000018004a6db f   PhysX3CommonDEBUG_x64:PhysX3CommonDEBUG_x64.dll
 0001:000496e1       __imp_load_?getNumTriangles@InternalTriangleMesh@physx@@QEBAIXZ 000000018004a6e1 f   PhysX3CommonDEBUG_x64:PhysX3CommonDEBUG_x64.dll
 0001:000496ed       ?getNumTriangles@InternalTriangleMesh@physx@@QEBAIXZ 000000018004a6ed f   PhysX3CommonDEBUG_x64:PhysX3CommonDEBUG_x64.dll
 0001:000496f3       __imp_load_?getVertices@InternalTriangleMesh@physx@@QEBAPEBVPxVec3@2@XZ 000000018004a6f3 f   PhysX3CommonDEBUG_x64:PhysX3CommonDEBUG_x64.dll
 0001:000496ff       ?getVertices@InternalTriangleMesh@physx@@QEBAPEBVPxVec3@2@XZ 000000018004a6ff f   PhysX3CommonDEBUG_x64:PhysX3CommonDEBUG_x64.dll
 0001:00049705       __imp_load_?getTriangles@InternalTriangleMesh@physx@@QEBAPEBXXZ 000000018004a705 f   PhysX3CommonDEBUG_x64:PhysX3CommonDEBUG_x64.dll
 0001:00049711       ?getTriangles@InternalTriangleMesh@physx@@QEBAPEBXXZ 000000018004a711 f   PhysX3CommonDEBUG_x64:PhysX3CommonDEBUG_x64.dll
 0001:00049717       __imp_load_?getMaterials@InternalTriangleMesh@physx@@QEBAPEBGXZ 000000018004a717 f   PhysX3CommonDEBUG_x64:PhysX3CommonDEBUG_x64.dll
 0001:00049723       ?getMaterials@InternalTriangleMesh@physx@@QEBAPEBGXZ 000000018004a723 f   PhysX3CommonDEBUG_x64:PhysX3CommonDEBUG_x64.dll
 0001:00049729       __imp_load_?getFaceRemap@InternalTriangleMesh@physx@@QEBAPEBIXZ 000000018004a729 f   PhysX3CommonDEBUG_x64:PhysX3CommonDEBUG_x64.dll
 0001:00049735       ?getFaceRemap@InternalTriangleMesh@physx@@QEBAPEBIXZ 000000018004a735 f   PhysX3CommonDEBUG_x64:PhysX3CommonDEBUG_x64.dll
 0001:0004973b       __imp_load_?getAdjacencies@InternalTriangleMesh@physx@@QEBAPEBIXZ 000000018004a73b f   PhysX3CommonDEBUG_x64:PhysX3CommonDEBUG_x64.dll
 0001:00049747       ?getAdjacencies@InternalTriangleMesh@physx@@QEBAPEBIXZ 000000018004a747 f   PhysX3CommonDEBUG_x64:PhysX3CommonDEBUG_x64.dll
 0001:0004974d       __imp_load_?getCollisionModel@InternalTriangleMesh@physx@@QEBAAEBVRTreeMidphase@Gu@2@XZ 000000018004a74d f   PhysX3CommonDEBUG_x64:PhysX3CommonDEBUG_x64.dll
 0001:00049759       ?getCollisionModel@InternalTriangleMesh@physx@@QEBAAEBVRTreeMidphase@Gu@2@XZ 000000018004a759 f   PhysX3CommonDEBUG_x64:PhysX3CommonDEBUG_x64.dll
 0001:0004975f       __imp_load_?writeWordBuffer@physx@@YAXPEBGI_NAEAVPxOutputStream@1@@Z 000000018004a75f f   PhysX3CommonDEBUG_x64:PhysX3CommonDEBUG_x64.dll
 0001:0004976b       ?writeWordBuffer@physx@@YAXPEBGI_NAEAVPxOutputStream@1@@Z 000000018004a76b f   PhysX3CommonDEBUG_x64:PhysX3CommonDEBUG_x64.dll
 0001:00049771       __imp_load_?writeFloatBuffer@physx@@YAXPEBMI_NAEAVPxOutputStream@1@@Z 000000018004a771 f   PhysX3CommonDEBUG_x64:PhysX3CommonDEBUG_x64.dll
 0001:0004977d       ?writeFloatBuffer@physx@@YAXPEBMI_NAEAVPxOutputStream@1@@Z 000000018004a77d f   PhysX3CommonDEBUG_x64:PhysX3CommonDEBUG_x64.dll
 0001:00049783       __imp_load_?computeMaxIndex@physx@@YAIPEBII@Z 000000018004a783 f   PhysX3CommonDEBUG_x64:PhysX3CommonDEBUG_x64.dll
 0001:0004978f       ?computeMaxIndex@physx@@YAIPEBII@Z 000000018004a78f f   PhysX3CommonDEBUG_x64:PhysX3CommonDEBUG_x64.dll
 0001:00049795       __imp_load_?storeIndices@physx@@YAXIIPEBIAEAVPxOutputStream@1@_N@Z 000000018004a795 f   PhysX3CommonDEBUG_x64:PhysX3CommonDEBUG_x64.dll
 0001:000497a1       ?storeIndices@physx@@YAXIIPEBIAEAVPxOutputStream@1@_N@Z 000000018004a7a1 f   PhysX3CommonDEBUG_x64:PhysX3CommonDEBUG_x64.dll
 0001:000497a7       __imp_load_?computeMaxIndex@physx@@YAGPEBGI@Z 000000018004a7a7 f   PhysX3CommonDEBUG_x64:PhysX3CommonDEBUG_x64.dll
 0001:000497b3       ?computeMaxIndex@physx@@YAGPEBGI@Z 000000018004a7b3 f   PhysX3CommonDEBUG_x64:PhysX3CommonDEBUG_x64.dll
 0001:000497b9       __imp_load_?WriteHeader@Gu@physx@@YA_NEEEEI_NAEAVPxOutputStream@2@@Z 000000018004a7b9 f   PhysX3CommonDEBUG_x64:PhysX3CommonDEBUG_x64.dll
 0001:000497c5       ?WriteHeader@Gu@physx@@YA_NEEEEI_NAEAVPxOutputStream@2@@Z 000000018004a7c5 f   PhysX3CommonDEBUG_x64:PhysX3CommonDEBUG_x64.dll
 0001:000497cb       __imp_load_?StoreIndices@Gu@physx@@YAXGIPEBGAEAVPxOutputStream@2@_N@Z 000000018004a7cb f   PhysX3CommonDEBUG_x64:PhysX3CommonDEBUG_x64.dll
 0001:000497d7       ?StoreIndices@Gu@physx@@YAXGIPEBGAEAVPxOutputStream@2@_N@Z 000000018004a7d7 f   PhysX3CommonDEBUG_x64:PhysX3CommonDEBUG_x64.dll
 0001:000497dd       __imp_load_?CreateOffsets@BigConvexData@physx@@IEAAXXZ 000000018004a7dd f   PhysX3CommonDEBUG_x64:PhysX3CommonDEBUG_x64.dll
 0001:000497e9       ?CreateOffsets@BigConvexData@physx@@IEAAXXZ 000000018004a7e9 f   PhysX3CommonDEBUG_x64:PhysX3CommonDEBUG_x64.dll
 0001:000497ef       __imp_load_?GetRanks@RadixSort@Gu@physx@@QEBAPEBIXZ 000000018004a7ef f   PhysX3CommonDEBUG_x64:PhysX3CommonDEBUG_x64.dll
 0001:000497fb       ?GetRanks@RadixSort@Gu@physx@@QEBAPEBIXZ 000000018004a7fb f   PhysX3CommonDEBUG_x64:PhysX3CommonDEBUG_x64.dll
 0001:00049801       __imp_load_??0RadixSortBuffered@Gu@physx@@QEAA@XZ 000000018004a801 f   PhysX3CommonDEBUG_x64:PhysX3CommonDEBUG_x64.dll
 0001:0004980d       ??0RadixSortBuffered@Gu@physx@@QEAA@XZ 000000018004a80d f   PhysX3CommonDEBUG_x64:PhysX3CommonDEBUG_x64.dll
 0001:00049813       __imp_load_??1RadixSortBuffered@Gu@physx@@UEAA@XZ 000000018004a813 f   PhysX3CommonDEBUG_x64:PhysX3CommonDEBUG_x64.dll
 0001:0004981f       ??1RadixSortBuffered@Gu@physx@@UEAA@XZ 000000018004a81f f   PhysX3CommonDEBUG_x64:PhysX3CommonDEBUG_x64.dll
 0001:00049825       __imp_load_?Sort@RadixSortBuffered@Gu@physx@@QEAAAEAV123@PEBIIW4RadixHint@23@@Z 000000018004a825 f   PhysX3CommonDEBUG_x64:PhysX3CommonDEBUG_x64.dll
 0001:00049831       ?Sort@RadixSortBuffered@Gu@physx@@QEAAAEAV123@PEBIIW4RadixHint@23@@Z 000000018004a831 f   PhysX3CommonDEBUG_x64:PhysX3CommonDEBUG_x64.dll
 0001:00049837       __imp_load_??0Container@Gu@physx@@QEAA@XZ 000000018004a837 f   PhysX3CommonDEBUG_x64:PhysX3CommonDEBUG_x64.dll
 0001:00049843       ??0Container@Gu@physx@@QEAA@XZ 000000018004a843 f   PhysX3CommonDEBUG_x64:PhysX3CommonDEBUG_x64.dll
 0001:00049849       __imp_load_??0Container@Gu@physx@@QEAA@AEBV012@@Z 000000018004a849 f   PhysX3CommonDEBUG_x64:PhysX3CommonDEBUG_x64.dll
 0001:00049855       ??0Container@Gu@physx@@QEAA@AEBV012@@Z 000000018004a855 f   PhysX3CommonDEBUG_x64:PhysX3CommonDEBUG_x64.dll
 0001:0004985b       __imp_load_??1Container@Gu@physx@@QEAA@XZ 000000018004a85b f   PhysX3CommonDEBUG_x64:PhysX3CommonDEBUG_x64.dll
 0001:00049867       ??1Container@Gu@physx@@QEAA@XZ 000000018004a867 f   PhysX3CommonDEBUG_x64:PhysX3CommonDEBUG_x64.dll
 0001:0004986d       __imp_load_?Add@Container@Gu@physx@@QEAAAEAV123@I@Z 000000018004a86d f   PhysX3CommonDEBUG_x64:PhysX3CommonDEBUG_x64.dll
 0001:00049879       ?Add@Container@Gu@physx@@QEAAAEAV123@I@Z 000000018004a879 f   PhysX3CommonDEBUG_x64:PhysX3CommonDEBUG_x64.dll
 0001:0004987f       __imp_load_?Add@Container@Gu@physx@@QEAAAEAV123@PEBII@Z 000000018004a87f f   PhysX3CommonDEBUG_x64:PhysX3CommonDEBUG_x64.dll
 0001:0004988b       ?Add@Container@Gu@physx@@QEAAAEAV123@PEBII@Z 000000018004a88b f   PhysX3CommonDEBUG_x64:PhysX3CommonDEBUG_x64.dll
 0001:00049891       __imp_load_?Add@Container@Gu@physx@@QEAAAEAV123@AEBV123@@Z 000000018004a891 f   PhysX3CommonDEBUG_x64:PhysX3CommonDEBUG_x64.dll
 0001:0004989d       ?Add@Container@Gu@physx@@QEAAAEAV123@AEBV123@@Z 000000018004a89d f   PhysX3CommonDEBUG_x64:PhysX3CommonDEBUG_x64.dll
 0001:000498a3       __imp_load_?AddUnique@Container@Gu@physx@@QEAAAEAV123@I@Z 000000018004a8a3 f   PhysX3CommonDEBUG_x64:PhysX3CommonDEBUG_x64.dll
 0001:000498af       ?AddUnique@Container@Gu@physx@@QEAAAEAV123@I@Z 000000018004a8af f   PhysX3CommonDEBUG_x64:PhysX3CommonDEBUG_x64.dll
 0001:000498b5       __imp_load_?Empty@Container@Gu@physx@@QEAAAEAV123@XZ 000000018004a8b5 f   PhysX3CommonDEBUG_x64:PhysX3CommonDEBUG_x64.dll
 0001:000498c1       ?Empty@Container@Gu@physx@@QEAAAEAV123@XZ 000000018004a8c1 f   PhysX3CommonDEBUG_x64:PhysX3CommonDEBUG_x64.dll
 0001:000498c7       __imp_load_?Reset@Container@Gu@physx@@QEAAXXZ 000000018004a8c7 f   PhysX3CommonDEBUG_x64:PhysX3CommonDEBUG_x64.dll
 0001:000498d3       ?Reset@Container@Gu@physx@@QEAAXXZ 000000018004a8d3 f   PhysX3CommonDEBUG_x64:PhysX3CommonDEBUG_x64.dll
 0001:000498d9       __imp_load_?Contains@Container@Gu@physx@@QEBA_NIPEAI@Z 000000018004a8d9 f   PhysX3CommonDEBUG_x64:PhysX3CommonDEBUG_x64.dll
 0001:000498e5       ?Contains@Container@Gu@physx@@QEBA_NIPEAI@Z 000000018004a8e5 f   PhysX3CommonDEBUG_x64:PhysX3CommonDEBUG_x64.dll
 0001:000498eb       __imp_load_?DeleteIndex@Container@Gu@physx@@QEAAXI@Z 000000018004a8eb f   PhysX3CommonDEBUG_x64:PhysX3CommonDEBUG_x64.dll
 0001:000498f7       ?DeleteIndex@Container@Gu@physx@@QEAAXI@Z 000000018004a8f7 f   PhysX3CommonDEBUG_x64:PhysX3CommonDEBUG_x64.dll
 0001:000498fd       __imp_load_?GetNbEntries@Container@Gu@physx@@QEBAIXZ 000000018004a8fd f   PhysX3CommonDEBUG_x64:PhysX3CommonDEBUG_x64.dll
 0001:00049909       ?GetNbEntries@Container@Gu@physx@@QEBAIXZ 000000018004a909 f   PhysX3CommonDEBUG_x64:PhysX3CommonDEBUG_x64.dll
 0001:0004990f       __imp_load_?GetEntry@Container@Gu@physx@@QEBAII@Z 000000018004a90f f   PhysX3CommonDEBUG_x64:PhysX3CommonDEBUG_x64.dll
 0001:0004991b       ?GetEntry@Container@Gu@physx@@QEBAII@Z 000000018004a91b f   PhysX3CommonDEBUG_x64:PhysX3CommonDEBUG_x64.dll
 0001:00049921       __imp_load_?GetEntries@Container@Gu@physx@@QEBAPEAIXZ 000000018004a921 f   PhysX3CommonDEBUG_x64:PhysX3CommonDEBUG_x64.dll
 0001:0004992d       ?GetEntries@Container@Gu@physx@@QEBAPEAIXZ 000000018004a92d f   PhysX3CommonDEBUG_x64:PhysX3CommonDEBUG_x64.dll
 0001:00049933       __imp_load_??AContainer@Gu@physx@@QEAAAEAII@Z 000000018004a933 f   PhysX3CommonDEBUG_x64:PhysX3CommonDEBUG_x64.dll
 0001:0004993f       ??AContainer@Gu@physx@@QEAAAEAII@Z 000000018004a93f f   PhysX3CommonDEBUG_x64:PhysX3CommonDEBUG_x64.dll
 0001:00049945       __imp_load_??4Container@Gu@physx@@QEAAXAEBV012@@Z 000000018004a945 f   PhysX3CommonDEBUG_x64:PhysX3CommonDEBUG_x64.dll
 0001:00049951       ??4Container@Gu@physx@@QEAAXAEBV012@@Z 000000018004a951 f   PhysX3CommonDEBUG_x64:PhysX3CommonDEBUG_x64.dll
 0001:00049957       __imp_load_??0ConvexMesh@Gu@physx@@QEAA@XZ 000000018004a957 f   PhysX3CommonDEBUG_x64:PhysX3CommonDEBUG_x64.dll
 0001:00049963       ??0ConvexMesh@Gu@physx@@QEAA@XZ 000000018004a963 f   PhysX3CommonDEBUG_x64:PhysX3CommonDEBUG_x64.dll
 0001:00049969       __imp_load_??1ConvexMesh@Gu@physx@@UEAA@XZ 000000018004a969 f   PhysX3CommonDEBUG_x64:PhysX3CommonDEBUG_x64.dll
 0001:00049975       ??1ConvexMesh@Gu@physx@@UEAA@XZ 000000018004a975 f   PhysX3CommonDEBUG_x64:PhysX3CommonDEBUG_x64.dll
 0001:0004997b       __imp_load_??0BigConvexData@physx@@QEAA@XZ 000000018004a97b f   PhysX3CommonDEBUG_x64:PhysX3CommonDEBUG_x64.dll
 0001:00049987       ??0BigConvexData@physx@@QEAA@XZ 000000018004a987 f   PhysX3CommonDEBUG_x64:PhysX3CommonDEBUG_x64.dll
 0001:0004998d       __imp_load_??1BigConvexData@physx@@QEAA@XZ 000000018004a98d f   PhysX3CommonDEBUG_x64:PhysX3CommonDEBUG_x64.dll
 0001:00049999       ??1BigConvexData@physx@@QEAA@XZ 000000018004a999 f   PhysX3CommonDEBUG_x64:PhysX3CommonDEBUG_x64.dll
 0001:0004999f       __imp_load_?exportExtraData@ConvexMesh@Gu@physx@@UEAAXAEAVPxSerializationContext@3@@Z 000000018004a99f f   PhysX3CommonDEBUG_x64:PhysX3CommonDEBUG_x64.dll
 0001:000499ab       ?exportExtraData@ConvexMesh@Gu@physx@@UEAAXAEAVPxSerializationContext@3@@Z 000000018004a9ab f   PhysX3CommonDEBUG_x64:PhysX3CommonDEBUG_x64.dll
 0001:000499b1       __imp_load_?getConcreteTypeName@PxConvexMesh@physx@@UEBAPEBDXZ 000000018004a9b1 f   PhysX3CommonDEBUG_x64:PhysX3CommonDEBUG_x64.dll
 0001:000499bd       ?getConcreteTypeName@PxConvexMesh@physx@@UEBAPEBDXZ 000000018004a9bd f   PhysX3CommonDEBUG_x64:PhysX3CommonDEBUG_x64.dll
 0001:000499c3       __imp_load_?getIndexBuffer@ConvexMesh@Gu@physx@@UEBAPEBEXZ 000000018004a9c3 f   PhysX3CommonDEBUG_x64:PhysX3CommonDEBUG_x64.dll
 0001:000499cf       ?getIndexBuffer@ConvexMesh@Gu@physx@@UEBAPEBEXZ 000000018004a9cf f   PhysX3CommonDEBUG_x64:PhysX3CommonDEBUG_x64.dll
 0001:000499d5       __imp_load_?getLocalBounds@ConvexMesh@Gu@physx@@UEBA?AVPxBounds3@3@XZ 000000018004a9d5 f   PhysX3CommonDEBUG_x64:PhysX3CommonDEBUG_x64.dll
 0001:000499e1       ?getLocalBounds@ConvexMesh@Gu@physx@@UEBA?AVPxBounds3@3@XZ 000000018004a9e1 f   PhysX3CommonDEBUG_x64:PhysX3CommonDEBUG_x64.dll
 0001:000499e7       __imp_load_?getMassInformation@ConvexMesh@Gu@physx@@UEBAXAEAMAEAVPxMat33@3@AEAVPxVec3@3@@Z 000000018004a9e7 f   PhysX3CommonDEBUG_x64:PhysX3CommonDEBUG_x64.dll
 0001:000499f3       ?getMassInformation@ConvexMesh@Gu@physx@@UEBAXAEAMAEAVPxMat33@3@AEAVPxVec3@3@@Z 000000018004a9f3 f   PhysX3CommonDEBUG_x64:PhysX3CommonDEBUG_x64.dll
 0001:000499f9       __imp_load_?getNbPolygons@ConvexMesh@Gu@physx@@UEBAIXZ 000000018004a9f9 f   PhysX3CommonDEBUG_x64:PhysX3CommonDEBUG_x64.dll
 0001:00049a05       ?getNbPolygons@ConvexMesh@Gu@physx@@UEBAIXZ 000000018004aa05 f   PhysX3CommonDEBUG_x64:PhysX3CommonDEBUG_x64.dll
 0001:00049a0b       __imp_load_?getNbVertices@ConvexMesh@Gu@physx@@UEBAIXZ 000000018004aa0b f   PhysX3CommonDEBUG_x64:PhysX3CommonDEBUG_x64.dll
 0001:00049a17       ?getNbVertices@ConvexMesh@Gu@physx@@UEBAIXZ 000000018004aa17 f   PhysX3CommonDEBUG_x64:PhysX3CommonDEBUG_x64.dll
 0001:00049a1d       __imp_load_?getPolygonData@ConvexMesh@Gu@physx@@UEBA_NIAEAUPxHullPolygon@3@@Z 000000018004aa1d f   PhysX3CommonDEBUG_x64:PhysX3CommonDEBUG_x64.dll
 0001:00049a29       ?getPolygonData@ConvexMesh@Gu@physx@@UEBA_NIAEAUPxHullPolygon@3@@Z 000000018004aa29 f   PhysX3CommonDEBUG_x64:PhysX3CommonDEBUG_x64.dll
 0001:00049a2f       __imp_load_?getReferenceCount@ConvexMesh@Gu@physx@@UEBAIXZ 000000018004aa2f f   PhysX3CommonDEBUG_x64:PhysX3CommonDEBUG_x64.dll
 0001:00049a3b       ?getReferenceCount@ConvexMesh@Gu@physx@@UEBAIXZ 000000018004aa3b f   PhysX3CommonDEBUG_x64:PhysX3CommonDEBUG_x64.dll
 0001:00049a41       __imp_load_?getVertices@ConvexMesh@Gu@physx@@UEBAPEBVPxVec3@3@XZ 000000018004aa41 f   PhysX3CommonDEBUG_x64:PhysX3CommonDEBUG_x64.dll
 0001:00049a4d       ?getVertices@ConvexMesh@Gu@physx@@UEBAPEBVPxVec3@3@XZ 000000018004aa4d f   PhysX3CommonDEBUG_x64:PhysX3CommonDEBUG_x64.dll
 0001:00049a53       __imp_load_?isKindOf@PxConvexMesh@physx@@MEBA_NPEBD@Z 000000018004aa53 f   PhysX3CommonDEBUG_x64:PhysX3CommonDEBUG_x64.dll
 0001:00049a5f       ?isKindOf@PxConvexMesh@physx@@MEBA_NPEBD@Z 000000018004aa5f f   PhysX3CommonDEBUG_x64:PhysX3CommonDEBUG_x64.dll
 0001:00049a65       __imp_load_?onRefCountZero@ConvexMesh@Gu@physx@@UEAAXXZ 000000018004aa65 f   PhysX3CommonDEBUG_x64:PhysX3CommonDEBUG_x64.dll
 0001:00049a71       ?onRefCountZero@ConvexMesh@Gu@physx@@UEAAXXZ 000000018004aa71 f   PhysX3CommonDEBUG_x64:PhysX3CommonDEBUG_x64.dll
 0001:00049a77       __imp_load_?release@ConvexMesh@Gu@physx@@UEAAXXZ 000000018004aa77 f   PhysX3CommonDEBUG_x64:PhysX3CommonDEBUG_x64.dll
 0001:00049a83       ?release@ConvexMesh@Gu@physx@@UEAAXXZ 000000018004aa83 f   PhysX3CommonDEBUG_x64:PhysX3CommonDEBUG_x64.dll
 0001:00049a89       __imp_load_?readDword@physx@@YAI_NAEAVPxInputStream@1@@Z 000000018004aa89 f   PhysX3CommonDEBUG_x64:PhysX3CommonDEBUG_x64.dll
 0001:00049a95       ?readDword@physx@@YAI_NAEAVPxInputStream@1@@Z 000000018004aa95 f   PhysX3CommonDEBUG_x64:PhysX3CommonDEBUG_x64.dll
 0001:00049a9b       __imp_load_?ReadHeader@Gu@physx@@YA_NEEEEAEAIAEA_NAEAVPxInputStream@2@@Z 000000018004aa9b f   PhysX3CommonDEBUG_x64:PhysX3CommonDEBUG_x64.dll
 0001:00049aa7       ?ReadHeader@Gu@physx@@YA_NEEEEAEAIAEA_NAEAVPxInputStream@2@@Z 000000018004aaa7 f   PhysX3CommonDEBUG_x64:PhysX3CommonDEBUG_x64.dll
 0001:00049aad       __imp_load_??0FPUGuard@shdfnd@physx@@QEAA@XZ 000000018004aaad f   PhysX3CommonDEBUG_x64:PhysX3CommonDEBUG_x64.dll
 0001:00049ab9       ??0FPUGuard@shdfnd@physx@@QEAA@XZ 000000018004aab9 f   PhysX3CommonDEBUG_x64:PhysX3CommonDEBUG_x64.dll
 0001:00049abf       __imp_load_??1FPUGuard@shdfnd@physx@@QEAA@XZ 000000018004aabf f   PhysX3CommonDEBUG_x64:PhysX3CommonDEBUG_x64.dll
 0001:00049acb       ??1FPUGuard@shdfnd@physx@@QEAA@XZ 000000018004aacb f   PhysX3CommonDEBUG_x64:PhysX3CommonDEBUG_x64.dll
 0001:00049ad1       __imp_load_?incRefCount@Foundation@shdfnd@physx@@SAXXZ 000000018004aad1 f   PhysX3CommonDEBUG_x64:PhysX3CommonDEBUG_x64.dll
 0001:00049add       ?incRefCount@Foundation@shdfnd@physx@@SAXXZ 000000018004aadd f   PhysX3CommonDEBUG_x64:PhysX3CommonDEBUG_x64.dll
 0001:00049ae3       __imp_load_?decRefCount@Foundation@shdfnd@physx@@SAXXZ 000000018004aae3 f   PhysX3CommonDEBUG_x64:PhysX3CommonDEBUG_x64.dll
 0001:00049aef       ?decRefCount@Foundation@shdfnd@physx@@SAXXZ 000000018004aaef f   PhysX3CommonDEBUG_x64:PhysX3CommonDEBUG_x64.dll
 0001:00049af5       __imp_load_??0TriangleMesh@Gu@physx@@QEAA@XZ 000000018004aaf5 f   PhysX3CommonDEBUG_x64:PhysX3CommonDEBUG_x64.dll
 0001:00049b01       ??0TriangleMesh@Gu@physx@@QEAA@XZ 000000018004ab01 f   PhysX3CommonDEBUG_x64:PhysX3CommonDEBUG_x64.dll
 0001:00049b07       __imp_load_?checkMeshIndicesSize@TriangleMesh@Gu@physx@@QEAAXXZ 000000018004ab07 f   PhysX3CommonDEBUG_x64:PhysX3CommonDEBUG_x64.dll
 0001:00049b13       ?checkMeshIndicesSize@TriangleMesh@Gu@physx@@QEAAXXZ 000000018004ab13 f   PhysX3CommonDEBUG_x64:PhysX3CommonDEBUG_x64.dll
 0001:00049b19       __imp_load_??1TriangleMesh@Gu@physx@@UEAA@XZ 000000018004ab19 f   PhysX3CommonDEBUG_x64:PhysX3CommonDEBUG_x64.dll
 0001:00049b25       ??1TriangleMesh@Gu@physx@@UEAA@XZ 000000018004ab25 f   PhysX3CommonDEBUG_x64:PhysX3CommonDEBUG_x64.dll
 0001:00049b2b       __imp_load_??0HeightField@Gu@physx@@QEAA@PEAVGuMeshFactory@2@@Z 000000018004ab2b f   PhysX3CommonDEBUG_x64:PhysX3CommonDEBUG_x64.dll
 0001:00049b37       ??0HeightField@Gu@physx@@QEAA@PEAVGuMeshFactory@2@@Z 000000018004ab37 f   PhysX3CommonDEBUG_x64:PhysX3CommonDEBUG_x64.dll
 0001:00049b3d       __imp_load_?loadFromDesc@HeightField@Gu@physx@@QEAA_NAEBVPxHeightFieldDesc@3@_N@Z 000000018004ab3d f   PhysX3CommonDEBUG_x64:PhysX3CommonDEBUG_x64.dll
 0001:00049b49       ?loadFromDesc@HeightField@Gu@physx@@QEAA_NAEBVPxHeightFieldDesc@3@_N@Z 000000018004ab49 f   PhysX3CommonDEBUG_x64:PhysX3CommonDEBUG_x64.dll
 0001:00049b4f       __imp_load_?releaseMemory@HeightField@Gu@physx@@QEAAX_N@Z 000000018004ab4f f   PhysX3CommonDEBUG_x64:PhysX3CommonDEBUG_x64.dll
 0001:00049b5b       ?releaseMemory@HeightField@Gu@physx@@QEAAX_N@Z 000000018004ab5b f   PhysX3CommonDEBUG_x64:PhysX3CommonDEBUG_x64.dll
 0001:00049b61       __imp_load_?exportExtraData@TriangleMesh@Gu@physx@@UEAAXAEAVPxSerializationContext@3@@Z 000000018004ab61 f   PhysX3CommonDEBUG_x64:PhysX3CommonDEBUG_x64.dll
 0001:00049b6d       ?exportExtraData@TriangleMesh@Gu@physx@@UEAAXAEAVPxSerializationContext@3@@Z 000000018004ab6d f   PhysX3CommonDEBUG_x64:PhysX3CommonDEBUG_x64.dll
 0001:00049b73       __imp_load_?getConcreteTypeName@PxTriangleMesh@physx@@UEBAPEBDXZ 000000018004ab73 f   PhysX3CommonDEBUG_x64:PhysX3CommonDEBUG_x64.dll
 0001:00049b7f       ?getConcreteTypeName@PxTriangleMesh@physx@@UEBAPEBDXZ 000000018004ab7f f   PhysX3CommonDEBUG_x64:PhysX3CommonDEBUG_x64.dll
 0001:00049b85       __imp_load_?getLocalBounds@TriangleMesh@Gu@physx@@UEBA?AVPxBounds3@3@XZ 000000018004ab85 f   PhysX3CommonDEBUG_x64:PhysX3CommonDEBUG_x64.dll
 0001:00049b91       ?getLocalBounds@TriangleMesh@Gu@physx@@UEBA?AVPxBounds3@3@XZ 000000018004ab91 f   PhysX3CommonDEBUG_x64:PhysX3CommonDEBUG_x64.dll
 0001:00049b97       __imp_load_?getNbTriangles@TriangleMesh@Gu@physx@@UEBAIXZ 000000018004ab97 f   PhysX3CommonDEBUG_x64:PhysX3CommonDEBUG_x64.dll
 0001:00049ba3       ?getNbTriangles@TriangleMesh@Gu@physx@@UEBAIXZ 000000018004aba3 f   PhysX3CommonDEBUG_x64:PhysX3CommonDEBUG_x64.dll
 0001:00049ba9       __imp_load_?getNbVertices@TriangleMesh@Gu@physx@@UEBAIXZ 000000018004aba9 f   PhysX3CommonDEBUG_x64:PhysX3CommonDEBUG_x64.dll
 0001:00049bb5       ?getNbVertices@TriangleMesh@Gu@physx@@UEBAIXZ 000000018004abb5 f   PhysX3CommonDEBUG_x64:PhysX3CommonDEBUG_x64.dll
 0001:00049bbb       __imp_load_?getReferenceCount@TriangleMesh@Gu@physx@@UEBAIXZ 000000018004abbb f   PhysX3CommonDEBUG_x64:PhysX3CommonDEBUG_x64.dll
 0001:00049bc7       ?getReferenceCount@TriangleMesh@Gu@physx@@UEBAIXZ 000000018004abc7 f   PhysX3CommonDEBUG_x64:PhysX3CommonDEBUG_x64.dll
 0001:00049bcd       __imp_load_?getTriangleMaterialIndex@TriangleMesh@Gu@physx@@UEBAGI@Z 000000018004abcd f   PhysX3CommonDEBUG_x64:PhysX3CommonDEBUG_x64.dll
 0001:00049bd9       ?getTriangleMaterialIndex@TriangleMesh@Gu@physx@@UEBAGI@Z 000000018004abd9 f   PhysX3CommonDEBUG_x64:PhysX3CommonDEBUG_x64.dll
 0001:00049bdf       __imp_load_?getTriangleMeshFlags@TriangleMesh@Gu@physx@@UEBA?AV?$PxFlags@W4Enum@PxTriangleMeshFlag@physx@@E@3@XZ 000000018004abdf f   PhysX3CommonDEBUG_x64:PhysX3CommonDEBUG_x64.dll
 0001:00049beb       ?getTriangleMeshFlags@TriangleMesh@Gu@physx@@UEBA?AV?$PxFlags@W4Enum@PxTriangleMeshFlag@physx@@E@3@XZ 000000018004abeb f   PhysX3CommonDEBUG_x64:PhysX3CommonDEBUG_x64.dll
 0001:00049bf1       __imp_load_?getTriangles@TriangleMesh@Gu@physx@@UEBAPEBXXZ 000000018004abf1 f   PhysX3CommonDEBUG_x64:PhysX3CommonDEBUG_x64.dll
 0001:00049bfd       ?getTriangles@TriangleMesh@Gu@physx@@UEBAPEBXXZ 000000018004abfd f   PhysX3CommonDEBUG_x64:PhysX3CommonDEBUG_x64.dll
 0001:00049c03       __imp_load_?getTrianglesRemap@TriangleMesh@Gu@physx@@UEBAPEBIXZ 000000018004ac03 f   PhysX3CommonDEBUG_x64:PhysX3CommonDEBUG_x64.dll
 0001:00049c0f       ?getTrianglesRemap@TriangleMesh@Gu@physx@@UEBAPEBIXZ 000000018004ac0f f   PhysX3CommonDEBUG_x64:PhysX3CommonDEBUG_x64.dll
 0001:00049c15       __imp_load_?getVertices@TriangleMesh@Gu@physx@@UEBAPEBVPxVec3@3@XZ 000000018004ac15 f   PhysX3CommonDEBUG_x64:PhysX3CommonDEBUG_x64.dll
 0001:00049c21       ?getVertices@TriangleMesh@Gu@physx@@UEBAPEBVPxVec3@3@XZ 000000018004ac21 f   PhysX3CommonDEBUG_x64:PhysX3CommonDEBUG_x64.dll
 0001:00049c27       __imp_load_?isKindOf@PxTriangleMesh@physx@@MEBA_NPEBD@Z 000000018004ac27 f   PhysX3CommonDEBUG_x64:PhysX3CommonDEBUG_x64.dll
 0001:00049c33       ?isKindOf@PxTriangleMesh@physx@@MEBA_NPEBD@Z 000000018004ac33 f   PhysX3CommonDEBUG_x64:PhysX3CommonDEBUG_x64.dll
 0001:00049c39       __imp_load_?onRefCountZero@TriangleMesh@Gu@physx@@UEAAXXZ 000000018004ac39 f   PhysX3CommonDEBUG_x64:PhysX3CommonDEBUG_x64.dll
 0001:00049c45       ?onRefCountZero@TriangleMesh@Gu@physx@@UEAAXXZ 000000018004ac45 f   PhysX3CommonDEBUG_x64:PhysX3CommonDEBUG_x64.dll
 0001:00049c4b       __imp_load_?release@TriangleMesh@Gu@physx@@UEAAXXZ 000000018004ac4b f   PhysX3CommonDEBUG_x64:PhysX3CommonDEBUG_x64.dll
 0001:00049c57       ?release@TriangleMesh@Gu@physx@@UEAAXXZ 000000018004ac57 f   PhysX3CommonDEBUG_x64:PhysX3CommonDEBUG_x64.dll
 0001:00049c5d       __imp_load_?has16BitIndices@InternalTriangleMesh@physx@@QEBA_NXZ 000000018004ac5d f   PhysX3CommonDEBUG_x64:PhysX3CommonDEBUG_x64.dll
 0001:00049c69       ?has16BitIndices@InternalTriangleMesh@physx@@QEBA_NXZ 000000018004ac69 f   PhysX3CommonDEBUG_x64:PhysX3CommonDEBUG_x64.dll
 0001:00049c6f       __imp_load_?setTriangleAdjacency@InternalTriangleMesh@physx@@QEAAXIII@Z 000000018004ac6f f   PhysX3CommonDEBUG_x64:PhysX3CommonDEBUG_x64.dll
 0001:00049c7b       ?setTriangleAdjacency@InternalTriangleMesh@physx@@QEAAXIII@Z 000000018004ac7b f   PhysX3CommonDEBUG_x64:PhysX3CommonDEBUG_x64.dll
 0001:00049c81       __imp_load_?setupMeshInterface@InternalTriangleMesh@physx@@QEAAXXZ 000000018004ac81 f   PhysX3CommonDEBUG_x64:PhysX3CommonDEBUG_x64.dll
 0001:00049c8d       ?setupMeshInterface@InternalTriangleMesh@physx@@QEAAXXZ 000000018004ac8d f   PhysX3CommonDEBUG_x64:PhysX3CommonDEBUG_x64.dll
 0001:00049c94       ??$PFromRva@PEAP6A_JXZ@@YAPEAP6A_JXZK@Z 000000018004ac94 f i delayimp:delayhlp.obj
 0001:00049ca4       ??$PFromRva@PEAPEAUHINSTANCE__@@@@YAPEAPEAUHINSTANCE__@@K@Z 000000018004aca4 f i delayimp:delayhlp.obj
 0001:00049cb4       ??$PFromRva@PEAU_IMAGE_IMPORT_BY_NAME@@@@YAPEAU_IMAGE_IMPORT_BY_NAME@@K@Z 000000018004acb4 f i delayimp:delayhlp.obj
 0001:00049cc4       ??$PFromRva@PEAU_IMAGE_THUNK_DATA64@@@@YAPEAU_IMAGE_THUNK_DATA64@@K@Z 000000018004acc4 f i delayimp:delayhlp.obj
 0001:00049cd4       ??$PFromRva@PEBD@@YAPEBDK@Z 000000018004acd4 f i delayimp:delayhlp.obj
 0001:00049ce4       ??$PFromRva@PEBUImgDelayDescr@@@@YAPEBUImgDelayDescr@@K@Z 000000018004ace4 f i delayimp:delayhlp.obj
 0001:00049cf4       ??$PFromRva@PEBU_IMAGE_THUNK_DATA64@@@@YAPEBU_IMAGE_THUNK_DATA64@@K@Z 000000018004acf4 f i delayimp:delayhlp.obj
 0001:00049d04       ?CountOfImports@@YAIPEBU_IMAGE_THUNK_DATA64@@@Z 000000018004ad04 f i delayimp:delayhlp.obj
 0001:00049d20       ?IndexFromPImgThunkData@@YAIPEBU_IMAGE_THUNK_DATA64@@0@Z 000000018004ad20 f i delayimp:delayhlp.obj
 0001:00049e64       HRESULT_FROM_WIN32         000000018004ae64 f i delayimp:delayhlp.obj
 0001:00049e74       __FUnloadDelayLoadedDLL2   000000018004ae74 f   delayimp:delayhlp.obj
 0001:00049f04       __HrLoadAllImportsForDll   000000018004af04 f   delayimp:delayhlp.obj
 0001:00049f78       __delayLoadHelper2         000000018004af78 f   delayimp:delayhlp.obj
 0001:0004a220       strcmp                     000000018004b220 f   LIBCMTD:strcmp.obj
 0001:0004a290       strstr                     000000018004b290 f   LIBCMTD:strstr.obj
 0001:0004a8e0       _RTC_InitBase              000000018004b8e0 f   LIBCMTD:init.obj
 0001:0004a920       _RTC_Shutdown              000000018004b920 f   LIBCMTD:init.obj
 0001:0004a950       _fpmath                    000000018004b950 f   LIBCMTD:fpinit.obj
 0001:0004a970       __setfflag                 000000018004b970 f   LIBCMTD:fpinit.obj
 0001:0004a9a0       _cfltcvt_init              000000018004b9a0 f   LIBCMTD:fpinit.obj
 0001:0004aab0       ??_V@YAXPEAX@Z             000000018004bab0 f   LIBCMTD:delete2.obj
 0001:0004aad0       ??_U@YAPEAX_K@Z            000000018004bad0 f   LIBCMTD:new2.obj
 0001:0004ab00       _fpclass                   000000018004bb00 f   LIBCMTD:ieeemisc.obj
 0001:0004acc0       _fpclassf                  000000018004bcc0 f   LIBCMTD:ieeemisc.obj
 0001:0004adf0       _isnan                     000000018004bdf0 f   LIBCMTD:ieeemisc.obj
 0001:0004ae50       _isnanf                    000000018004be50 f   LIBCMTD:ieeemisc.obj
 0001:0004aea0       _nextafter                 000000018004bea0 f   LIBCMTD:ieeemisc.obj
 0001:0004b2e0       _nextafterf                000000018004c2e0 f   LIBCMTD:ieeemisc.obj
 0001:0004b640       _scalb                     000000018004c640 f   LIBCMTD:ieeemisc.obj
 0001:0004bab0       _scalbf                    000000018004cab0 f   LIBCMTD:ieeemisc.obj
 0001:0004be30       __chkstk                   000000018004ce30 f   LIBCMTD:chkstk.obj
 0001:0004be30       _alloca_probe              000000018004ce30 f   LIBCMTD:chkstk.obj
 0001:0004be80       fabs                       000000018004ce80 f   LIBCMTD:fabs.obj
 0001:0004bf90       powf                       000000018004cf90 f   LIBCMTD:powf.obj
 0001:0004cb20       ??0type_info@@AEAA@AEBV0@@Z 000000018004db20 f   LIBCMTD:typinfo.obj
 0001:0004cb40       ??1type_info@@UEAA@XZ      000000018004db40 f   LIBCMTD:typinfo.obj
 0001:0004cb70       ??4type_info@@AEAAAEAV0@AEBV0@@Z 000000018004db70 f   LIBCMTD:typinfo.obj
 0001:0004cb80       ??8type_info@@QEBA_NAEBV0@@Z 000000018004db80 f   LIBCMTD:typinfo.obj
 0001:0004cbd0       ??9type_info@@QEBA_NAEBV0@@Z 000000018004dbd0 f   LIBCMTD:typinfo.obj
 0001:0004cc20       ??_Etype_info@@UEAAPEAXI@Z 000000018004dc20 f i LIBCMTD:typinfo.obj
 0001:0004cc20       ??_Gtype_info@@UEAAPEAXI@Z 000000018004dc20 f i LIBCMTD:typinfo.obj
 0001:0004cc60       ?_name_internal_method@type_info@@QEBAPEBDPEAU__type_info_node@@@Z 000000018004dc60 f   LIBCMTD:typinfo.obj
 0001:0004cc90       ?_type_info_dtor_internal_method@type_info@@QEAAXXZ 000000018004dc90 f   LIBCMTD:typinfo.obj
 0001:0004ccb0       ?before@type_info@@QEBA_NAEBV1@@Z 000000018004dcb0 f   LIBCMTD:typinfo.obj
 0001:0004cd00       ?name@type_info@@QEBAPEBDPEAU__type_info_node@@@Z 000000018004dd00 f   LIBCMTD:typinfo.obj
 0001:0004cd30       ?raw_name@type_info@@QEBAPEBDXZ 000000018004dd30 f   LIBCMTD:typinfo.obj
 0001:0004cd40       __clean_type_info_names    000000018004dd40 f   LIBCMTD:tncleanup.obj
 0001:0004cd60       sqrtf                      000000018004dd60 f   LIBCMTD:sqrtf.obj
 0001:0004cee0       ??3@YAXPEAX@Z              000000018004dee0 f   LIBCMTD:dbgdel.obj
 0001:0004cfb0       _get_printf_count_output   000000018004dfb0 f   LIBCMTD:printf.obj
 0001:0004cfe0       _printf_l                  000000018004dfe0 f   LIBCMTD:printf.obj
 0001:0004d020       _printf_p                  000000018004e020 f   LIBCMTD:printf.obj
 0001:0004d060       _printf_p_l                000000018004e060 f   LIBCMTD:printf.obj
 0001:0004d0a0       _printf_s_l                000000018004e0a0 f   LIBCMTD:printf.obj
 0001:0004d0e0       _set_printf_count_output   000000018004e0e0 f   LIBCMTD:printf.obj
 0001:0004d150       printf                     000000018004e150 f   LIBCMTD:printf.obj
 0001:0004d2d0       printf_s                   000000018004e2d0 f   LIBCMTD:printf.obj
 0001:0004d310       cosf                       000000018004e310 f   LIBCMTD:cosf.obj
 0001:0004d810       sinf                       000000018004e810 f   LIBCMTD:sinf.obj
 0001:0004def0       memcpy                     000000018004eef0 f   LIBCMTD:memcpy.obj
 0001:0004def0       memmove                    000000018004eef0 f   LIBCMTD:memcpy.obj
 0001:0004e470       memset                     000000018004f470 f   LIBCMTD:memset.obj
 0001:0004e6a0       _get_purecall_handler      000000018004f6a0 f   LIBCMTD:purevirt.obj
 0001:0004e6c0       _purecall                  000000018004f6c0 f   LIBCMTD:purevirt.obj
 0001:0004e710       _set_purecall_handler      000000018004f710 f   LIBCMTD:purevirt.obj
 0001:0004e750       atan2f                     000000018004f750 f   LIBCMTD:atan2f.obj
 0001:0004f370       floorf                     0000000180050370 f   LIBCMTD:floorf.obj
 0001:0004f520       _CRT_INIT                  0000000180050520 f   LIBCMTD:dllcrt0.obj
 0001:0004f740       _DllMainCRTStartup         0000000180050740 f   LIBCMTD:dllcrt0.obj
 0001:0004f8e0       __DllXcptFilter            00000001800508e0 f   LIBCMTD:dllcrt0.obj
 0001:0004f930       __isa_available_init       0000000180050930 f   LIBCMTD:cpu_disp.obj
 0001:0004fc70       ?_RTC_GetErrorFunc@@YAP6AHHPEBDH00ZZPEBX@Z 0000000180050c70 f   LIBCMTD:userapi.obj
 0001:0004fc80       ?_RTC_GetErrorFuncW@@YAP6AHHPEB_WH00ZZPEBX@Z 0000000180050c80 f   LIBCMTD:userapi.obj
 0001:0004fc90       _RTC_GetErrDesc            0000000180050c90 f   LIBCMTD:userapi.obj
 0001:0004fcb0       _RTC_NumErrors             0000000180050cb0 f   LIBCMTD:userapi.obj
 0001:0004fcc0       _RTC_SetErrorFunc          0000000180050cc0 f   LIBCMTD:userapi.obj
 0001:0004fce0       _RTC_SetErrorFuncW         0000000180050ce0 f   LIBCMTD:userapi.obj
 0001:0004fd00       _RTC_SetErrorType          0000000180050d00 f   LIBCMTD:userapi.obj
 0001:0004fd20       _CRT_RTC_INIT              0000000180050d20 f   LIBCMTD:rtcmd.obj
 0001:0004fd40       _CRT_RTC_INITW             0000000180050d40 f   LIBCMTD:rtcmd.obj
 0001:0004fd60       ??0_LocaleUpdate@@QEAA@PEAUlocaleinfo_struct@@@Z 0000000180050d60 f i LIBCMTD:cvt.obj
 0001:0004fea0       ??1_LocaleUpdate@@QEAA@XZ  0000000180050ea0 f i LIBCMTD:cvt.obj
 0001:0004fee0       ?GetLocaleT@_LocaleUpdate@@QEAAPEAUlocaleinfo_struct@@XZ 0000000180050ee0 f i LIBCMTD:cvt.obj
 0001:0004fef0       ?strrchr@@YAPEADPEADH@Z    0000000180050ef0 f i LIBCMTD:cvt.obj
 0001:0004ff10       _cfltcvt                   0000000180050f10 f   LIBCMTD:cvt.obj
 0001:0004ff60       _cfltcvt_l                 0000000180050f60 f   LIBCMTD:cvt.obj
 0001:00050080       _cftoa                     0000000180051080 f   LIBCMTD:cvt.obj
 0001:000500d0       _cftoa_l                   00000001800510d0 f   LIBCMTD:cvt.obj
 0001:00050bd0       _cftoe                     0000000180051bd0 f   LIBCMTD:cvt.obj
 0001:000511f0       _cftoe_l                   00000001800521f0 f   LIBCMTD:cvt.obj
 0001:00051530       _cftof                     0000000180052530 f   LIBCMTD:cvt.obj
 0001:00051930       _cftof_l                   0000000180052930 f   LIBCMTD:cvt.obj
 0001:00051c10       _cftog                     0000000180052c10 f   LIBCMTD:cvt.obj
 0001:00051c60       _cftog_l                   0000000180052c60 f   LIBCMTD:cvt.obj
 0001:00052020       _cropzeros                 0000000180053020 f   LIBCMTD:cvt.obj
 0001:00052040       _cropzeros_l               0000000180053040 f   LIBCMTD:cvt.obj
 0001:000521c0       _fassign                   00000001800531c0 f   LIBCMTD:cvt.obj
 0001:000521f0       _fassign_l                 00000001800531f0 f   LIBCMTD:cvt.obj
 0001:00052260       _forcdecpt                 0000000180053260 f   LIBCMTD:cvt.obj
 0001:00052280       _forcdecpt_l               0000000180053280 f   LIBCMTD:cvt.obj
 0001:00052380       _invoke_watson_if_error    0000000180053380 f i LIBCMTD:cvt.obj
 0001:000523d0       _positive                  00000001800533d0 f   LIBCMTD:cvt.obj
 0001:00052460       _initp_misc_cfltcvt_tab    0000000180053460 f   LIBCMTD:cmiscdat.obj
 0001:000524b0       ??0bad_alloc@std@@QEAA@AEBV01@@Z 00000001800534b0 f i LIBCMTD:new.obj
 0001:000524f0       ??0bad_alloc@std@@QEAA@XZ  00000001800534f0 f i LIBCMTD:new.obj
 0001:00052540       ??1bad_alloc@std@@UEAA@XZ  0000000180053540 f i LIBCMTD:new.obj
 0001:00052570       ??2@YAPEAX_K@Z             0000000180053570 f   LIBCMTD:new.obj
 0001:000525d0       ??_Ebad_alloc@std@@UEAAPEAXI@Z 00000001800535d0 f i LIBCMTD:new.obj
 0001:000525d0       ??_Gbad_alloc@std@@UEAAPEAXI@Z 00000001800535d0 f i LIBCMTD:new.obj
 0001:000527e0       _handle_error              00000001800537e0 f   LIBCMTD:libm_error.obj
 0001:00052960       _handle_errorf             0000000180053960 f   LIBCMTD:libm_error.obj
 0001:00052ae0       _errcode                   0000000180053ae0 f   LIBCMTD:fpexcept.obj
 0001:00052b60       _except1                   0000000180053b60 f   LIBCMTD:fpexcept.obj
 0001:00052ca0       _except2                   0000000180053ca0 f   LIBCMTD:fpexcept.obj
 0001:00052e60       _handle_exc                0000000180053e60 f   LIBCMTD:fpexcept.obj
 0001:000532c0       _handle_qnan1              00000001800542c0 f   LIBCMTD:fpexcept.obj
 0001:00053340       _handle_qnan2              0000000180054340 f   LIBCMTD:fpexcept.obj
 0001:000533d0       _raise_exc                 00000001800543d0 f   LIBCMTD:fpexcept.obj
 0001:00053430       _raise_exc_ex              0000000180054430 f   LIBCMTD:fpexcept.obj
 0001:00053ab0       _raise_excf                0000000180054ab0 f   LIBCMTD:fpexcept.obj
 0001:00053b10       _set_errno_from_matherr    0000000180054b10 f   LIBCMTD:fpexcept.obj
 0001:00053b60       _umatherr                  0000000180054b60 f   LIBCMTD:fpexcept.obj
 0001:00053c30       _add_exp                   0000000180054c30 f   LIBCMTD:util.obj
 0001:00053c70       _decomp                    0000000180054c70 f   LIBCMTD:util.obj
 0001:00053dc0       _get_exp                   0000000180054dc0 f   LIBCMTD:util.obj
 0001:00053e00       _set_bexp                  0000000180054e00 f   LIBCMTD:util.obj
 0001:00053e40       _set_exp                   0000000180054e40 f   LIBCMTD:util.obj
 0001:00053e90       _sptype                    0000000180054e90 f   LIBCMTD:util.obj
 0001:00053f10       _clrfp                     0000000180054f10 f   LIBCMTD:fpctrl.obj
 0001:00053f40       _ctrlfp                    0000000180054f40 f   LIBCMTD:fpctrl.obj
 0001:00053ff0       _set_statfp                0000000180054ff0 f   LIBCMTD:fpctrl.obj
 0001:00054030       _statfp                    0000000180055030 f   LIBCMTD:fpctrl.obj
 0001:00054060       _pow_special               0000000180055060 f   LIBCMTD:pow_special.obj
 0001:000542a0       _powf_special              00000001800552a0 f   LIBCMTD:pow_special.obj
 0001:000545a0       __fma3_lib_init            00000001800555a0 f   LIBCMTD:fma3_available.obj
 0001:00054620       _set_FMA3_enable           0000000180055620 f   LIBCMTD:fma3_available.obj
 0001:00054640       ?_Name_base@type_info@@CAPEBDPEBV1@PEAU__type_info_node@@@Z 0000000180055640 f   LIBCMTD:typname.obj
 0001:00054810       ?_Name_base_internal@type_info@@CAPEBDPEBV1@PEAU__type_info_node@@@Z 0000000180055810 f   LIBCMTD:typname.obj
 0001:00054a10       ?_Type_info_dtor@type_info@@CAXPEAV1@@Z 0000000180055a10 f   LIBCMTD:typname.obj
 0001:00054b20       ?_Type_info_dtor_internal@type_info@@CAXPEAV1@@Z 0000000180055b20 f   LIBCMTD:typname.obj
 0001:00054c30       __clean_type_info_names_internal 0000000180055c30 f   LIBCMTD:typname.obj
 0001:00054cb0       __unDNameHelper            0000000180055cb0 f   LIBCMTD:typname.obj
 0001:00054d20       _lock                      0000000180055d20 f   LIBCMTD:mlock.obj
 0001:00054d80       _lockerr_exit              0000000180055d80 f   LIBCMTD:mlock.obj
 0001:00054db0       _mtdeletelocks             0000000180055db0 f   LIBCMTD:mlock.obj
 0001:00054ed0       _mtinitlocknum             0000000180055ed0 f   LIBCMTD:mlock.obj
 0001:00054fd0       _mtinitlocks               0000000180055fd0 f   LIBCMTD:mlock.obj
 0001:00055070       _unlock                    0000000180056070 f   LIBCMTD:mlock.obj
 0001:000550a0       ?_CrtDbgReportW@@YAHHPEBGH00ZZ 00000001800560a0 f   LIBCMTD:dbgrptw.obj
 0001:00055120       _CrtDbgReportW             0000000180056120 f   LIBCMTD:dbgrptw.obj
 0001:000551a0       _CrtDbgReportWV            00000001800561a0 f i LIBCMTD:dbgrptw.obj
 0001:00055200       _CrtSetReportHookW2        0000000180056200 f   LIBCMTD:dbgrptw.obj
 0001:00055610       __crtMessageWindowW        0000000180056610 f   LIBCMTD:dbgrptw.obj
 0001:00055c90       _invoke_watson_if_oneof    0000000180056c90 f i LIBCMTD:dbgrptw.obj
 0001:00056230       _CrtCheckMemory            0000000180057230 f   LIBCMTD:dbgheap.obj
 0001:000567d0       _CrtDoForAllClientObjects  00000001800577d0 f   LIBCMTD:dbgheap.obj
 0001:00056900       _CrtDumpMemoryLeaks        0000000180057900 f   LIBCMTD:dbgheap.obj
 0001:000569c0       _CrtGetAllocHook           00000001800579c0 f   LIBCMTD:dbgheap.obj
 0001:000569d0       _CrtGetCheckCount          00000001800579d0 f   LIBCMTD:dbgheap.obj
 0001:000569e0       _CrtGetDumpClient          00000001800579e0 f   LIBCMTD:dbgheap.obj
 0001:000569f0       _CrtIsMemoryBlock          00000001800579f0 f   LIBCMTD:dbgheap.obj
 0001:00056b70       _CrtIsValidHeapPointer     0000000180057b70 f   LIBCMTD:dbgheap.obj
 0001:00056bd0       _CrtIsValidPointer         0000000180057bd0 f   LIBCMTD:dbgheap.obj
 0001:00056c10       _CrtMemCheckpoint          0000000180057c10 f   LIBCMTD:dbgheap.obj
 0001:00056ea0       _CrtMemDifference          0000000180057ea0 f   LIBCMTD:dbgheap.obj
 0001:000571d0       _CrtMemDumpAllObjectsSince 00000001800581d0 f   LIBCMTD:dbgheap.obj
 0001:00057220       _CrtMemDumpStatistics      0000000180058220 f   LIBCMTD:dbgheap.obj
 0001:000573b0       _CrtReportBlockType        00000001800583b0 f   LIBCMTD:dbgheap.obj
 0001:000573f0       _CrtSetAllocHook           00000001800583f0 f   LIBCMTD:dbgheap.obj
 0001:00057420       _CrtSetBreakAlloc          0000000180058420 f   LIBCMTD:dbgheap.obj
 0001:00057450       _CrtSetCheckCount          0000000180058450 f   LIBCMTD:dbgheap.obj
 0001:00057470       _CrtSetDbgBlockType        0000000180058470 f   LIBCMTD:dbgheap.obj
 0001:00057540       _CrtSetDbgFlag             0000000180058540 f   LIBCMTD:dbgheap.obj
 0001:00057680       _CrtSetDebugFillThreshold  0000000180058680 f   LIBCMTD:dbgheap.obj
 0001:000576b0       _CrtSetDumpClient          00000001800586b0 f   LIBCMTD:dbgheap.obj
 0001:000576e0       _aligned_free              00000001800586e0 f   LIBCMTD:dbgheap.obj
 0001:00057700       _aligned_free_dbg          0000000180058700 f   LIBCMTD:dbgheap.obj
 0001:000577f0       _aligned_malloc            00000001800587f0 f   LIBCMTD:dbgheap.obj
 0001:00057820       _aligned_malloc_dbg        0000000180058820 f   LIBCMTD:dbgheap.obj
 0001:00057860       _aligned_msize             0000000180058860 f   LIBCMTD:dbgheap.obj
 0001:00057890       _aligned_msize_dbg         0000000180058890 f   LIBCMTD:dbgheap.obj
 0001:00057a50       _aligned_offset_malloc     0000000180058a50 f   LIBCMTD:dbgheap.obj
 0001:00057a90       _aligned_offset_malloc_dbg 0000000180058a90 f   LIBCMTD:dbgheap.obj
 0001:00057d70       _aligned_offset_realloc    0000000180058d70 f   LIBCMTD:dbgheap.obj
 0001:00057dc0       _aligned_offset_realloc_dbg 0000000180058dc0 f   LIBCMTD:dbgheap.obj
 0001:00058260       _aligned_offset_recalloc   0000000180059260 f   LIBCMTD:dbgheap.obj
 0001:000582c0       _aligned_offset_recalloc_dbg 00000001800592c0 f   LIBCMTD:dbgheap.obj
 0001:000583e0       _aligned_realloc           00000001800593e0 f   LIBCMTD:dbgheap.obj
 0001:00058420       _aligned_realloc_dbg       0000000180059420 f   LIBCMTD:dbgheap.obj
 0001:00058470       _aligned_recalloc          0000000180059470 f   LIBCMTD:dbgheap.obj
 0001:000584c0       _aligned_recalloc_dbg      00000001800594c0 f   LIBCMTD:dbgheap.obj
 0001:00058520       _calloc_dbg                0000000180059520 f   LIBCMTD:dbgheap.obj
 0001:000585a0       _calloc_dbg_impl           00000001800595a0 f   LIBCMTD:dbgheap.obj
 0001:00058650       _expand                    0000000180059650 f   LIBCMTD:dbgheap.obj
 0001:00058690       _expand_dbg                0000000180059690 f   LIBCMTD:dbgheap.obj
 0001:000587c0       _free_dbg                  00000001800597c0 f   LIBCMTD:dbgheap.obj
 0001:00058800       _free_dbg_nolock           0000000180059800 f   LIBCMTD:dbgheap.obj
 0001:00058ef0       _free_nolock               0000000180059ef0 f   LIBCMTD:dbgheap.obj
 0001:00058f10       _heap_alloc                0000000180059f10 f   LIBCMTD:dbgheap.obj
 0001:00058f40       _heap_alloc_dbg            0000000180059f40 f   LIBCMTD:dbgheap.obj
 0001:00059460       _malloc_dbg                000000018005a460 f   LIBCMTD:dbgheap.obj
 0001:000594b0       _msize                     000000018005a4b0 f   LIBCMTD:dbgheap.obj
 0001:000594d0       _msize_dbg                 000000018005a4d0 f   LIBCMTD:dbgheap.obj
 0001:00059720       _nh_malloc                 000000018005a720 f   LIBCMTD:dbgheap.obj
 0001:00059760       _nh_malloc_dbg             000000018005a760 f   LIBCMTD:dbgheap.obj
 0001:00059af0       _realloc_dbg               000000018005aaf0 f   LIBCMTD:dbgheap.obj
 0001:00059b60       _recalloc                  000000018005ab60 f   LIBCMTD:dbgheap.obj
 0001:00059bb0       _recalloc_dbg              000000018005abb0 f   LIBCMTD:dbgheap.obj
 0001:0005a5b0       __C_specific_handler       000000018005b5b0 f   LIBCMTD:chandler.obj
 0001:0005a9d0       ?_invalid_parameter@@YAXPEBG00I_K@Z 000000018005b9d0 f   LIBCMTD:invarg.obj
 0001:0005aa10       ?_invoke_watson@@YAXPEBG00I_K@Z 000000018005ba10 f   LIBCMTD:invarg.obj
 0001:0005aa50       _call_reportfault          000000018005ba50 f   LIBCMTD:invarg.obj
 0001:0005ab80       _get_invalid_parameter_handler 000000018005bb80 f   LIBCMTD:invarg.obj
 0001:0005abc0       _initp_misc_invarg         000000018005bbc0 f   LIBCMTD:invarg.obj
 0001:0005abe0       _invalid_parameter         000000018005bbe0 f   LIBCMTD:invarg.obj
 0001:0005ac70       _invoke_watson             000000018005bc70 f   LIBCMTD:invarg.obj
 0001:0005acd0       _set_invalid_parameter_handler 000000018005bcd0 f   LIBCMTD:invarg.obj
 0001:0005ad30       __initstdio                000000018005bd30 f   LIBCMTD:_file.obj
 0001:0005ae30       __endstdio                 000000018005be30 f   LIBCMTD:_file.obj
 0001:0005ae70       __iob_func                 000000018005be70 f   LIBCMTD:_file.obj
 0001:0005ae80       _lock_file                 000000018005be80 f   LIBCMTD:_file.obj
 0001:0005af10       _lock_file2                000000018005bf10 f   LIBCMTD:_file.obj
 0001:0005af60       _unlock_file               000000018005bf60 f   LIBCMTD:_file.obj
 0001:0005aff0       _unlock_file2              000000018005bff0 f   LIBCMTD:_file.obj
 0001:0005b040       _vprintf_l                 000000018005c040 f   LIBCMTD:vprintf.obj
 0001:0005b080       _vprintf_p                 000000018005c080 f   LIBCMTD:vprintf.obj
 0001:0005b0b0       _vprintf_p_l               000000018005c0b0 f   LIBCMTD:vprintf.obj
 0001:0005b0f0       _vprintf_s_l               000000018005c0f0 f   LIBCMTD:vprintf.obj
 0001:0005b130       vprintf                    000000018005c130 f   LIBCMTD:vprintf.obj
 0001:0005b160       vprintf_helper             000000018005c160 f   LIBCMTD:vprintf.obj
 0001:0005b2a0       vprintf_s                  000000018005c2a0 f   LIBCMTD:vprintf.obj
 0001:0005b2d0       _ftbuf                     000000018005c2d0 f   LIBCMTD:_sftbuf.obj
 0001:0005b390       _stbuf                     000000018005c390 f   LIBCMTD:_sftbuf.obj
 0001:0005b570       _output_l                  000000018005c570 f   LIBCMTD:output.obj
 0001:0005cd70       get_int64_arg              000000018005dd70 f i LIBCMTD:output.obj
 0001:0005cde0       get_int_arg                000000018005dde0 f i LIBCMTD:output.obj
 0001:0005ce40       get_short_arg              000000018005de40 f i LIBCMTD:output.obj
 0001:0005d0e0       __doserrno                 000000018005e0e0 f   LIBCMTD:dosmap.obj
 0001:0005d110       _dosmaperr                 000000018005e110 f   LIBCMTD:dosmap.obj
 0001:0005d140       _errno                     000000018005e140 f   LIBCMTD:dosmap.obj
 0001:0005d170       _get_doserrno              000000018005e170 f   LIBCMTD:dosmap.obj
 0001:0005d230       _get_errno                 000000018005e230 f   LIBCMTD:dosmap.obj
 0001:0005d2f0       _get_errno_from_oserr      000000018005e2f0 f   LIBCMTD:dosmap.obj
 0001:0005d380       _set_doserrno              000000018005e380 f   LIBCMTD:dosmap.obj
 0001:0005d3c0       _set_errno                 000000018005e3c0 f   LIBCMTD:dosmap.obj
 0001:0005d400       __remainder_piby2d2f_forAsm 000000018005e400 f   LIBCMTD:remainder_piby2f_forAsm.obj
 0001:0005d550       __remainder_piby2_fma3     000000018005e550 f   LIBCMTD:remainder_piby2_forFMA3.obj
 0001:0005d740       __remainder_piby2_fma3_bdl 000000018005e740 f   LIBCMTD:remainder_piby2_forFMA3.obj
 0001:0005d7c0       _cos_special               000000018005e7c0 f   LIBCMTD:sincos_special.obj
 0001:0005d7f0       _cosf_special              000000018005e7f0 f   LIBCMTD:sincos_special.obj
 0001:0005d820       _sin_special               000000018005e820 f   LIBCMTD:sincos_special.obj
 0001:0005d850       _sincos_special            000000018005e850 f   LIBCMTD:sincos_special.obj
 0001:0005d9f0       _sincosf_special           000000018005e9f0 f   LIBCMTD:sincos_special.obj
 0001:0005dbf0       _sinf_special              000000018005ebf0 f   LIBCMTD:sincos_special.obj
 0001:0005dc20       _tan_special               000000018005ec20 f   LIBCMTD:sincos_special.obj
 0001:0005dc50       _tanf_special              000000018005ec50 f   LIBCMTD:sincos_special.obj
 0001:0005dc80       __remainder_piby2d2f_forC  000000018005ec80 f   LIBCMTD:remainder_piby2f_forC.obj
 0001:0005de10       _FF_MSGBANNER              000000018005ee10 f   LIBCMTD:crt0msg.obj
 0001:0005de60       _GET_RTERRMSG              000000018005ee60 f   LIBCMTD:crt0msg.obj
 0001:0005dec0       _NMSG_WRITE                000000018005eec0 f   LIBCMTD:crt0msg.obj
 0001:0005e2f0       _set_abort_behavior        000000018005f2f0 f   LIBCMTD:abort.obj
 0001:0005e330       abort                      000000018005f330 f   LIBCMTD:abort.obj
 0001:0005e3c0       __getlocaleinfo            000000018005f3c0 f   LIBCMTD:inithelp.obj
 0001:0005e740       _initp_misc_purevirt       000000018005f740 f   LIBCMTD:inithelp.obj
 0001:0005e760       _XcptFilter                000000018005f760 f   LIBCMTD:winxfltr.obj
 0001:0005ea00       __CppXcptFilter            000000018005fa00 f   LIBCMTD:winxfltr.obj
 0001:0005eac0       __get_flsindex             000000018005fac0 f   LIBCMTD:tidtable.obj
 0001:0005ead0       __threadhandle             000000018005fad0 f   LIBCMTD:tidtable.obj
 0001:0005eae0       __threadid                 000000018005fae0 f   LIBCMTD:tidtable.obj
 0001:0005eaf0       _freefls                   000000018005faf0 f   LIBCMTD:tidtable.obj
 0001:0005ed00       _freeptd                   000000018005fd00 f   LIBCMTD:tidtable.obj
 0001:0005ed50       _getptd                    000000018005fd50 f   LIBCMTD:tidtable.obj
 0001:0005ed80       _getptd_noexit             000000018005fd80 f   LIBCMTD:tidtable.obj
 0001:0005ee50       _initptd                   000000018005fe50 f   LIBCMTD:tidtable.obj
 0001:0005ef80       _mtinit                    000000018005ff80 f   LIBCMTD:tidtable.obj
 0001:0005f040       _mtterm                    0000000180060040 f   LIBCMTD:tidtable.obj
 0001:0005f070       __copy_path_to_wide_string 0000000180060070 f   LIBCMTD:crt0dat.obj
 0001:0005f2f0       __copy_to_char             00000001800602f0 f   LIBCMTD:crt0dat.obj
 0001:0005f590       __crtCorExitProcess        0000000180060590 f   LIBCMTD:crt0dat.obj
 0001:0005f5e0       __crtExitProcess           00000001800605e0 f   LIBCMTD:crt0dat.obj
 0001:0005f600       __freeCrtMemory            0000000180060600 f   LIBCMTD:crt0dat.obj
 0001:0005f830       _amsg_exit                 0000000180060830 f   LIBCMTD:crt0dat.obj
 0001:0005f860       _c_exit                    0000000180060860 f   LIBCMTD:crt0dat.obj
 0001:0005f880       _cexit                     0000000180060880 f   LIBCMTD:crt0dat.obj
 0001:0005f8a0       _cinit                     00000001800608a0 f   LIBCMTD:crt0dat.obj
 0001:0005f950       _exit                      0000000180060950 f   LIBCMTD:crt0dat.obj
 0001:0005f970       _exit_app                  0000000180060970 f   LIBCMTD:crt0dat.obj
 0001:0005f990       _get_pgmptr                0000000180060990 f   LIBCMTD:crt0dat.obj
 0001:0005fb00       _get_wpgmptr               0000000180060b00 f   LIBCMTD:crt0dat.obj
 0001:0005fc70       _init_pointers             0000000180060c70 f   LIBCMTD:crt0dat.obj
 0001:0005fd20       _initterm_e                0000000180060d20 f   LIBCMTD:crt0dat.obj
 0001:0005fd80       _lockexit                  0000000180060d80 f   LIBCMTD:crt0dat.obj
 0001:0005fda0       _unlockexit                0000000180060da0 f   LIBCMTD:crt0dat.obj
 0001:0005ffd0       exit                       0000000180060fd0 f   LIBCMTD:crt0dat.obj
 0001:0005fff0       _get_heap_handle           0000000180060ff0 f   LIBCMTD:heapinit.obj
 0001:00060050       _heap_init                 0000000180061050 f   LIBCMTD:heapinit.obj
 0001:00060080       _heap_term                 0000000180061080 f   LIBCMTD:heapinit.obj
 0001:00060090       _ioinit                    0000000180061090 f   LIBCMTD:ioinit.obj
 0001:00060670       _ioterm                    0000000180061670 f   LIBCMTD:ioinit.obj
 0001:00060750       _set_pgmptr                0000000180061750 f i LIBCMTD:stdargv.obj
 0001:00060770       _setargv                   0000000180061770 f   LIBCMTD:stdargv.obj
 0001:00060dd0       _setenvp                   0000000180061dd0 f   LIBCMTD:stdenvp.obj
 0001:00060fe0       __security_init_cookie     0000000180061fe0 f   LIBCMTD:gs_support.obj
 0001:00061100       DllMain                    0000000180062100 f   LIBCMTD:dllmain.obj
 0001:00061120       __crtGetEnvironmentStringsA 0000000180062120 f   LIBCMTD:a_env.obj
 0001:00061300       __crtCaptureCurrentContext 0000000180062300 f   LIBCMTD:winapisupp.obj
 0001:000613a0       __crtCapturePreviousContext 00000001800623a0 f   LIBCMTD:winapisupp.obj
 0001:00061460       __crtCloseThreadpoolTimer  0000000180062460 f   LIBCMTD:winapisupp.obj
 0001:000614b0       __crtCloseThreadpoolWait   00000001800624b0 f   LIBCMTD:winapisupp.obj
 0001:00061500       __crtCreateEventExW        0000000180062500 f   LIBCMTD:winapisupp.obj
 0001:00061590       __crtCreateSemaphoreExW    0000000180062590 f   LIBCMTD:winapisupp.obj
 0001:00061620       __crtCreateSymbolicLinkW   0000000180062620 f   LIBCMTD:winapisupp.obj
 0001:00061690       __crtCreateThreadpoolTimer 0000000180062690 f   LIBCMTD:winapisupp.obj
 0001:000616f0       __crtCreateThreadpoolWait  00000001800626f0 f   LIBCMTD:winapisupp.obj
 0001:00061750       __crtFlsAlloc              0000000180062750 f   LIBCMTD:winapisupp.obj
 0001:000617a0       __crtFlsFree               00000001800627a0 f   LIBCMTD:winapisupp.obj
 0001:000617f0       __crtFlsGetValue           00000001800627f0 f   LIBCMTD:winapisupp.obj
 0001:00061840       __crtFlsSetValue           0000000180062840 f   LIBCMTD:winapisupp.obj
 0001:000618a0       __crtFlushProcessWriteBuffers 00000001800628a0 f   LIBCMTD:winapisupp.obj
 0001:000618e0       __crtFreeLibraryWhenCallbackReturns 00000001800628e0 f   LIBCMTD:winapisupp.obj
 0001:00061930       __crtGetCurrentProcessorNumber 0000000180062930 f   LIBCMTD:winapisupp.obj
 0001:00061970       __crtGetFileInformationByHandleEx 0000000180062970 f   LIBCMTD:winapisupp.obj
 0001:000619e0       __crtGetLogicalProcessorInformation 00000001800629e0 f   LIBCMTD:winapisupp.obj
 0001:00061a40       __crtGetShowWindowMode     0000000180062a40 f   LIBCMTD:winapisupp.obj
 0001:00061a80       __crtGetTickCount64        0000000180062a80 f   LIBCMTD:winapisupp.obj
 0001:00061ad0       __crtInitializeCriticalSectionEx 0000000180062ad0 f   LIBCMTD:winapisupp.obj
 0001:00061b40       __crtIsPackagedApp         0000000180062b40 f   LIBCMTD:winapisupp.obj
 0001:00061b80       __crtLoadWinApiPointers    0000000180062b80 f   LIBCMTD:winapisupp.obj
 0001:00062170       __crtSetFileInformationByHandle 0000000180063170 f   LIBCMTD:winapisupp.obj
 0001:000621e0       __crtSetThreadStackGuarantee 00000001800631e0 f   LIBCMTD:winapisupp.obj
 0001:00062230       __crtSetThreadpoolTimer    0000000180063230 f   LIBCMTD:winapisupp.obj
 0001:00062290       __crtSetThreadpoolWait     0000000180063290 f   LIBCMTD:winapisupp.obj
 0001:000622f0       __crtSetUnhandledExceptionFilter 00000001800632f0 f   LIBCMTD:winapisupp.obj
 0001:00062310       __crtSleep                 0000000180063310 f   LIBCMTD:winapisupp.obj
 0001:00062330       __crtTerminateProcess      0000000180063330 f   LIBCMTD:winapisupp.obj
 0001:00062350       __crtUnhandledException    0000000180063350 f   LIBCMTD:winapisupp.obj
 0001:00062380       __crtWaitForThreadpoolTimerCallbacks 0000000180063380 f   LIBCMTD:winapisupp.obj
 0001:000623d0       _RTC_Initialize            00000001800633d0 f   LIBCMTD:initsect.obj
 0001:00062410       _RTC_Terminate             0000000180063410 f   LIBCMTD:initsect.obj
 0001:00062450       __GSHandlerCheck           0000000180063450 f   LIBCMTD:gshandler.obj
 0001:00062490       __GSHandlerCheckCommon     0000000180063490 f   LIBCMTD:gshandler.obj
 0001:000625a0       __security_check_cookie    00000001800635a0 f   LIBCMTD:amdsecgs.obj
 0001:00062660       ?_RTC_AllocaFailure@@YAXPEAXPEAU_RTC_ALLOCA_NODE@@H@Z 0000000180063660 f   LIBCMTD:error.obj
 0001:00062820       ?_RTC_Failure@@YAXPEAXH@Z  0000000180063820 f   LIBCMTD:error.obj
 0001:00062870       ?_RTC_StackFailure@@YAXPEAXPEBD@Z 0000000180063870 f   LIBCMTD:error.obj
 0001:00062cd0       _RTC_UninitUse             0000000180063cd0 f   LIBCMTD:error.obj
 0001:00062df0       _CrtDbgReport              0000000180063df0 f   LIBCMTD:dbgrpt.obj
 0001:00062e70       _CrtDbgReportV             0000000180063e70 f i LIBCMTD:dbgrpt.obj
 0001:00062ed0       _CrtSetReportHook2         0000000180063ed0 f   LIBCMTD:dbgrpt.obj
 0001:000632e0       __crtMessageWindowA        00000001800642e0 f   LIBCMTD:dbgrpt.obj
 0001:00063960       __addlocaleref             0000000180064960 f   LIBCMTD:localref.obj
 0001:00063ab0       __freetlocinfo             0000000180064ab0 f   LIBCMTD:localref.obj
 0001:00063e60       __removelocaleref          0000000180064e60 f   LIBCMTD:localref.obj
 0001:00063fc0       __updatetlocinfo           0000000180064fc0 f   LIBCMTD:localref.obj
 0001:00064060       _updatetlocinfoEx_nolock   0000000180065060 f   LIBCMTD:localref.obj
 0001:00064100       __initmbctable             0000000180065100 f   LIBCMTD:mbctype.obj
 0001:00064790       __updatetmbcinfo           0000000180065790 f   LIBCMTD:mbctype.obj
 0001:000648a0       _getmbcp                   00000001800658a0 f   LIBCMTD:mbctype.obj
 0001:00064920       _setmbcp                   0000000180065920 f   LIBCMTD:mbctype.obj
 0001:00064c10       _setmbcp_nolock            0000000180065c10 f   LIBCMTD:mbctype.obj
 0001:00065060       __isascii                  0000000180066060 f i LIBCMTD:_ctype.obj
 0001:00065090       __iscsym                   0000000180066090 f i LIBCMTD:_ctype.obj
 0001:000650d0       __iscsymf                  00000001800660d0 f i LIBCMTD:_ctype.obj
 0001:00065110       __toascii                  0000000180066110 f i LIBCMTD:_ctype.obj
 0001:00065120       _isalnum_l                 0000000180066120 f i LIBCMTD:_ctype.obj
 0001:000651c0       _isalpha_l                 00000001800661c0 f i LIBCMTD:_ctype.obj
 0001:00065260       _isblank_l                 0000000180066260 f i LIBCMTD:_ctype.obj
 0001:00065320       _iscntrl_l                 0000000180066320 f i LIBCMTD:_ctype.obj
 0001:000653c0       _iscsym_l                  00000001800663c0 f i LIBCMTD:_ctype.obj
 0001:00065410       _iscsymf_l                 0000000180066410 f i LIBCMTD:_ctype.obj
 0001:00065460       _isdigit_l                 0000000180066460 f i LIBCMTD:_ctype.obj
 0001:00065500       _isgraph_l                 0000000180066500 f i LIBCMTD:_ctype.obj
 0001:000655a0       _islower_l                 00000001800665a0 f i LIBCMTD:_ctype.obj
 0001:00065640       _isprint_l                 0000000180066640 f i LIBCMTD:_ctype.obj
 0001:000656e0       _ispunct_l                 00000001800666e0 f i LIBCMTD:_ctype.obj
 0001:00065780       _isspace_l                 0000000180066780 f i LIBCMTD:_ctype.obj
 0001:00065820       _isupper_l                 0000000180066820 f i LIBCMTD:_ctype.obj
 0001:000658c0       _isxdigit_l                00000001800668c0 f i LIBCMTD:_ctype.obj
 0001:00065960       isalnum                    0000000180066960 f i LIBCMTD:_ctype.obj
 0001:000659a0       isalpha                    00000001800669a0 f i LIBCMTD:_ctype.obj
 0001:000659e0       isblank                    00000001800669e0 f i LIBCMTD:_ctype.obj
 0001:00065a30       iscntrl                    0000000180066a30 f i LIBCMTD:_ctype.obj
 0001:00065a70       isdigit                    0000000180066a70 f i LIBCMTD:_ctype.obj
 0001:00065ab0       isgraph                    0000000180066ab0 f i LIBCMTD:_ctype.obj
 0001:00065af0       islower                    0000000180066af0 f i LIBCMTD:_ctype.obj
 0001:00065b30       isprint                    0000000180066b30 f i LIBCMTD:_ctype.obj
 0001:00065b70       ispunct                    0000000180066b70 f i LIBCMTD:_ctype.obj
 0001:00065bb0       isspace                    0000000180066bb0 f i LIBCMTD:_ctype.obj
 0001:00065bf0       isupper                    0000000180066bf0 f i LIBCMTD:_ctype.obj
 0001:00065c30       isxdigit                   0000000180066c30 f i LIBCMTD:_ctype.obj
 0001:00065c70       _tolower                   0000000180066c70 f   LIBCMTD:tolower.obj
 0001:00065c80       _tolower_l                 0000000180066c80 f   LIBCMTD:tolower.obj
 0001:00065fe0       tolower                    0000000180066fe0 f   LIBCMTD:tolower.obj
 0001:00066030       strcpy_s                   0000000180067030 f   LIBCMTD:strcpy_s.obj
 0001:000664e0       strlen                     00000001800674e0 f   LIBCMTD:strlen.obj
 0001:00066590       strrchr                    0000000180067590 f   LIBCMTD:strrchr.obj
 0001:000669b0       _fptostr                   00000001800679b0 f   LIBCMTD:_fptostr.obj
 0001:00066e10       __crt_atoflt_l             0000000180067e10 f   LIBCMTD:atodbl.obj
 0001:00066fb0       _atodbl                    0000000180067fb0 f   LIBCMTD:atodbl.obj
 0001:00066fe0       _atodbl_l                  0000000180067fe0 f   LIBCMTD:atodbl.obj
 0001:00067160       _atoflt                    0000000180068160 f   LIBCMTD:atodbl.obj
 0001:00067190       _atoflt_l                  0000000180068190 f   LIBCMTD:atodbl.obj
 0001:000671c0       _atoldbl                   00000001800681c0 f   LIBCMTD:atodbl.obj
 0001:000671f0       _atoldbl_l                 00000001800681f0 f   LIBCMTD:atodbl.obj
 0001:00067370       __dtold                    0000000180068370 f   LIBCMTD:cfout.obj
 0001:00067520       _fltout2                   0000000180068520 f   LIBCMTD:cfout.obj
 0001:00067630       _get_output_format         0000000180068630 f   LIBCMTD:outputformat.obj
 0001:00067640       _set_output_format         0000000180068640 f   LIBCMTD:outputformat.obj
 0001:00067710       _fptrap                    0000000180068710 f   LIBCMTD:crt0fp.obj
 0001:00067730       malloc                     0000000180068730 f   LIBCMTD:dbgmalloc.obj
 0001:00067770       ??0__non_rtti_object@std@@QEAA@AEBV01@@Z 0000000180068770 f   LIBCMTD:stdexcpt.obj
 0001:000677b0       ??0__non_rtti_object@std@@QEAA@PEBD@Z 00000001800687b0 f   LIBCMTD:stdexcpt.obj
 0001:000677f0       ??0bad_cast@std@@QEAA@AEBV01@@Z 00000001800687f0 f   LIBCMTD:stdexcpt.obj
 0001:00067830       ??0bad_cast@std@@QEAA@PEBD@Z 0000000180068830 f   LIBCMTD:stdexcpt.obj
 0001:00067870       ??0bad_typeid@std@@QEAA@AEBV01@@Z 0000000180068870 f   LIBCMTD:stdexcpt.obj
 0001:000678b0       ??0bad_typeid@std@@QEAA@PEBD@Z 00000001800688b0 f   LIBCMTD:stdexcpt.obj
 0001:000678f0       ??0exception@std@@QEAA@AEBQEBD@Z 00000001800688f0 f   LIBCMTD:stdexcpt.obj
 0001:00067940       ??0exception@std@@QEAA@AEBQEBDH@Z 0000000180068940 f   LIBCMTD:stdexcpt.obj
 0001:00067980       ??0exception@std@@QEAA@AEBV01@@Z 0000000180068980 f   LIBCMTD:stdexcpt.obj
 0001:000679d0       ??0exception@std@@QEAA@XZ  00000001800689d0 f   LIBCMTD:stdexcpt.obj
 0001:00067a00       ??1__non_rtti_object@std@@UEAA@XZ 0000000180068a00 f   LIBCMTD:stdexcpt.obj
 0001:00067a30       ??1bad_cast@std@@UEAA@XZ   0000000180068a30 f   LIBCMTD:stdexcpt.obj
 0001:00067a60       ??1bad_typeid@std@@UEAA@XZ 0000000180068a60 f   LIBCMTD:stdexcpt.obj
 0001:00067a90       ??1exception@std@@UEAA@XZ  0000000180068a90 f   LIBCMTD:stdexcpt.obj
 0001:00067ac0       ??4exception@std@@QEAAAEAV01@AEBV01@@Z 0000000180068ac0 f   LIBCMTD:stdexcpt.obj
 0001:00067b30       ??_G__non_rtti_object@std@@UEAAPEAXI@Z 0000000180068b30 f i LIBCMTD:stdexcpt.obj
 0001:00067b30       ??_E__non_rtti_object@std@@UEAAPEAXI@Z 0000000180068b30 f i LIBCMTD:stdexcpt.obj
 0001:00067b70       ??_Gbad_cast@std@@UEAAPEAXI@Z 0000000180068b70 f i LIBCMTD:stdexcpt.obj
 0001:00067b70       ??_Ebad_cast@std@@UEAAPEAXI@Z 0000000180068b70 f i LIBCMTD:stdexcpt.obj
 0001:00067bb0       ??_Gbad_typeid@std@@UEAAPEAXI@Z 0000000180068bb0 f i LIBCMTD:stdexcpt.obj
 0001:00067bb0       ??_Ebad_typeid@std@@UEAAPEAXI@Z 0000000180068bb0 f i LIBCMTD:stdexcpt.obj
 0001:00067bf0       ??_Gexception@std@@UEAAPEAXI@Z 0000000180068bf0 f i LIBCMTD:stdexcpt.obj
 0001:00067bf0       ??_Eexception@std@@UEAAPEAXI@Z 0000000180068bf0 f i LIBCMTD:stdexcpt.obj
 0001:00067c30       ?_Copy_str@exception@std@@AEAAXPEBD@Z 0000000180068c30 f   LIBCMTD:stdexcpt.obj
 0001:00067ca0       ?_Tidy@exception@std@@AEAAXXZ 0000000180068ca0 f   LIBCMTD:stdexcpt.obj
 0001:00067ce0       ?what@exception@std@@UEBAPEBDXZ 0000000180068ce0 f   LIBCMTD:stdexcpt.obj
 0001:00067d20       ?_query_new_handler@@YAP6AH_K@ZXZ 0000000180068d20 f   LIBCMTD:handler.obj
 0001:00067d40       ?_set_new_handler@@YAP6AH_K@ZH@Z 0000000180068d40 f   LIBCMTD:handler.obj
 0001:00067da0       ?_set_new_handler@@YAP6AH_K@ZP6AH0@Z@Z 0000000180068da0 f   LIBCMTD:handler.obj
 0001:00067df0       _callnewh                  0000000180068df0 f   LIBCMTD:handler.obj
 0001:00067e30       _initp_heap_handler        0000000180068e30 f   LIBCMTD:handler.obj
 0001:00067e50       _CxxThrowException         0000000180068e50 f   LIBCMTD:throw.obj
 0001:00067f70       _matherr                   0000000180068f70 f   LIBCMTD:matherr.obj
 0001:00067f90       _get_fpsr                  0000000180068f90 f   LIBCMTD:fpsr.obj
 0001:00067fa0       _set_fpsr                  0000000180068fa0 f   LIBCMTD:fpsr.obj
 0001:00067faa       _fclrf                     0000000180068faa f   LIBCMTD:fpsr.obj
 0001:00067fbe       _frnd                      0000000180068fbe f   LIBCMTD:fpsr.obj
 0001:00067fe0       _heap_alloc_base           0000000180068fe0 f i LIBCMTD:malloc.obj
 0001:00068050       _malloc_base               0000000180069050 f   LIBCMTD:malloc.obj
 0001:000680f0       _free_base                 00000001800690f0 f   LIBCMTD:free.obj
 0001:00068150       ??0Block@_HeapManager@@QEAA@XZ 0000000180069150 f i LIBCMTD:undname.obj
 0001:00068170       ??0DName@@QEAA@AEAPEBDD@Z  0000000180069170 f   LIBCMTD:undname.obj
 0001:000684c0       ??0DName@@QEAA@AEBV0@@Z    00000001800694c0 f i LIBCMTD:undname.obj
 0001:000684f0       ??0DName@@QEAA@D@Z         00000001800694f0 f   LIBCMTD:undname.obj
 0001:000685f0       ??0DName@@QEAA@PEAV0@@Z    00000001800695f0 f   LIBCMTD:undname.obj
 0001:00068770       ??0DName@@QEAA@PEBD@Z      0000000180069770 f   LIBCMTD:undname.obj
 0001:00068880       ??0DName@@QEAA@W4DNameStatus@@@Z 0000000180069880 f   LIBCMTD:undname.obj
 0001:000689d0       ??0DName@@QEAA@XZ          00000001800699d0 f i LIBCMTD:undname.obj
 0001:00068aa0       ??0DName@@QEAA@_J@Z        0000000180069aa0 f   LIBCMTD:undname.obj
 0001:00068c60       ??0DName@@QEAA@_K@Z        0000000180069c60 f   LIBCMTD:undname.obj
 0001:00068de0       ??0DNameNode@@IEAA@XZ      0000000180069de0 f   LIBCMTD:undname.obj
 0001:00068e00       ??0DNameStatusNode@@AEAA@W4DNameStatus@@@Z 0000000180069e00 f   LIBCMTD:undname.obj
 0001:00068e70       ??0Replicator@@QEAA@XZ     0000000180069e70 f i LIBCMTD:undname.obj
 0001:00068e90       ??0UnDecorator@@QEAA@PEADPEBDHP6APEADJ@ZK@Z 0000000180069e90 f i LIBCMTD:undname.obj
 0001:00068f60       ??0charNode@@QEAA@D@Z      0000000180069f60 f   LIBCMTD:undname.obj
 0001:00068fa0       ??0pDNameNode@@QEAA@PEAVDName@@@Z 0000000180069fa0 f   LIBCMTD:undname.obj
 0001:00069020       ??0pairNode@@QEAA@PEAVDNameNode@@0@Z 000000018006a020 f   LIBCMTD:undname.obj
 0001:00069080       ??0pcharNode@@QEAA@PEBDH@Z 000000018006a080 f   LIBCMTD:undname.obj
 0001:00069150       ??2@YAPEAX_KAEAV_HeapManager@@H@Z 000000018006a150 f i LIBCMTD:undname.obj
 0001:00069180       ??4DName@@QEAAAEAV0@AEBV0@@Z 000000018006a180 f   LIBCMTD:undname.obj
 0001:000691b0       ??4DName@@QEAAAEAV0@D@Z    000000018006a1b0 f i LIBCMTD:undname.obj
 0001:000692b0       ??4DName@@QEAAAEAV0@PEAV0@@Z 000000018006a2b0 f   LIBCMTD:undname.obj
 0001:00069420       ??4DName@@QEAAAEAV0@PEBD@Z 000000018006a420 f   LIBCMTD:undname.obj
 0001:00069520       ??4DName@@QEAAAEAV0@W4DNameStatus@@@Z 000000018006a520 f   LIBCMTD:undname.obj
 0001:00069650       ??AReplicator@@QEBA?AVDName@@H@Z 000000018006a650 f   LIBCMTD:undname.obj
 0001:000696e0       ??BUnDecorator@@QEAAPEADXZ 000000018006a6e0 f i LIBCMTD:undname.obj
 0001:00069a10       ??H@YA?AVDName@@DAEBV0@@Z  000000018006aa10 f i LIBCMTD:undname.obj
 0001:00069a50       ??H@YA?AVDName@@PEBDAEBV0@@Z 000000018006aa50 f i LIBCMTD:undname.obj
 0001:00069a90       ??H@YA?AVDName@@W4DNameStatus@@AEBV0@@Z 000000018006aa90 f i LIBCMTD:undname.obj
 0001:00069ad0       ??HDName@@QEBA?AV0@AEBV0@@Z 000000018006aad0 f   LIBCMTD:undname.obj
 0001:00069b20       ??HDName@@QEBA?AV0@D@Z     000000018006ab20 f   LIBCMTD:undname.obj
 0001:00069b70       ??HDName@@QEBA?AV0@PEAV0@@Z 000000018006ab70 f   LIBCMTD:undname.obj
 0001:00069bc0       ??HDName@@QEBA?AV0@PEBD@Z  000000018006abc0 f   LIBCMTD:undname.obj
 0001:00069c10       ??HDName@@QEBA?AV0@W4DNameStatus@@@Z 000000018006ac10 f   LIBCMTD:undname.obj
 0001:00069c60       ??YDName@@QEAAAEAV0@AEBV0@@Z 000000018006ac60 f   LIBCMTD:undname.obj
 0001:00069ce0       ??YDName@@QEAAAEAV0@D@Z    000000018006ace0 f   LIBCMTD:undname.obj
 0001:00069d80       ??YDName@@QEAAAEAV0@PEAV0@@Z 000000018006ad80 f   LIBCMTD:undname.obj
 0001:00069e60       ??YDName@@QEAAAEAV0@PEBD@Z 000000018006ae60 f   LIBCMTD:undname.obj
 0001:00069f20       ??YDName@@QEAAAEAV0@W4DNameStatus@@@Z 000000018006af20 f   LIBCMTD:undname.obj
 0001:00069f90       ??YReplicator@@QEAAAEAV0@AEBVDName@@@Z 000000018006af90 f   LIBCMTD:undname.obj
 0001:0006a050       ??_5DName@@QEAAAEAV0@AEBV0@@Z 000000018006b050 f   LIBCMTD:undname.obj
 0001:0006a0c0       ?Constructor@_HeapManager@@QEAAXP6APEAX_K@ZP6AXPEAX@Z@Z 000000018006b0c0 f i LIBCMTD:undname.obj
 0001:0006a120       ?Destructor@_HeapManager@@QEAAXXZ 000000018006b120 f i LIBCMTD:undname.obj
 0001:0006a180       ?UScore@UnDecorator@@SAPEBDW4Tokens@@@Z 000000018006b180 f   LIBCMTD:undname.obj
 0001:0006a1c0       ?append@DName@@AEAAXPEAVDNameNode@@@Z 000000018006b1c0 f   LIBCMTD:undname.obj
 0001:0006a270       ?composeDeclaration@UnDecorator@@CA?AVDName@@AEBV2@@Z 000000018006b270 f i LIBCMTD:undname.obj
 0001:0006c330       ?dbGetString@DName@@QEBAPEADXZ 000000018006d330 f   LIBCMTD:undname.obj
 0001:0006c360       ?doAccessSpecifiers@UnDecorator@@SAHXZ 000000018006d360 f i LIBCMTD:undname.obj
 0001:0006c390       ?doAllocationLanguage@UnDecorator@@SAHXZ 000000018006d390 f i LIBCMTD:undname.obj
 0001:0006c3c0       ?doAllocationModel@UnDecorator@@SAHXZ 000000018006d3c0 f i LIBCMTD:undname.obj
 0001:0006c3f0       ?doEcsu@UnDecorator@@SAHXZ 000000018006d3f0 f i LIBCMTD:undname.obj
 0001:0006c420       ?doEllipsis@UnDecorator@@SAHXZ 000000018006d420 f i LIBCMTD:undname.obj
 0001:0006c450       ?doFunctionReturns@UnDecorator@@SAHXZ 000000018006d450 f i LIBCMTD:undname.obj
 0001:0006c480       ?doMSKeywords@UnDecorator@@SAHXZ 000000018006d480 f i LIBCMTD:undname.obj
 0001:0006c4b0       ?doMemberTypes@UnDecorator@@SAHXZ 000000018006d4b0 f i LIBCMTD:undname.obj
 0001:0006c4e0       ?doNameOnly@UnDecorator@@SAHXZ 000000018006d4e0 f i LIBCMTD:undname.obj
 0001:0006c4f0       ?doNoIdentCharCheck@UnDecorator@@SAHXZ 000000018006d4f0 f i LIBCMTD:undname.obj
 0001:0006c500       ?doPchar@DName@@AEAAXPEBDH@Z 000000018006d500 f   LIBCMTD:undname.obj
 0001:0006c690       ?doPtr64@UnDecorator@@SAHXZ 000000018006d690 f i LIBCMTD:undname.obj
 0001:0006c6c0       ?doRestrictionSpec@UnDecorator@@SAHXZ 000000018006d6c0 f i LIBCMTD:undname.obj
 0001:0006c6f0       ?doThisTypes@UnDecorator@@SAHXZ 000000018006d6f0 f i LIBCMTD:undname.obj
 0001:0006c720       ?doThrowTypes@UnDecorator@@SAHXZ 000000018006d720 f i LIBCMTD:undname.obj
 0001:0006c750       ?doTypeOnly@UnDecorator@@SAHXZ 000000018006d750 f i LIBCMTD:undname.obj
 0001:0006c760       ?doUnderScore@UnDecorator@@SAHXZ 000000018006d760 f i LIBCMTD:undname.obj
 0001:0006c790       ?getArgumentList@UnDecorator@@CA?AVDName@@XZ 000000018006d790 f   LIBCMTD:undname.obj
 0001:0006c930       ?getArgumentTypes@UnDecorator@@CA?AVDName@@XZ 000000018006d930 f   LIBCMTD:undname.obj
 0001:0006caf0       ?getArrayType@UnDecorator@@CA?AVDName@@AEBV2@@Z 000000018006daf0 f i LIBCMTD:undname.obj
 0001:0006cde0       ?getBasedType@UnDecorator@@CA?AVDName@@XZ 000000018006dde0 f   LIBCMTD:undname.obj
 0001:0006ced0       ?getBasicDataType@UnDecorator@@CA?AVDName@@AEBV2@@Z 000000018006ded0 f   LIBCMTD:undname.obj
 0001:0006d5e0       ?getCallIndex@UnDecorator@@CA?AVDName@@XZ 000000018006e5e0 f i LIBCMTD:undname.obj
 0001:0006d600       ?getCallingConvention@UnDecorator@@CA?AVDName@@XZ 000000018006e600 f   LIBCMTD:undname.obj
 0001:0006d7f0       ?getDataIndirectType@UnDecorator@@CA?AVDName@@AEBV2@PEBD0H@Z 000000018006e7f0 f   LIBCMTD:undname.obj
 0001:0006e160       ?getDataIndirectType@UnDecorator@@CA?AVDName@@XZ 000000018006f160 f i LIBCMTD:undname.obj
 0001:0006e1c0       ?getDataType@UnDecorator@@CA?AVDName@@PEAV2@@Z 000000018006f1c0 f   LIBCMTD:undname.obj
 0001:0006e350       ?getDecoratedName@UnDecorator@@CA?AVDName@@XZ 000000018006f350 f   LIBCMTD:undname.obj
 0001:0006e750       ?getDimension@UnDecorator@@CA?AVDName@@_N@Z 000000018006f750 f   LIBCMTD:undname.obj
 0001:0006eab0       ?getDispatchTarget@UnDecorator@@CA?AVDName@@XZ 000000018006fab0 f   LIBCMTD:undname.obj
 0001:0006eb80       ?getDisplacement@UnDecorator@@CA?AVDName@@XZ 000000018006fb80 f i LIBCMTD:undname.obj
 0001:0006eba0       ?getECSUDataType@UnDecorator@@CA?AVDName@@XZ 000000018006fba0 f   LIBCMTD:undname.obj
 0001:0006ede0       ?getECSUName@UnDecorator@@CA?AVDName@@XZ 000000018006fde0 f i LIBCMTD:undname.obj
 0001:0006ee00       ?getEnumType@UnDecorator@@CA?AVDName@@XZ 000000018006fe00 f i LIBCMTD:undname.obj
 0001:0006ef80       ?getExtendedDataIndirectType@UnDecorator@@CA?AVDName@@AEAPEBDAEA_NH@Z 000000018006ff80 f   LIBCMTD:undname.obj
 0001:0006f2a0       ?getExternalDataType@UnDecorator@@CA?AVDName@@AEBV2@@Z 00000001800702a0 f i LIBCMTD:undname.obj
 0001:0006f370       ?getFunctionIndirectType@UnDecorator@@CA?AVDName@@AEBV2@@Z 0000000180070370 f   LIBCMTD:undname.obj
 0001:0006f8f0       ?getGuardNumber@UnDecorator@@CA?AVDName@@XZ 00000001800708f0 f i LIBCMTD:undname.obj
 0001:0006f910       ?getLastChar@DName@@QEBADXZ 0000000180070910 f i LIBCMTD:undname.obj
 0001:0006f950       ?getLastChar@DNameStatusNode@@UEBADXZ 0000000180070950 f i LIBCMTD:undname.obj
 0001:0006f990       ?getLastChar@charNode@@UEBADXZ 0000000180070990 f i LIBCMTD:undname.obj
 0001:0006f9a0       ?getLastChar@pDNameNode@@UEBADXZ 00000001800709a0 f i LIBCMTD:undname.obj
 0001:0006f9e0       ?getLastChar@pairNode@@UEBADXZ 00000001800709e0 f i LIBCMTD:undname.obj
 0001:0006fa40       ?getLastChar@pcharNode@@UEBADXZ 0000000180070a40 f i LIBCMTD:undname.obj
 0001:0006fa80       ?getLexicalFrame@UnDecorator@@CA?AVDName@@XZ 0000000180070a80 f i LIBCMTD:undname.obj
 0001:0006fac0       ?getMemory@_HeapManager@@QEAAPEAX_KH@Z 0000000180070ac0 f   LIBCMTD:undname.obj
 0001:0006fc30       ?getNumberOfDimensions@UnDecorator@@CAHXZ 0000000180070c30 f   LIBCMTD:undname.obj
 0001:0006fd50       ?getOperatorName@UnDecorator@@CA?AVDName@@_NPEA_N@Z 0000000180070d50 f i LIBCMTD:undname.obj
 0001:000709f0       ?getPointerType@UnDecorator@@CA?AVDName@@AEBV2@0@Z 00000001800719f0 f i LIBCMTD:undname.obj
 0001:00070a40       ?getPointerTypeArray@UnDecorator@@CA?AVDName@@AEBV2@0@Z 0000000180071a40 f i LIBCMTD:undname.obj
 0001:00070a90       ?getPrimaryDataType@UnDecorator@@CA?AVDName@@AEBV2@@Z 0000000180071a90 f   LIBCMTD:undname.obj
 0001:00070f10       ?getPtrRefDataType@UnDecorator@@CA?AVDName@@AEBV2@H@Z 0000000180071f10 f i LIBCMTD:undname.obj
 0001:00071090       ?getPtrRefType@UnDecorator@@CA?AVDName@@AEBV2@0PEBD@Z 0000000180072090 f   LIBCMTD:undname.obj
 0001:000712a0       ?getReferenceType@UnDecorator@@CA?AVDName@@AEBV2@0PEBD@Z 00000001800722a0 f i LIBCMTD:undname.obj
 0001:000712e0       ?getRestrictionSpec@UnDecorator@@CA?AVDName@@XZ 00000001800722e0 f   LIBCMTD:undname.obj
 0001:00071480       ?getReturnType@UnDecorator@@CA?AVDName@@PEAV2@@Z 0000000180072480 f   LIBCMTD:undname.obj
 0001:000714e0       ?getScope@UnDecorator@@CA?AVDName@@XZ 00000001800724e0 f   LIBCMTD:undname.obj
 0001:00071ad0       ?getScopedName@UnDecorator@@CA?AVDName@@XZ 0000000180072ad0 f   LIBCMTD:undname.obj
 0001:00071c40       ?getSignedDimension@UnDecorator@@CA?AVDName@@XZ 0000000180072c40 f   LIBCMTD:undname.obj
 0001:00071cd0       ?getStorageConvention@UnDecorator@@CA?AVDName@@XZ 0000000180072cd0 f i LIBCMTD:undname.obj
 0001:00071cf0       ?getString@DName@@QEBAPEADPEAD0@Z 0000000180072cf0 f i LIBCMTD:undname.obj
 0001:00071d40       ?getString@DName@@QEBAPEADPEADH@Z 0000000180072d40 f i LIBCMTD:undname.obj
 0001:00071e00       ?getString@DNameStatusNode@@UEBAPEADPEAD0@Z 0000000180072e00 f i LIBCMTD:undname.obj
 0001:00071e50       ?getString@charNode@@UEBAPEADPEAD0@Z 0000000180072e50 f i LIBCMTD:undname.obj
 0001:00071e90       ?getString@pDNameNode@@UEBAPEADPEAD0@Z 0000000180072e90 f i LIBCMTD:undname.obj
 0001:00071ef0       ?getString@pairNode@@UEBAPEADPEAD0@Z 0000000180072ef0 f i LIBCMTD:undname.obj
 0001:00071f70       ?getString@pcharNode@@UEBAPEADPEAD0@Z 0000000180072f70 f i LIBCMTD:undname.obj
 0001:00071fb0       ?getStringEncoding@UnDecorator@@CA?AVDName@@PEADH@Z 0000000180072fb0 f   LIBCMTD:undname.obj
 0001:000720f0       ?getStringHelper@@YAPEADPEAD00H@Z 00000001800730f0 f i LIBCMTD:undname.obj
 0001:00072160       ?getSymbolName@UnDecorator@@CA?AVDName@@XZ 0000000180073160 f i LIBCMTD:undname.obj
 0001:00072200       ?getTemplateArgumentList@UnDecorator@@CA?AVDName@@XZ 0000000180073200 f   LIBCMTD:undname.obj
 0001:000725e0       ?getTemplateConstant@UnDecorator@@CA?AVDName@@XZ 00000001800735e0 f   LIBCMTD:undname.obj
 0001:00072bb0       ?getTemplateName@UnDecorator@@CA?AVDName@@_N@Z 0000000180073bb0 f   LIBCMTD:undname.obj
 0001:00072e00       ?getThisType@UnDecorator@@CA?AVDName@@XZ 0000000180073e00 f i LIBCMTD:undname.obj
 0001:00072e60       ?getThrowTypes@UnDecorator@@CA?AVDName@@XZ 0000000180073e60 f   LIBCMTD:undname.obj
 0001:00072f50       ?getTypeEncoding@UnDecorator@@CAHXZ 0000000180073f50 f i LIBCMTD:undname.obj
 0001:00073b00       ?getVCallThunkType@UnDecorator@@CA?AVDName@@XZ 0000000180074b00 f i LIBCMTD:undname.obj
 0001:00073b80       ?getVbTableType@UnDecorator@@CA?AVDName@@AEBV2@@Z 0000000180074b80 f i LIBCMTD:undname.obj
 0001:00073bb0       ?getVdispMapType@UnDecorator@@CA?AVDName@@AEBV2@@Z 0000000180074bb0 f i LIBCMTD:undname.obj
 0001:00073c40       ?getVfTableType@UnDecorator@@CA?AVDName@@AEBV2@@Z 0000000180074c40 f i LIBCMTD:undname.obj
 0001:00073e70       ?getZName@UnDecorator@@CA?AVDName@@_N0@Z 0000000180074e70 f   LIBCMTD:undname.obj
 0001:000741f0       ?haveTemplateParameters@UnDecorator@@SAHXZ 00000001800751f0 f i LIBCMTD:undname.obj
 0001:00074200       ?isArray@DName@@QEBAHXZ    0000000180075200 f i LIBCMTD:undname.obj
 0001:00074220       ?isComArray@DName@@QEBAHXZ 0000000180075220 f i LIBCMTD:undname.obj
 0001:00074240       ?isEmpty@DName@@QEBAHXZ    0000000180075240 f i LIBCMTD:undname.obj
 0001:00074270       ?isFull@Replicator@@QEBAHXZ 0000000180075270 f i LIBCMTD:undname.obj
 0001:000742a0       ?isNoTE@DName@@QEBAHXZ     00000001800752a0 f i LIBCMTD:undname.obj
 0001:000742c0       ?isPinPtr@DName@@QEBAHXZ   00000001800752c0 f i LIBCMTD:undname.obj
 0001:000742e0       ?isPtrRef@DName@@QEBAHXZ   00000001800752e0 f i LIBCMTD:undname.obj
 0001:00074300       ?isUDC@DName@@QEBAHXZ      0000000180075300 f i LIBCMTD:undname.obj
 0001:00074350       ?isUDTThunk@DName@@QEBAHXZ 0000000180075350 f i LIBCMTD:undname.obj
 0001:000743a0       ?isVCallThunk@DName@@QEBAHXZ 00000001800753a0 f i LIBCMTD:undname.obj
 0001:000743c0       ?isValid@DName@@QEBAHXZ    00000001800753c0 f i LIBCMTD:undname.obj
 0001:00074400       ?length@DName@@QEBAHXZ     0000000180075400 f i LIBCMTD:undname.obj
 0001:00074440       ?length@DNameStatusNode@@UEBAHXZ 0000000180075440 f i LIBCMTD:undname.obj
 0001:00074450       ?length@charNode@@UEBAHXZ  0000000180075450 f i LIBCMTD:undname.obj
 0001:00074460       ?length@pDNameNode@@UEBAHXZ 0000000180075460 f i LIBCMTD:undname.obj
 0001:000744a0       ?length@pairNode@@UEBAHXZ  00000001800754a0 f i LIBCMTD:undname.obj
 0001:00074510       ?length@pcharNode@@UEBAHXZ 0000000180075510 f i LIBCMTD:undname.obj
 0001:00074520       ?make@DNameStatusNode@@SAPEAV1@W4DNameStatus@@@Z 0000000180075520 f i LIBCMTD:undname.obj
 0001:000745d0       ?setIsArray@DName@@QEAAXXZ 00000001800755d0 f i LIBCMTD:undname.obj
 0001:000745f0       ?setIsComArray@DName@@QEAAXXZ 00000001800755f0 f i LIBCMTD:undname.obj
 0001:00074610       ?setIsNoTE@DName@@QEAAXXZ  0000000180075610 f i LIBCMTD:undname.obj
 0001:00074630       ?setIsPinPtr@DName@@QEAAXXZ 0000000180075630 f i LIBCMTD:undname.obj
 0001:00074650       ?setIsUDC@DName@@QEAAXXZ   0000000180075650 f i LIBCMTD:undname.obj
 0001:00074680       ?setIsVCallThunk@DName@@QEAAXXZ 0000000180075680 f i LIBCMTD:undname.obj
 0001:000746a0       ?setPtrRef@DName@@QEAAAEAV1@XZ 00000001800756a0 f i LIBCMTD:undname.obj
 0001:000746c0       ?status@DName@@QEBA?AW4DNameStatus@@XZ 00000001800756c0 f i LIBCMTD:undname.obj
 0001:000747f0       __unDName                  00000001800757f0 f   LIBCMTD:undname.obj
 0001:000748d0       __unDNameEx                00000001800758d0 f   LIBCMTD:undname.obj
 0001:000749c0       _local_unwind              00000001800759c0 f   LIBCMTD:jmpuwind.obj
 0001:000749f0       _NLG_Notify                00000001800759f0 f   LIBCMTD:jmpuwind.obj
 0001:00074a10       __NLG_Dispatch2            0000000180075a10 f   LIBCMTD:jmpuwind.obj
 0001:00074a20       __NLG_Return2              0000000180075a20 f   LIBCMTD:jmpuwind.obj
 0001:00074a30       __raise_securityfailure    0000000180075a30 f   LIBCMTD:gs_report.obj
 0001:00074a80       __report_gsfailure         0000000180075a80 f   LIBCMTD:gs_report.obj
 0001:00074b60       __report_rangecheckfailure 0000000180075b60 f   LIBCMTD:gs_report.obj
 0001:00074b80       __report_securityfailure   0000000180075b80 f   LIBCMTD:gs_report.obj
 0001:00074c20       __report_securityfailureEx 0000000180075c20 f   LIBCMTD:gs_report.obj
 0001:00074d30       memcpy_s                   0000000180075d30 f   LIBCMTD:memcpy_s.obj
 0001:00074fa0       wcscpy_s                   0000000180075fa0 f   LIBCMTD:wcscpy_s.obj
 0001:00075450       wcslen                     0000000180076450 f   LIBCMTD:wcslen.obj
 0001:000754a0       __swprintf_l               00000001800764a0 f   LIBCMTD:swprintf.obj
 0001:000754e0       _scwprintf                 00000001800764e0 f   LIBCMTD:swprintf.obj
 0001:00075520       _scwprintf_l               0000000180076520 f   LIBCMTD:swprintf.obj
 0001:00075560       _scwprintf_p               0000000180076560 f   LIBCMTD:swprintf.obj
 0001:000755a0       _scwprintf_p_l             00000001800765a0 f   LIBCMTD:swprintf.obj
 0001:000755e0       _snwprintf_s               00000001800765e0 f   LIBCMTD:swprintf.obj
 0001:00075640       _snwprintf_s_l             0000000180076640 f   LIBCMTD:swprintf.obj
 0001:000756a0       _swprintf                  00000001800766a0 f   LIBCMTD:swprintf.obj
 0001:00075980       _swprintf_p                0000000180076980 f   LIBCMTD:swprintf.obj
 0001:000759d0       _swprintf_p_l              00000001800769d0 f   LIBCMTD:swprintf.obj
 0001:00075a20       _swprintf_s_l              0000000180076a20 f   LIBCMTD:swprintf.obj
 0001:00075a70       swprintf_s                 0000000180076a70 f   LIBCMTD:swprintf.obj
 0001:00075ac0       __fpecode                  0000000180076ac0 f   LIBCMTD:winsig.obj
 0001:00075ae0       __get_sigabrt              0000000180076ae0 f   LIBCMTD:winsig.obj
 0001:00075b00       __pxcptinfoptrs            0000000180076b00 f   LIBCMTD:winsig.obj
 0001:00075b20       _initp_misc_winsig         0000000180076b20 f   LIBCMTD:winsig.obj
 0001:00075c30       raise                      0000000180076c30 f   LIBCMTD:winsig.obj
 0001:000760a0       signal                     00000001800770a0 f   LIBCMTD:winsig.obj
 0001:000764e0       __crtMessageBoxW           00000001800774e0 f   LIBCMTD:crtmboxw.obj
 0001:00076950       __crtMessageBoxWaitThreadW 0000000180077950 f   LIBCMTD:crtmboxw.obj
 0001:000769a0       _CrtDbgBreak               00000001800779a0 f   LIBCMTD:dbgrptt.obj
 0001:000769b0       _CrtGetReportHook          00000001800779b0 f   LIBCMTD:dbgrptt.obj
 0001:000769c0       _CrtSetReportFile          00000001800779c0 f   LIBCMTD:dbgrptt.obj
 0001:00076b20       _CrtSetReportHook          0000000180077b20 f   LIBCMTD:dbgrptt.obj
 0001:00076b50       _CrtSetReportMode          0000000180077b50 f   LIBCMTD:dbgrptt.obj
 0001:00076d10       _VCrtDbgReportA            0000000180077d10 f   LIBCMTD:dbgrptt.obj
 0001:000776e0       _VCrtDbgReportW            00000001800786e0 f   LIBCMTD:dbgrptt.obj
 0001:00078220       _chvalidator               0000000180079220 f   LIBCMTD:isctype.obj
 0001:00078290       _chvalidator_l             0000000180079290 f   LIBCMTD:isctype.obj
 0001:000783a0       _isctype                   00000001800793a0 f   LIBCMTD:isctype.obj
 0001:000783f0       _isctype_l                 00000001800793f0 f   LIBCMTD:isctype.obj
 0001:000785d0       _realloc_base              00000001800795d0 f   LIBCMTD:realloc.obj
 0001:000786f0       _expand_base               00000001800796f0 f   LIBCMTD:expand.obj
 0001:000788d0       _heapchk                   00000001800798d0 f   LIBCMTD:heapchk.obj
 0001:00078910       _heapset                   0000000180079910 f   LIBCMTD:heapchk.obj
 0001:00078930       _scprintf                  0000000180079930 f   LIBCMTD:sprintf.obj
 0001:00078970       _scprintf_l                0000000180079970 f   LIBCMTD:sprintf.obj
 0001:000789b0       _scprintf_p                00000001800799b0 f   LIBCMTD:sprintf.obj
 0001:000789f0       _scprintf_p_l              00000001800799f0 f   LIBCMTD:sprintf.obj
 0001:00078a30       _snprintf_s                0000000180079a30 f   LIBCMTD:sprintf.obj
 0001:00078a90       _snprintf_s_l              0000000180079a90 f   LIBCMTD:sprintf.obj
 0001:00078af0       _sprintf_l                 0000000180079af0 f   LIBCMTD:sprintf.obj
 0001:00078b30       _sprintf_p                 0000000180079b30 f   LIBCMTD:sprintf.obj
 0001:00078b80       _sprintf_p_l               0000000180079b80 f   LIBCMTD:sprintf.obj
 0001:00078bd0       _sprintf_s_l               0000000180079bd0 f   LIBCMTD:sprintf.obj
 0001:00078c20       sprintf                    0000000180079c20 f   LIBCMTD:sprintf.obj
 0001:00078ea0       sprintf_s                  0000000180079ea0 f   LIBCMTD:sprintf.obj
 0001:00078ef0       _CrtDefaultAllocHook       0000000180079ef0 f   LIBCMTD:dbghook.obj
 0001:00078f10       __crt_debugger_hook        0000000180079f10 f   LIBCMTD:dbghook.obj
 0001:00078f20       _FindPESection             0000000180079f20 f   LIBCMTD:pesect.obj
 0001:00078fd0       _IsNonwritableInCurrentImage 0000000180079fd0 f   LIBCMTD:pesect.obj
 0001:00079060       _ValidateImageBase         000000018007a060 f   LIBCMTD:pesect.obj
 0001:000790e0       _fcloseall                 000000018007a0e0 f   LIBCMTD:closeall.obj
 0001:000791e0       _fflush_nolock             000000018007a1e0 f   LIBCMTD:fflush.obj
 0001:00079260       _flush                     000000018007a260 f   LIBCMTD:fflush.obj
 0001:00079350       _flushall                  000000018007a350 f   LIBCMTD:fflush.obj
 0001:00079370       fflush                     000000018007a370 f   LIBCMTD:fflush.obj
 0001:00079530       _output_s_l                000000018007a530 f   LIBCMTD:outputs.obj
 0001:0007b110       _output_p_l                000000018007c110 f   LIBCMTD:outputp.obj
 0001:0007f5f0       _validate_param_reuseA     00000001800805f0 f   LIBCMTD:outputp.obj
 0001:0007f960       get_crtdouble_arg          0000000180080960 f i LIBCMTD:outputp.obj
 0001:0007fc00       _fileno                    0000000180080c00 f   LIBCMTD:fileno.obj
 0001:0007fcc0       _isatty                    0000000180080cc0 f   LIBCMTD:isatty.obj
 0001:0007fdd0       __iswcsym                  0000000180080dd0 f i LIBCMTD:_wctype.obj
 0001:0007fe10       __iswcsymf                 0000000180080e10 f i LIBCMTD:_wctype.obj
 0001:0007fe50       _isleadbyte_l              0000000180080e50 f i LIBCMTD:_wctype.obj
 0001:0007feb0       _iswalnum_l                0000000180080eb0 f i LIBCMTD:_wctype.obj
 0001:0007fee0       _iswalpha_l                0000000180080ee0 f i LIBCMTD:_wctype.obj
 0001:0007ff10       _iswblank_l                0000000180080f10 f i LIBCMTD:_wctype.obj
 0001:0007ff50       _iswcntrl_l                0000000180080f50 f i LIBCMTD:_wctype.obj
 0001:0007ff80       _iswcsym_l                 0000000180080f80 f i LIBCMTD:_wctype.obj
 0001:0007ffd0       _iswcsymf_l                0000000180080fd0 f i LIBCMTD:_wctype.obj
 0001:00080020       _iswdigit_l                0000000180081020 f i LIBCMTD:_wctype.obj
 0001:00080050       _iswgraph_l                0000000180081050 f i LIBCMTD:_wctype.obj
 0001:00080080       _iswlower_l                0000000180081080 f i LIBCMTD:_wctype.obj
 0001:000800b0       _iswprint_l                00000001800810b0 f i LIBCMTD:_wctype.obj
 0001:000800e0       _iswpunct_l                00000001800810e0 f i LIBCMTD:_wctype.obj
 0001:00080110       _iswspace_l                0000000180081110 f i LIBCMTD:_wctype.obj
 0001:00080140       _iswupper_l                0000000180081140 f i LIBCMTD:_wctype.obj
 0001:00080170       _iswxdigit_l               0000000180081170 f i LIBCMTD:_wctype.obj
 0001:000801a0       isleadbyte                 00000001800811a0 f i LIBCMTD:_wctype.obj
 0001:000801c0       iswalnum                   00000001800811c0 f i LIBCMTD:_wctype.obj
 0001:000801e0       iswalpha                   00000001800811e0 f i LIBCMTD:_wctype.obj
 0001:00080200       iswascii                   0000000180081200 f i LIBCMTD:_wctype.obj
 0001:00080230       iswblank                   0000000180081230 f i LIBCMTD:_wctype.obj
 0001:00080270       iswcntrl                   0000000180081270 f i LIBCMTD:_wctype.obj
 0001:00080290       iswdigit                   0000000180081290 f i LIBCMTD:_wctype.obj
 0001:000802b0       iswgraph                   00000001800812b0 f i LIBCMTD:_wctype.obj
 0001:000802d0       iswlower                   00000001800812d0 f i LIBCMTD:_wctype.obj
 0001:000802f0       iswprint                   00000001800812f0 f i LIBCMTD:_wctype.obj
 0001:00080310       iswpunct                   0000000180081310 f i LIBCMTD:_wctype.obj
 0001:00080330       iswspace                   0000000180081330 f i LIBCMTD:_wctype.obj
 0001:00080350       iswupper                   0000000180081350 f i LIBCMTD:_wctype.obj
 0001:00080370       iswxdigit                  0000000180081370 f i LIBCMTD:_wctype.obj
 0001:00080390       _flsbuf                    0000000180081390 f   LIBCMTD:_flsbuf.obj
 0001:00080730       _wctomb_l                  0000000180081730 f   LIBCMTD:wctomb.obj
 0001:000807e0       _wctomb_s_l                00000001800817e0 f   LIBCMTD:wctomb.obj
 0001:00080c80       wctomb                     0000000180081c80 f   LIBCMTD:wctomb.obj
 0001:00080cf0       wctomb_s                   0000000180081cf0 f   LIBCMTD:wctomb.obj
 0001:00080d40       wcscat_s                   0000000180081d40 f   LIBCMTD:wcscat_s.obj
 0001:00081370       wcsncpy_s                  0000000180082370 f   LIBCMTD:wcsncpy_s.obj
 0001:00081a10       __set_app_type             0000000180082a10 f   LIBCMTD:errmode.obj
 0001:00081a20       _set_error_mode            0000000180082a20 f   LIBCMTD:errmode.obj
 0001:00081b30       strncpy_s                  0000000180082b30 f   LIBCMTD:strncpy_s.obj
 0001:00082380       _MallocaIsSizeInRange      0000000180083380 f i LIBCMTD:a_loc.obj
 0001:000823c0       _MarkAllocaS               00000001800833c0 f i LIBCMTD:a_loc.obj
 0001:000823f0       __crtGetLocaleInfoA        00000001800833f0 f   LIBCMTD:a_loc.obj
 0001:00082460       _freea                     0000000180083460 f i LIBCMTD:a_loc.obj
 0001:000824f0       GetTableIndexFromLcid      00000001800834f0 f   LIBCMTD:winapinls.obj
 0001:00082580       GetTableIndexFromLocaleName 0000000180083580 f   LIBCMTD:winapinls.obj
 0001:00082630       __crtCompareStringEx       0000000180083630 f   LIBCMTD:winapinls.obj
 0001:00082710       __crtDownlevelLCIDToLocaleName 0000000180083710 f   LIBCMTD:winapinls.obj
 0001:00082810       __crtDownlevelLocaleNameToLCID 0000000180083810 f   LIBCMTD:winapinls.obj
 0001:00082890       __crtEnumSystemLocalesEx   0000000180083890 f   LIBCMTD:winapinls.obj
 0001:00082930       __crtGetDateFormatEx       0000000180083930 f   LIBCMTD:winapinls.obj
 0001:000829f0       __crtGetLocaleInfoEx       00000001800839f0 f   LIBCMTD:winapinls.obj
 0001:00082a70       __crtGetTimeFormatEx       0000000180083a70 f   LIBCMTD:winapinls.obj
 0001:00082b20       __crtGetUserDefaultLocaleName 0000000180083b20 f   LIBCMTD:winapinls.obj
 0001:00082b90       __crtIsValidLocaleName     0000000180083b90 f   LIBCMTD:winapinls.obj
 0001:00082bf0       __crtLCMapStringEx         0000000180083bf0 f   LIBCMTD:winapinls.obj
 0001:00082cd0       __wcsnicmp_ascii           0000000180083cd0 f   LIBCMTD:winapinls.obj
 0001:00082de0       __onexitinit               0000000180083de0 f   LIBCMTD:onexit.obj
 0001:00082e50       _onexit                    0000000180083e50 f   LIBCMTD:onexit.obj
 0001:00083060       atexit                     0000000180084060 f   LIBCMTD:onexit.obj
 0001:000830a0       ?_inconsistency@@YAXXZ     00000001800840a0 f   LIBCMTD:hooks.obj
 0001:000830d0       ?terminate@@YAXXZ          00000001800840d0 f   LIBCMTD:hooks.obj
 0001:00083100       ?unexpected@@YAXXZ         0000000180084100 f   LIBCMTD:hooks.obj
 0001:00083130       _initp_eh_hooks            0000000180084130 f   LIBCMTD:hooks.obj
 0001:00083160       _initp_misc_rand_s         0000000180084160 f   LIBCMTD:rand_s.obj
 0001:00083180       rand_s                     0000000180084180 f   LIBCMTD:rand_s.obj
 0001:00083580       _ismbbalnum                0000000180084580 f   LIBCMTD:ismbbyte.obj
 0001:000835b0       _ismbbalnum_l              00000001800845b0 f   LIBCMTD:ismbbyte.obj
 0001:000835e0       _ismbbalpha                00000001800845e0 f   LIBCMTD:ismbbyte.obj
 0001:00083610       _ismbbalpha_l              0000000180084610 f   LIBCMTD:ismbbyte.obj
 0001:00083640       _ismbbblank                0000000180084640 f   LIBCMTD:ismbbyte.obj
 0001:00083680       _ismbbblank_l              0000000180084680 f   LIBCMTD:ismbbyte.obj
 0001:000836d0       _ismbbgraph                00000001800846d0 f   LIBCMTD:ismbbyte.obj
 0001:00083700       _ismbbgraph_l              0000000180084700 f   LIBCMTD:ismbbyte.obj
 0001:00083730       _ismbbkalnum               0000000180084730 f   LIBCMTD:ismbbyte.obj
 0001:00083760       _ismbbkalnum_l             0000000180084760 f   LIBCMTD:ismbbyte.obj
 0001:00083790       _ismbbkana                 0000000180084790 f   LIBCMTD:ismbbyte.obj
 0001:000837b0       _ismbbkana_l               00000001800847b0 f   LIBCMTD:ismbbyte.obj
 0001:00083840       _ismbbkprint               0000000180084840 f   LIBCMTD:ismbbyte.obj
 0001:00083870       _ismbbkprint_l             0000000180084870 f   LIBCMTD:ismbbyte.obj
 0001:000838a0       _ismbbkpunct               00000001800848a0 f   LIBCMTD:ismbbyte.obj
 0001:000838d0       _ismbbkpunct_l             00000001800848d0 f   LIBCMTD:ismbbyte.obj
 0001:00083900       _ismbblead                 0000000180084900 f   LIBCMTD:ismbbyte.obj
 0001:00083930       _ismbblead_l               0000000180084930 f   LIBCMTD:ismbbyte.obj
 0001:00083960       _ismbbprint                0000000180084960 f   LIBCMTD:ismbbyte.obj
 0001:00083990       _ismbbprint_l              0000000180084990 f   LIBCMTD:ismbbyte.obj
 0001:000839c0       _ismbbpunct                00000001800849c0 f   LIBCMTD:ismbbyte.obj
 0001:000839f0       _ismbbpunct_l              00000001800849f0 f   LIBCMTD:ismbbyte.obj
 0001:00083a20       _ismbbtrail                0000000180084a20 f   LIBCMTD:ismbbyte.obj
 0001:00083a50       _ismbbtrail_l              0000000180084a50 f   LIBCMTD:ismbbyte.obj
 0001:00083f40       ?_RTC_GetSrcLine@@YAHPEAEPEA_WKPEAH1K@Z 0000000180084f40 f   LIBCMTD:pdblkup.obj
 0001:000842d0       __free_lconv_mon           00000001800852d0 f   LIBCMTD:initmon.obj
 0001:000844e0       __init_monetary            00000001800854e0 f   LIBCMTD:initmon.obj
 0001:00084db0       __free_lconv_num           0000000180085db0 f   LIBCMTD:initnum.obj
 0001:00084e90       __init_numeric             0000000180085e90 f   LIBCMTD:initnum.obj
 0001:00085400       __free_lc_time             0000000180086400 f   LIBCMTD:inittime.obj
 0001:00085e60       __init_time                0000000180086e60 f   LIBCMTD:inittime.obj
 0001:000875d0       localeconv                 00000001800885d0 f   LIBCMTD:lconv.obj
 0001:00087b10       __crtLCMapStringA          0000000180088b10 f   LIBCMTD:a_map.obj
 0001:00087d80       __crtGetStringTypeA        0000000180088d80 f   LIBCMTD:a_str.obj
 0001:00087ea0       ?_ExecutionInCatch@@YAHPEAU_xDISPATCHER_CONTEXT@@PEBU_s_FuncInfo@@@Z 0000000180088ea0 f   LIBCMTD:trnsctrl.obj
 0001:00087ef0       ?_GetEstablisherFrame@@YAPEA_KPEA_KPEAU_xDISPATCHER_CONTEXT@@PEBU_s_FuncInfo@@0@Z 0000000180088ef0 f   LIBCMTD:trnsctrl.obj
 0001:00088060       ?_GetRangeOfTrysToCheck@@YAPEBU_s_TryBlockMapEntry@@PEA_KPEBU_s_FuncInfo@@HHPEAI2PEAU_xDISPATCHER_CONTEXT@@@Z 0000000180089060 f   LIBCMTD:trnsctrl.obj
 0001:00088280       ?__FrameUnwindToEmptyState@@YAXPEA_KPEAU_xDISPATCHER_CONTEXT@@PEBU_s_FuncInfo@@@Z 0000000180089280 f   LIBCMTD:trnsctrl.obj
 0001:00088320       ?__SehTransFilter@@YAHPEAU_EXCEPTION_POINTERS@@PEAUEHExceptionRecord@@PEA_KPEAU_CONTEXT@@PEAU_xDISPATCHER_CONTEXT@@PEBU_s_FuncInfo@@PEAH@Z 0000000180089320 f   LIBCMTD:trnsctrl.obj
 0001:000883e0       _CallSETranslator          00000001800893e0 f   LIBCMTD:trnsctrl.obj
 0001:00088460       _CreateFrameInfo           0000000180089460 f   LIBCMTD:trnsctrl.obj
 0001:000884e0       _FindAndUnlinkFrame        00000001800894e0 f   LIBCMTD:trnsctrl.obj
 0001:00088570       _GetImageBase              0000000180089570 f   LIBCMTD:trnsctrl.obj
 0001:00088590       _GetThrowImageBase         0000000180089590 f   LIBCMTD:trnsctrl.obj
 0001:000885b0       _IsExceptionObjectToBeDestroyed 00000001800895b0 f   LIBCMTD:trnsctrl.obj
 0001:00088610       _MoveContext               0000000180089610 f   LIBCMTD:trnsctrl.obj
 0001:00088640       _SetImageBase              0000000180089640 f   LIBCMTD:trnsctrl.obj
 0001:00088660       _SetThrowImageBase         0000000180089660 f   LIBCMTD:trnsctrl.obj
 0001:00088680       _UnwindNestedFrames        0000000180089680 f   LIBCMTD:trnsctrl.obj
 0001:000887f0       __CxxFrameHandler          00000001800897f0 f   LIBCMTD:trnsctrl.obj
 0001:000888b0       __CxxFrameHandler2         00000001800898b0 f   LIBCMTD:trnsctrl.obj
 0001:000888f0       __CxxFrameHandler3         00000001800898f0 f   LIBCMTD:trnsctrl.obj
 0001:000889b0       __init_dummy               00000001800899b0 f   LIBCMTD:wsetloca.obj
 0001:000889c0       _locterm                   00000001800899c0 f   LIBCMTD:wsetloca.obj
 0001:00088a10       ___setlc_active_func       0000000180089a10 f   LIBCMTD:wsetloca.obj
 0001:00088a20       ___unguarded_readlc_active_add_func 0000000180089a20 f   LIBCMTD:wsetloca.obj
 0001:00088a30       __copy_locale_name         0000000180089a30 f   LIBCMTD:wsetloca.obj
 0001:00088b00       __create_locale            0000000180089b00 f   LIBCMTD:wsetloca.obj
 0001:00088b20       __free_locale              0000000180089b20 f   LIBCMTD:wsetloca.obj
 0001:00088b40       __get_current_locale       0000000180089b40 f   LIBCMTD:wsetloca.obj
 0001:00088b50       __lc_lctowcs               0000000180089b50 f   LIBCMTD:wsetloca.obj
 0001:00088c40       __lc_wcstolc               0000000180089c40 f   LIBCMTD:wsetloca.obj
 0001:00088f00       _configthreadlocale        0000000180089f00 f   LIBCMTD:wsetloca.obj
 0001:000890c0       _create_locale             000000018008a0c0 f   LIBCMTD:wsetloca.obj
 0001:00089160       _expandlocale              000000018008a160 f   LIBCMTD:wsetloca.obj
 0001:00089740       _free_locale               000000018008a740 f   LIBCMTD:wsetloca.obj
 0001:00089830       _get_current_locale        000000018008a830 f   LIBCMTD:wsetloca.obj
 0001:00089910       _wcreate_locale            000000018008a910 f   LIBCMTD:wsetloca.obj
 0001:00089b50       _wcscats                   000000018008ab50 f   LIBCMTD:wsetloca.obj
 0001:00089c00       _wsetlocale                000000018008ac00 f   LIBCMTD:wsetloca.obj
 0001:0008af10       _CopyMan                   000000018008bf10 f i LIBCMTD:intrncvt.obj
 0001:0008af80       _FillZeroMan               000000018008bf80 f i LIBCMTD:intrncvt.obj
 0001:0008afc0       _IncMan                    000000018008bfc0 f i LIBCMTD:intrncvt.obj
 0001:0008b0a0       _IsZeroMan                 000000018008c0a0 f i LIBCMTD:intrncvt.obj
 0001:0008b0e0       _RoundMan                  000000018008c0e0 f i LIBCMTD:intrncvt.obj
 0001:0008b1f0       _ShrMan                    000000018008c1f0 f i LIBCMTD:intrncvt.obj
 0001:0008b330       _ZeroTail                  000000018008c330 f i LIBCMTD:intrncvt.obj
 0001:0008b3e0       __addl                     000000018008c3e0 f i LIBCMTD:intrncvt.obj
 0001:0008b440       _ld12cvt                   000000018008c440 f i LIBCMTD:intrncvt.obj
 0001:0008b7b0       _ld12tod                   000000018008c7b0 f   LIBCMTD:intrncvt.obj
 0001:0008b7e0       _ld12tof                   000000018008c7e0 f   LIBCMTD:intrncvt.obj
 0001:0008b810       _ld12told                  000000018008c810 f   LIBCMTD:intrncvt.obj
 0001:0008b940       __STRINGTOLD_L             000000018008c940 f   LIBCMTD:strgtold.obj
 0001:0008b9f0       __ld12mul                  000000018008c9f0 f i LIBCMTD:strgtold.obj
 0001:0008bf60       __multtenpow12             000000018008cf60 f i LIBCMTD:strgtold.obj
 0001:0008c090       __shl_12                   000000018008d090 f i LIBCMTD:strgtold.obj
 0001:0008c130       __shr_12                   000000018008d130 f i LIBCMTD:strgtold.obj
 0001:0008c1d0       __strgtold12_l             000000018008d1d0 f   LIBCMTD:strgtold.obj
 0001:0008cfb0       $I10_OUTPUT                000000018008dfb0 f   LIBCMTD:x10fout.obj
 0001:0008d870       __add_12                   000000018008e870 f i LIBCMTD:x10fout.obj
 0001:0008d950       __pctype_func              000000018008e950 f   LIBCMTD:ctype.obj
 0001:0008d9b0       __pwctype_func             000000018008e9b0 f   LIBCMTD:ctype.obj
 0001:0008d9c0       free                       000000018008e9c0 f   LIBCMTD:dbgfree.obj
 0001:0008d9e0       _atoi64                    000000018008e9e0 f   LIBCMTD:atox.obj
 0001:0008da00       _atoi64_l                  000000018008ea00 f   LIBCMTD:atox.obj
 0001:0008da30       _atoi_l                    000000018008ea30 f   LIBCMTD:atox.obj
 0001:0008da60       _atol_l                    000000018008ea60 f   LIBCMTD:atox.obj
 0001:0008da90       _atoll_l                   000000018008ea90 f   LIBCMTD:atox.obj
 0001:0008dac0       atoi                       000000018008eac0 f   LIBCMTD:atox.obj
 0001:0008dae0       atol                       000000018008eae0 f   LIBCMTD:atox.obj
 0001:0008db00       atoll                      000000018008eb00 f   LIBCMTD:atox.obj
 0001:0008db20       __vswprintf_l              000000018008eb20 f   LIBCMTD:vswprint.obj
 0001:0008db60       _vscwprintf                000000018008eb60 f   LIBCMTD:vswprint.obj
 0001:0008db90       _vscwprintf_helper         000000018008eb90 f   LIBCMTD:vswprint.obj
 0001:0008dce0       _vscwprintf_l              000000018008ece0 f   LIBCMTD:vswprint.obj
 0001:0008dd20       _vscwprintf_p              000000018008ed20 f   LIBCMTD:vswprint.obj
 0001:0008dd50       _vscwprintf_p_l            000000018008ed50 f   LIBCMTD:vswprint.obj
 0001:0008dd90       _vswprintf                 000000018008ed90 f   LIBCMTD:vswprint.obj
 0001:0008ddc0       _vswprintf_l               000000018008edc0 f   LIBCMTD:vswprint.obj
 0001:0008e090       _vsnwprintf_s              000000018008f090 f   LIBCMTD:vswprnc.obj
 0001:0008e0e0       _vsnwprintf_s_l            000000018008f0e0 f   LIBCMTD:vswprnc.obj
 0001:0008e690       _vswprintf_c               000000018008f690 f   LIBCMTD:vswprnc.obj
 0001:0008e700       _vswprintf_c_l             000000018008f700 f   LIBCMTD:vswprnc.obj
 0001:0008e770       _vswprintf_helper          000000018008f770 f   LIBCMTD:vswprnc.obj
 0001:0008eac0       _vswprintf_p               000000018008fac0 f   LIBCMTD:vswprnc.obj
 0001:0008eb30       _vswprintf_p_l             000000018008fb30 f   LIBCMTD:vswprnc.obj
 0001:0008eba0       _vswprintf_s_l             000000018008fba0 f   LIBCMTD:vswprnc.obj
 0001:0008ef30       vswprintf_s                000000018008ff30 f   LIBCMTD:vswprnc.obj
 0001:0008ef70       _woutput_l                 000000018008ff70 f   LIBCMTD:woutput.obj
 0001:000906b0       strcat_s                   00000001800916b0 f   LIBCMTD:strcat_s.obj
 0001:00090cc0       _i64toa_s                  0000000180091cc0 f   LIBCMTD:xtoas.obj
 0001:00090d20       _itoa_s                    0000000180091d20 f   LIBCMTD:xtoas.obj
 0001:00090da0       _ltoa_s                    0000000180091da0 f   LIBCMTD:xtoas.obj
 0001:00090e00       _ui64toa_s                 0000000180091e00 f   LIBCMTD:xtoas.obj
 0001:00090e40       _ultoa_s                   0000000180091e40 f   LIBCMTD:xtoas.obj
 0001:00091a10       _mbstowcs_l                0000000180092a10 f   LIBCMTD:mbstowcs.obj
 0001:00091a50       _mbstowcs_l_helper         0000000180092a50 f   LIBCMTD:mbstowcs.obj
 0001:00091fc0       _mbstowcs_s_l              0000000180092fc0 f   LIBCMTD:mbstowcs.obj
 0001:00092550       mbstowcs                   0000000180093550 f   LIBCMTD:mbstowcs.obj
 0001:000925b0       mbstowcs_s                 00000001800935b0 f   LIBCMTD:mbstowcs.obj
 0001:00092690       _wcstombs_l                0000000180093690 f   LIBCMTD:wcstombs.obj
 0001:000926d0       _wcstombs_l_helper         00000001800936d0 f   LIBCMTD:wcstombs.obj
 0001:00092ee0       _wcstombs_s_l              0000000180093ee0 f   LIBCMTD:wcstombs.obj
 0001:000933e0       wcstombs                   00000001800943e0 f   LIBCMTD:wcstombs.obj
 0001:00093410       wcstombs_s                 0000000180094410 f   LIBCMTD:wcstombs.obj
 0001:00093460       _i64tow_s                  0000000180094460 f   LIBCMTD:xtows.obj
 0001:000934c0       _itow_s                    00000001800944c0 f   LIBCMTD:xtows.obj
 0001:00093540       _ltow_s                    0000000180094540 f   LIBCMTD:xtows.obj
 0001:000935a0       _ui64tow_s                 00000001800945a0 f   LIBCMTD:xtows.obj
 0001:000935e0       _ultow_s                   00000001800945e0 f   LIBCMTD:xtows.obj
 0001:000941f0       _vsnprintf_c               00000001800951f0 f   LIBCMTD:vsnprnc.obj
 0001:00094260       _vsnprintf_c_l             0000000180095260 f   LIBCMTD:vsnprnc.obj
 0001:000942d0       _vsnprintf_helper          00000001800952d0 f   LIBCMTD:vsnprnc.obj
 0001:000945b0       _vsnprintf_s               00000001800955b0 f   LIBCMTD:vsnprnc.obj
 0001:00094600       _vsnprintf_s_l             0000000180095600 f   LIBCMTD:vsnprnc.obj
 0001:00094ba0       _vsprintf_p                0000000180095ba0 f   LIBCMTD:vsnprnc.obj
 0001:00094c10       _vsprintf_p_l              0000000180095c10 f   LIBCMTD:vsnprnc.obj
 0001:00094c80       _vsprintf_s_l              0000000180095c80 f   LIBCMTD:vsnprnc.obj
 0001:00095010       vsprintf_s                 0000000180096010 f   LIBCMTD:vsnprnc.obj
 0001:00095050       __GSHandlerCheck_SEH       0000000180096050 f   LIBCMTD:gshandlerseh.obj
 0001:00095110       _vscprintf                 0000000180096110 f   LIBCMTD:vsprintf.obj
 0001:00095140       _vscprintf_helper          0000000180096140 f   LIBCMTD:vsprintf.obj
 0001:00095290       _vscprintf_l               0000000180096290 f   LIBCMTD:vsprintf.obj
 0001:000952d0       _vscprintf_p               00000001800962d0 f   LIBCMTD:vsprintf.obj
 0001:00095300       _vscprintf_p_l             0000000180096300 f   LIBCMTD:vsprintf.obj
 0001:00095340       _vsprintf_l                0000000180096340 f   LIBCMTD:vsprintf.obj
 0001:000955b0       vsprintf                   00000001800965b0 f   LIBCMTD:vsprintf.obj
 0001:000955e0       _fclose_nolock             00000001800965e0 f   LIBCMTD:fclose.obj
 0001:00095730       fclose                     0000000180096730 f   LIBCMTD:fclose.obj
 0001:00095830       _commit                    0000000180096830 f   LIBCMTD:commit.obj
 0001:00095ac0       _write                     0000000180096ac0 f   LIBCMTD:write.obj
 0001:00095d60       _write_nolock              0000000180096d60 f   LIBCMTD:write.obj
 0001:00097590       _strtol_l                  0000000180098590 f   LIBCMTD:strtol.obj
 0001:000975d0       _strtoul_l                 00000001800985d0 f   LIBCMTD:strtol.obj
 0001:00097610       strtol                     0000000180098610 f   LIBCMTD:strtol.obj
 0001:00097680       strtoul                    0000000180098680 f   LIBCMTD:strtol.obj
 0001:000976f0       _iswctype_l                00000001800986f0 f   LIBCMTD:iswctype.obj
 0001:00097720       is_wctype                  0000000180098720 f   LIBCMTD:iswctype.obj
 0001:00097750       iswctype                   0000000180098750 f   LIBCMTD:iswctype.obj
 0001:000977d0       _lseeki64                  00000001800987d0 f   LIBCMTD:lseeki64.obj
 0001:00097a80       _lseeki64_nolock           0000000180098a80 f   LIBCMTD:lseeki64.obj
 0001:00097ba0       _getbuf                    0000000180098ba0 f   LIBCMTD:_getbuf.obj
 0001:00097cb0       ___lc_codepage_func        0000000180098cb0 f   LIBCMTD:initctyp.obj
 0001:00097d10       ___lc_collate_cp_func      0000000180098d10 f   LIBCMTD:initctyp.obj
 0001:00097d70       ___lc_locale_name_func     0000000180098d70 f   LIBCMTD:initctyp.obj
 0001:00097dd0       ___mb_cur_max_func         0000000180098dd0 f   LIBCMTD:initctyp.obj
 0001:00097e30       ___mb_cur_max_l_func       0000000180098e30 f   LIBCMTD:initctyp.obj
 0001:00097e70       __init_ctype               0000000180098e70 f   LIBCMTD:initctyp.obj
 0001:00098750       wcsnlen                    0000000180099750 f   LIBCMTD:wcslen_s.obj
 0001:000987b0       _wmakepath_s               00000001800997b0 f   LIBCMTD:wmakepath_s.obj
 0001:00098d30       _wsplitpath_s              0000000180099d30 f   LIBCMTD:wsplitpath_s.obj
 0001:00099710       __DestructExceptionObject  000000018009a710 f   LIBCMTD:frame.obj
 0001:00099800       ??0bad_exception@std@@QEAA@AEBV01@@Z 000000018009a800 f i LIBCMTD:frame.obj
 0001:00099840       ??0bad_exception@std@@QEAA@PEBD@Z 000000018009a840 f i LIBCMTD:frame.obj
 0001:00099880       ??1bad_exception@std@@UEAA@XZ 000000018009a880 f i LIBCMTD:frame.obj
 0001:000998b0       ??_Ebad_exception@std@@UEAAPEAXI@Z 000000018009a8b0 f i LIBCMTD:frame.obj
 0001:000998b0       ??_Gbad_exception@std@@UEAAPEAXI@Z 000000018009a8b0 f i LIBCMTD:frame.obj
 0001:0009a880       ?__uncaught_exception@@YA_NXZ 000000018009b880 f   LIBCMTD:frame.obj
 0001:0009a8b0       ?_is_exception_typeof@@YAHAEBVtype_info@@PEAU_EXCEPTION_POINTERS@@@Z 000000018009b8b0 f   LIBCMTD:frame.obj
 0001:0009aa00       _SetWinRTOutOfMemoryExceptionCallback 000000018009ba00 f   LIBCMTD:frame.obj
 0001:0009aa20       __AdjustPointer            000000018009ba20 f   LIBCMTD:frame.obj
 0001:0009aaa0       __BuildCatchObject         000000018009baa0 f   LIBCMTD:frame.obj
 0001:0009abe0       __BuildCatchObjectHelper   000000018009bbe0 f   LIBCMTD:frame.obj
 0001:0009b010       __CxxCallCatchBlock        000000018009c010 f   LIBCMTD:frame.obj
 0001:0009b280       __CxxDetectRethrow         000000018009c280 f   LIBCMTD:frame.obj
 0001:0009b330       __CxxExceptionFilter       000000018009c330 f   LIBCMTD:frame.obj
 0001:0009b670       __CxxQueryExceptionSize    000000018009c670 f   LIBCMTD:frame.obj
 0001:0009b680       __CxxRegisterExceptionObject 000000018009c680 f   LIBCMTD:frame.obj
 0001:0009b810       __CxxUnregisterExceptionObject 000000018009c810 f   LIBCMTD:frame.obj
 0001:0009b9d0       __FrameUnwindFilter        000000018009c9d0 f   LIBCMTD:frame.obj
 0001:0009ba60       __FrameUnwindToState       000000018009ca60 f   LIBCMTD:frame.obj
 0001:0009bcc0       __GetPlatformExceptionInfo 000000018009ccc0 f   LIBCMTD:frame.obj
 0001:0009bdd0       __InternalCxxFrameHandler  000000018009cdd0 f   LIBCMTD:frame.obj
 0001:0009c1f0       __TypeMatch                000000018009d1f0 f   LIBCMTD:frame.obj
 0001:0009c3e0       ?__GetCurrentState@@YAHPEA_KPEAU_xDISPATCHER_CONTEXT@@PEBU_s_FuncInfo@@@Z 000000018009d3e0 f   LIBCMTD:ehstate.obj
 0001:0009c440       ?__GetUnwindTryBlock@@YAHPEA_KPEAU_xDISPATCHER_CONTEXT@@PEBU_s_FuncInfo@@@Z 000000018009d440 f   LIBCMTD:ehstate.obj
 0001:0009c490       ?__SetState@@YAXPEA_KPEAU_xDISPATCHER_CONTEXT@@PEBU_s_FuncInfo@@H@Z 000000018009d490 f   LIBCMTD:ehstate.obj
 0001:0009c4c0       ?__SetUnwindTryBlock@@YAXPEA_KPEAU_xDISPATCHER_CONTEXT@@PEBU_s_FuncInfo@@H@Z 000000018009d4c0 f   LIBCMTD:ehstate.obj
 0001:0009c530       ?__StateFromControlPc@@YAHPEBU_s_FuncInfo@@PEAU_xDISPATCHER_CONTEXT@@@Z 000000018009d530 f   LIBCMTD:ehstate.obj
 0001:0009c560       ?__StateFromIp@@YAHPEBU_s_FuncInfo@@PEAU_xDISPATCHER_CONTEXT@@_J@Z 000000018009d560 f   LIBCMTD:ehstate.obj
 0001:0009c640       __init_collate             000000018009d640 f   LIBCMTD:initcoll.obj
 0001:0009c660       memcmp                     000000018009d660 f   LIBCMTD:memcmp.obj
 0001:0009c730       wcscmp                     000000018009d730 f   LIBCMTD:wcscmp.obj
 0001:0009c7b0       wcscspn                    000000018009d7b0 f   LIBCMTD:wcscspn.obj
 0001:0009c850       wcsncmp                    000000018009d850 f   LIBCMTD:wcsncmp.obj
 0001:0009c8e0       wcspbrk                    000000018009d8e0 f   LIBCMTD:wcspbrk.obj
 0001:0009d5d0       __get_qualified_locale     000000018009e5d0 f   LIBCMTD:getqloc.obj
 0001:0009e680       __get_qualified_locale_downlevel 000000018009f680 f   LIBCMTD:getqloc_downlevel.obj
 0001:0009e9f0       __mtold12                  000000018009f9f0 f   LIBCMTD:mantold.obj
 0001:0009f220       _strtof_l                  00000001800a0220 f   LIBCMTD:strtoq.obj
 0001:0009f260       _strtoi64                  00000001800a0260 f   LIBCMTD:strtoq.obj
 0001:0009f2d0       _strtoi64_l                00000001800a02d0 f   LIBCMTD:strtoq.obj
 0001:0009f310       _strtoimax_l               00000001800a0310 f   LIBCMTD:strtoq.obj
 0001:0009f350       _strtold_l                 00000001800a0350 f   LIBCMTD:strtoq.obj
 0001:0009f380       _strtoll_l                 00000001800a0380 f   LIBCMTD:strtoq.obj
 0001:0009f3c0       _strtoui64                 00000001800a03c0 f   LIBCMTD:strtoq.obj
 0001:0009f430       _strtoui64_l               00000001800a0430 f   LIBCMTD:strtoq.obj
 0001:0009f470       _strtoull_l                00000001800a0470 f   LIBCMTD:strtoq.obj
 0001:0009f4b0       _strtoumax_l               00000001800a04b0 f   LIBCMTD:strtoq.obj
 0001:0009f4f0       strtof                     00000001800a04f0 f   LIBCMTD:strtoq.obj
 0001:0009f520       strtoimax                  00000001800a0520 f   LIBCMTD:strtoq.obj
 0001:0009f550       strtold                    00000001800a0550 f   LIBCMTD:strtoq.obj
 0001:0009f580       strtoll                    00000001800a0580 f   LIBCMTD:strtoq.obj
 0001:0009f5b0       strtoull                   00000001800a05b0 f   LIBCMTD:strtoq.obj
 0001:0009f5e0       strtoumax                  00000001800a05e0 f   LIBCMTD:strtoq.obj
 0001:0009f610       _validate_param_reuseW     00000001800a0610 f   LIBCMTD:woutputp.obj
 0001:0009f980       _woutput_p_l               00000001800a0980 f   LIBCMTD:woutputp.obj
 0001:000a3b20       _woutput_s_l               00000001800a4b20 f   LIBCMTD:woutputs.obj
 0001:000a5410       _fputwc_nolock             00000001800a6410 f   LIBCMTD:fputwc.obj
 0001:000a5870       fputwc                     00000001800a6870 f   LIBCMTD:fputwc.obj
 0001:000a5970       putwc                      00000001800a6970 f   LIBCMTD:fputwc.obj
 0001:000a59a0       _mbtowc_l                  00000001800a69a0 f   LIBCMTD:mbtowc.obj
 0001:000a5ce0       mbtowc                     00000001800a6ce0 f   LIBCMTD:mbtowc.obj
 0001:000a5d10       _close                     00000001800a6d10 f   LIBCMTD:close.obj
 0001:000a5f90       _close_nolock              00000001800a6f90 f   LIBCMTD:close.obj
 0001:000a60a0       _freebuf                   00000001800a70a0 f   LIBCMTD:_freebuf.obj
 0001:000a6160       __lock_fhandle             00000001800a7160 f   LIBCMTD:osfinfo.obj
 0001:000a6230       _alloc_osfhnd              00000001800a7230 f   LIBCMTD:osfinfo.obj
 0001:000a6510       _free_osfhnd               00000001800a7510 f   LIBCMTD:osfinfo.obj
 0001:000a6640       _get_osfhandle             00000001800a7640 f   LIBCMTD:osfinfo.obj
 0001:000a6840       _open_osfhandle            00000001800a7840 f   LIBCMTD:osfinfo.obj
 0001:000a6ab0       _set_osfhnd                00000001800a7ab0 f   LIBCMTD:osfinfo.obj
 0001:000a6bc0       _unlock_fhandle            00000001800a7bc0 f   LIBCMTD:osfinfo.obj
 0001:000a6c00       _putwch                    00000001800a7c00 f   LIBCMTD:putwch.obj
 0001:000a6c40       _putwch_nolock             00000001800a7c40 f   LIBCMTD:putwch.obj
 0001:000a6cb0       ?_ValidateExecute@@YAHP6A_JXZ@Z 00000001800a7cb0 f   LIBCMTD:validate.obj
 0001:000a6ce0       ?_ValidateRead@@YAHPEBXI@Z 00000001800a7ce0 f   LIBCMTD:validate.obj
 0001:000a6d10       ?_ValidateWrite@@YAHPEAXI@Z 00000001800a7d10 f   LIBCMTD:validate.obj
 0001:000a6d50       _CallSettingFrame          00000001800a7d50 f   LIBCMTD:handlers.obj
 0001:000a6d90       _GetNextInstrOffset        00000001800a7d90 f   LIBCMTD:handlers.obj
 0001:000a6da0       _wtoi                      00000001800a7da0 f   LIBCMTD:wtox.obj
 0001:000a6dc0       _wtoi64                    00000001800a7dc0 f   LIBCMTD:wtox.obj
 0001:000a6de0       _wtoi64_l                  00000001800a7de0 f   LIBCMTD:wtox.obj
 0001:000a6e10       _wtoi_l                    00000001800a7e10 f   LIBCMTD:wtox.obj
 0001:000a6e40       _wtol                      00000001800a7e40 f   LIBCMTD:wtox.obj
 0001:000a6e60       _wtol_l                    00000001800a7e60 f   LIBCMTD:wtox.obj
 0001:000a6e90       _wtoll                     00000001800a7e90 f   LIBCMTD:wtox.obj
 0001:000a6eb0       _wtoll_l                   00000001800a7eb0 f   LIBCMTD:wtox.obj
 0001:000a6ee0       wcschr                     00000001800a7ee0 f   LIBCMTD:wcschr.obj
 0001:000a7040       _wcsicmp                   00000001800a8040 f   LIBCMTD:wcsicmp.obj
 0001:000a7290       _wcsicmp_l                 00000001800a8290 f   LIBCMTD:wcsicmp.obj
 0001:000a7600       _wcsnicmp                  00000001800a8600 f   LIBCMTD:wcsnicmp.obj
 0001:000a78a0       _wcsnicmp_l                00000001800a88a0 f   LIBCMTD:wcsnicmp.obj
 0001:000a7c30       _strtod_l                  00000001800a8c30 f   LIBCMTD:strtod.obj
 0001:000a7f50       strtod                     00000001800a8f50 f   LIBCMTD:strtod.obj
 0001:000a84b0       _wcstol_l                  00000001800a94b0 f   LIBCMTD:wcstol.obj
 0001:000a84f0       _wcstoul_l                 00000001800a94f0 f   LIBCMTD:wcstol.obj
 0001:000a8530       wcstol                     00000001800a9530 f   LIBCMTD:wcstol.obj
 0001:000a8560       wcstoul                    00000001800a9560 f   LIBCMTD:wcstol.obj
 0001:000a85a0       _flswbuf                   00000001800a95a0 f   LIBCMTD:_flswbuf.obj
 0001:000a8950       __termconout               00000001800a9950 f   LIBCMTD:initcon.obj
 0001:000a8980       __initconout               00000001800a9980 f   LIBCMTD:initcon.obj
 0001:000a9050       _wcstof_l                  00000001800aa050 f   LIBCMTD:wcstoq.obj
 0001:000a91e0       _wcstoi64                  00000001800aa1e0 f   LIBCMTD:wcstoq.obj
 0001:000a9250       _wcstoi64_l                00000001800aa250 f   LIBCMTD:wcstoq.obj
 0001:000a9290       _wcstoimax_l               00000001800aa290 f   LIBCMTD:wcstoq.obj
 0001:000a92d0       _wcstold_l                 00000001800aa2d0 f   LIBCMTD:wcstoq.obj
 0001:000a9300       _wcstoll_l                 00000001800aa300 f   LIBCMTD:wcstoq.obj
 0001:000a9340       _wcstoui64                 00000001800aa340 f   LIBCMTD:wcstoq.obj
 0001:000a93b0       _wcstoui64_l               00000001800aa3b0 f   LIBCMTD:wcstoq.obj
 0001:000a93f0       _wcstoull_l                00000001800aa3f0 f   LIBCMTD:wcstoq.obj
 0001:000a9430       _wcstoumax_l               00000001800aa430 f   LIBCMTD:wcstoq.obj
 0001:000a9470       wcstof                     00000001800aa470 f   LIBCMTD:wcstoq.obj
 0001:000a94a0       wcstoimax                  00000001800aa4a0 f   LIBCMTD:wcstoq.obj
 0001:000a94d0       wcstold                    00000001800aa4d0 f   LIBCMTD:wcstoq.obj
 0001:000a9500       wcstoll                    00000001800aa500 f   LIBCMTD:wcstoq.obj
 0001:000a9530       wcstoull                   00000001800aa530 f   LIBCMTD:wcstoq.obj
 0001:000a9560       wcstoumax                  00000001800aa560 f   LIBCMTD:wcstoq.obj
 0001:000a9590       _towlower_l                00000001800aa590 f   LIBCMTD:towlower.obj
 0001:000a9750       towlower                   00000001800aa750 f   LIBCMTD:towlower.obj
 0001:000a9770       _fltin2                    00000001800aa770 f   LIBCMTD:cfin.obj
 0001:000a98c0       _wchartodigit              00000001800aa8c0 f   LIBCMTD:wchtodig.obj
 0001:000a9c30       _wcstod_l                  00000001800aac30 f   LIBCMTD:wcstod.obj
 0001:000a9ee0       wcstod                     00000001800aaee0 f   LIBCMTD:wcstod.obj
 0001:000a9f10       __crtLCMapStringW          00000001800aaf10 f   LIBCMTD:w_map.obj
 0001:000a9f80       _wfltin2                   00000001800aaf80 f   LIBCMTD:wcfin.obj
 0001:000aa0d0       __WSTRINGTOLD_L            00000001800ab0d0 f   LIBCMTD:wstrgtold.obj
 0001:000aa180       __wstrgtold12_l            00000001800ab180 f   LIBCMTD:wstrgtold.obj
 0001:000aaf84       RaiseException             00000001800abf84 f   kernel32:KERNEL32.dll
 0001:000aaf8a       GetLastError               00000001800abf8a f   kernel32:KERNEL32.dll
 0001:000aaf90       FreeLibrary                00000001800abf90 f   kernel32:KERNEL32.dll
 0001:000aaf96       GetProcAddress             00000001800abf96 f   kernel32:KERNEL32.dll
 0001:000aaf9c       LoadLibraryExA             00000001800abf9c f   kernel32:KERNEL32.dll
 0001:000aafa2       EncodePointer              00000001800abfa2 f   kernel32:KERNEL32.dll
 0001:000aafa8       DecodePointer              00000001800abfa8 f   kernel32:KERNEL32.dll
 0001:000aafae       GetCommandLineA            00000001800abfae f   kernel32:KERNEL32.dll
 0001:000aafb4       GetCurrentThreadId         00000001800abfb4 f   kernel32:KERNEL32.dll
 0001:000aafba       EnterCriticalSection       00000001800abfba f   kernel32:KERNEL32.dll
 0001:000aafc0       LeaveCriticalSection       00000001800abfc0 f   kernel32:KERNEL32.dll
 0001:000aafc6       DeleteCriticalSection      00000001800abfc6 f   kernel32:KERNEL32.dll
 0001:000aafcc       FatalAppExitA              00000001800abfcc f   kernel32:KERNEL32.dll
 0001:000aafd2       GetModuleFileNameW         00000001800abfd2 f   kernel32:KERNEL32.dll
 0001:000aafd8       GetModuleHandleExW         00000001800abfd8 f   kernel32:KERNEL32.dll
 0001:000aafde       HeapSize                   00000001800abfde f   kernel32:KERNEL32.dll
 0001:000aafe4       HeapValidate               00000001800abfe4 f   kernel32:KERNEL32.dll
 0001:000aafea       GetSystemInfo              00000001800abfea f   kernel32:KERNEL32.dll
 0001:000aaff0       RtlUnwindEx                00000001800abff0 f   kernel32:KERNEL32.dll
 0001:000aaff6       IsDebuggerPresent          00000001800abff6 f   kernel32:KERNEL32.dll
 0001:000aaffc       IsProcessorFeaturePresent  00000001800abffc f   kernel32:KERNEL32.dll
 0001:000ab002       GetStdHandle               00000001800ac002 f   kernel32:KERNEL32.dll
 0001:000ab008       WriteFile                  00000001800ac008 f   kernel32:KERNEL32.dll
 0001:000ab00e       SetLastError               00000001800ac00e f   kernel32:KERNEL32.dll
 0001:000ab014       GetCurrentThread           00000001800ac014 f   kernel32:KERNEL32.dll
 0001:000ab01a       ExitProcess                00000001800ac01a f   kernel32:KERNEL32.dll
 0001:000ab020       AreFileApisANSI            00000001800ac020 f   kernel32:KERNEL32.dll
 0001:000ab026       MultiByteToWideChar        00000001800ac026 f   kernel32:KERNEL32.dll
 0001:000ab02c       WideCharToMultiByte        00000001800ac02c f   kernel32:KERNEL32.dll
 0001:000ab032       GetProcessHeap             00000001800ac032 f   kernel32:KERNEL32.dll
 0001:000ab038       GetFileType                00000001800ac038 f   kernel32:KERNEL32.dll
 0001:000ab03e       GetStartupInfoW            00000001800ac03e f   kernel32:KERNEL32.dll
 0001:000ab044       QueryPerformanceCounter    00000001800ac044 f   kernel32:KERNEL32.dll
 0001:000ab04a       GetCurrentProcessId        00000001800ac04a f   kernel32:KERNEL32.dll
 0001:000ab050       GetSystemTimeAsFileTime    00000001800ac050 f   kernel32:KERNEL32.dll
 0001:000ab056       GetEnvironmentStringsW     00000001800ac056 f   kernel32:KERNEL32.dll
 0001:000ab05c       FreeEnvironmentStringsW    00000001800ac05c f   kernel32:KERNEL32.dll
 0001:000ab062       RtlCaptureContext          00000001800ac062 f   kernel32:KERNEL32.dll
 0001:000ab068       RtlLookupFunctionEntry     00000001800ac068 f   kernel32:KERNEL32.dll
 0001:000ab06e       RtlVirtualUnwind           00000001800ac06e f   kernel32:KERNEL32.dll
 0001:000ab074       UnhandledExceptionFilter   00000001800ac074 f   kernel32:KERNEL32.dll
 0001:000ab07a       SetUnhandledExceptionFilter 00000001800ac07a f   kernel32:KERNEL32.dll
 0001:000ab080       InitializeCriticalSectionAndSpinCount 00000001800ac080 f   kernel32:KERNEL32.dll
 0001:000ab086       CreateEventW               00000001800ac086 f   kernel32:KERNEL32.dll
 0001:000ab08c       Sleep                      00000001800ac08c f   kernel32:KERNEL32.dll
 0001:000ab092       GetCurrentProcess          00000001800ac092 f   kernel32:KERNEL32.dll
 0001:000ab098       TerminateProcess           00000001800ac098 f   kernel32:KERNEL32.dll
 0001:000ab09e       TlsAlloc                   00000001800ac09e f   kernel32:KERNEL32.dll
 0001:000ab0a4       TlsGetValue                00000001800ac0a4 f   kernel32:KERNEL32.dll
 0001:000ab0aa       TlsSetValue                00000001800ac0aa f   kernel32:KERNEL32.dll
 0001:000ab0b0       TlsFree                    00000001800ac0b0 f   kernel32:KERNEL32.dll
 0001:000ab0b6       GetTickCount               00000001800ac0b6 f   kernel32:KERNEL32.dll
 0001:000ab0bc       GetModuleHandleW           00000001800ac0bc f   kernel32:KERNEL32.dll
 0001:000ab0c2       CreateSemaphoreW           00000001800ac0c2 f   kernel32:KERNEL32.dll
 0001:000ab0c8       LoadLibraryExW             00000001800ac0c8 f   kernel32:KERNEL32.dll
 0001:000ab0ce       IsValidCodePage            00000001800ac0ce f   kernel32:KERNEL32.dll
 0001:000ab0d4       GetACP                     00000001800ac0d4 f   kernel32:KERNEL32.dll
 0001:000ab0da       GetOEMCP                   00000001800ac0da f   kernel32:KERNEL32.dll
 0001:000ab0e0       GetCPInfo                  00000001800ac0e0 f   kernel32:KERNEL32.dll
 0001:000ab0e6       RtlPcToFileHeader          00000001800ac0e6 f   kernel32:KERNEL32.dll
 0001:000ab0ec       HeapAlloc                  00000001800ac0ec f   kernel32:KERNEL32.dll
 0001:000ab0f2       HeapFree                   00000001800ac0f2 f   kernel32:KERNEL32.dll
 0001:000ab0f8       SetConsoleCtrlHandler      00000001800ac0f8 f   kernel32:KERNEL32.dll
 0001:000ab0fe       OutputDebugStringW         00000001800ac0fe f   kernel32:KERNEL32.dll
 0001:000ab104       WaitForSingleObjectEx      00000001800ac104 f   kernel32:KERNEL32.dll
 0001:000ab10a       CreateThread               00000001800ac10a f   kernel32:KERNEL32.dll
 0001:000ab110       OutputDebugStringA         00000001800ac110 f   kernel32:KERNEL32.dll
 0001:000ab116       WriteConsoleW              00000001800ac116 f   kernel32:KERNEL32.dll
 0001:000ab11c       HeapReAlloc                00000001800ac11c f   kernel32:KERNEL32.dll
 0001:000ab122       HeapQueryInformation       00000001800ac122 f   kernel32:KERNEL32.dll
 0001:000ab128       GetDateFormatW             00000001800ac128 f   kernel32:KERNEL32.dll
 0001:000ab12e       GetTimeFormatW             00000001800ac12e f   kernel32:KERNEL32.dll
 0001:000ab134       CompareStringW             00000001800ac134 f   kernel32:KERNEL32.dll
 0001:000ab13a       LCMapStringW               00000001800ac13a f   kernel32:KERNEL32.dll
 0001:000ab140       GetLocaleInfoW             00000001800ac140 f   kernel32:KERNEL32.dll
 0001:000ab146       IsValidLocale              00000001800ac146 f   kernel32:KERNEL32.dll
 0001:000ab14c       GetUserDefaultLCID         00000001800ac14c f   kernel32:KERNEL32.dll
 0001:000ab152       EnumSystemLocalesW         00000001800ac152 f   kernel32:KERNEL32.dll
 0001:000ab158       VirtualQuery               00000001800ac158 f   kernel32:KERNEL32.dll
 0001:000ab15e       GetStringTypeW             00000001800ac15e f   kernel32:KERNEL32.dll
 0001:000ab164       FlushFileBuffers           00000001800ac164 f   kernel32:KERNEL32.dll
 0001:000ab16a       GetConsoleCP               00000001800ac16a f   kernel32:KERNEL32.dll
 0001:000ab170       GetConsoleMode             00000001800ac170 f   kernel32:KERNEL32.dll
 0001:000ab176       SetFilePointerEx           00000001800ac176 f   kernel32:KERNEL32.dll
 0001:000ab17c       CloseHandle                00000001800ac17c f   kernel32:KERNEL32.dll
 0001:000ab182       SetStdHandle               00000001800ac182 f   kernel32:KERNEL32.dll
 0001:000ab188       CreateFileW                00000001800ac188 f   kernel32:KERNEL32.dll
 0002:00000000       __xc_a                     00000001800c8000     LIBCMTD:crt0init.obj
 0002:00000340       __xc_z                     00000001800c8340     LIBCMTD:crt0init.obj
 0002:00000450       __xi_a                     00000001800c8450     LIBCMTD:crt0init.obj
 0002:00000690       __xi_z                     00000001800c8690     LIBCMTD:crt0init.obj
 0002:000007a0       __xp_a                     00000001800c87a0     LIBCMTD:crt0init.obj
 0002:00000ad8       __xp_z                     00000001800c8ad8     LIBCMTD:crt0init.obj
 0002:00000be8       __xt_a                     00000001800c8be8     LIBCMTD:crt0init.obj
 0002:00000cf8       __xt_z                     00000001800c8cf8     LIBCMTD:crt0init.obj
 0002:00000e48       ??_C@_0BK@KKGDMEEI@PhysX3CommonDEBUG_x64?4dll?$AA@ 00000001800c8e48     WindowsCookingDelayLoadHook.obj
 0002:00000e68       ??_C@_0BM@FGKCIMCL@PhysX3CommonCHECKED_x64?4dll?$AA@ 00000001800c8e68     WindowsCookingDelayLoadHook.obj
 0002:00000e90       ??_C@_0BM@NIMEGLC@PhysX3CommonPROFILE_x64?4dll?$AA@ 00000001800c8e90     WindowsCookingDelayLoadHook.obj
 0002:00000eb8       ??_C@_0BF@HEEMOJKO@PhysX3Common_x64?4dll?$AA@ 00000001800c8eb8     WindowsCookingDelayLoadHook.obj
 0002:00000ed8       ??_C@_0BK@LHJEBOBO@PhysX3CommonDEBUG_x86?4dll?$AA@ 00000001800c8ed8     WindowsCookingDelayLoadHook.obj
 0002:00000ef8       ??_C@_0BM@ELFFFGHN@PhysX3CommonCHECKED_x86?4dll?$AA@ 00000001800c8ef8     WindowsCookingDelayLoadHook.obj
 0002:00000f20       ??_C@_0BM@BAHLJMOE@PhysX3CommonPROFILE_x86?4dll?$AA@ 00000001800c8f20     WindowsCookingDelayLoadHook.obj
 0002:00000f48       ??_C@_0BF@GJLLDDPI@PhysX3Common_x86?4dll?$AA@ 00000001800c8f48     WindowsCookingDelayLoadHook.obj
 0002:00000f68       ??_C@_0BK@FCFCOGBN@PhysX3CommonDEBUG_arm?4dll?$AA@ 00000001800c8f68     WindowsCookingDelayLoadHook.obj
 0002:00000f88       ??_C@_0BM@KOJDKOHO@PhysX3CommonCHECKED_arm?4dll?$AA@ 00000001800c8f88     WindowsCookingDelayLoadHook.obj
 0002:00000fb0       ??_C@_0BM@PFLNGEOH@PhysX3CommonPROFILE_arm?4dll?$AA@ 00000001800c8fb0     WindowsCookingDelayLoadHook.obj
 0002:00000fd8       ??_C@_0BF@IMHNMLPL@PhysX3Common_arm?4dll?$AA@ 00000001800c8fd8     WindowsCookingDelayLoadHook.obj
 0002:00000ff8       ??_C@_08NNMANNNO@_x64?4dll?$AA@ 00000001800c8ff8     WindowsCookingDelayLoadHook.obj
 0002:00001008       ??_C@_0O@LLBCKODF@DEBUG_x64?4dll?$AA@ 00000001800c9008     WindowsCookingDelayLoadHook.obj
 0002:00001018       ??_C@_0BA@GBFEBCKH@CHECKED_x64?4dll?$AA@ 00000001800c9018     WindowsCookingDelayLoadHook.obj
 0002:00001030       ??_C@_0BA@DKHKNIDO@PROFILE_x64?4dll?$AA@ 00000001800c9030     WindowsCookingDelayLoadHook.obj
 0002:00001048       ??_C@_08MADHAHII@_x86?4dll?$AA@ 00000001800c9048     WindowsCookingDelayLoadHook.obj
 0002:00001058       ??_C@_0O@KGOFHEGD@DEBUG_x86?4dll?$AA@ 00000001800c9058     WindowsCookingDelayLoadHook.obj
 0002:00001068       ??_C@_0BA@HMKDMIPB@CHECKED_x86?4dll?$AA@ 00000001800c9068     WindowsCookingDelayLoadHook.obj
 0002:00001080       ??_C@_0BA@CHINACGI@PROFILE_x86?4dll?$AA@ 00000001800c9080     WindowsCookingDelayLoadHook.obj
 0002:000010a0       ?g_PXSinCoefficients0@aos@shdfnd@physx@@3UPX_VECTORF32@123@B 00000001800c90a0     RTreeCooking.obj
 0002:000010c0       ?reductionFactors@SubSortQuick@physx@@2QBMB 00000001800c90c0     RTreeCooking.obj
 0002:000010d0       ?stopAtTrisPerLeaf1@SubSortQuick@physx@@2QBIB 00000001800c90d0     RTreeCooking.obj
 0002:000011c0       ?g_PXSinCoefficients1@aos@shdfnd@physx@@3UPX_VECTORF32@123@B 00000001800c91c0     RTreeCooking.obj
 0002:000011e0       ?g_PXSinCoefficients2@aos@shdfnd@physx@@3UPX_VECTORF32@123@B 00000001800c91e0     RTreeCooking.obj
 0002:00001200       ?g_PXCosCoefficients0@aos@shdfnd@physx@@3UPX_VECTORF32@123@B 00000001800c9200     RTreeCooking.obj
 0002:00001220       ?g_PXCosCoefficients1@aos@shdfnd@physx@@3UPX_VECTORF32@123@B 00000001800c9220     RTreeCooking.obj
 0002:00001240       ?g_PXCosCoefficients2@aos@shdfnd@physx@@3UPX_VECTORF32@123@B 00000001800c9240     RTreeCooking.obj
 0002:00001260       ?g_PXTanCoefficients0@aos@shdfnd@physx@@3UPX_VECTORF32@123@B 00000001800c9260     RTreeCooking.obj
 0002:00001280       ?g_PXTanCoefficients1@aos@shdfnd@physx@@3UPX_VECTORF32@123@B 00000001800c9280     RTreeCooking.obj
 0002:000012a0       ?g_PXTanCoefficients2@aos@shdfnd@physx@@3UPX_VECTORF32@123@B 00000001800c92a0     RTreeCooking.obj
 0002:000012c0       ?g_PXASinCoefficients0@aos@shdfnd@physx@@3UPX_VECTORF32@123@B 00000001800c92c0     RTreeCooking.obj
 0002:000012e0       ?g_PXASinCoefficients1@aos@shdfnd@physx@@3UPX_VECTORF32@123@B 00000001800c92e0     RTreeCooking.obj
 0002:00001300       ?g_PXASinCoefficients2@aos@shdfnd@physx@@3UPX_VECTORF32@123@B 00000001800c9300     RTreeCooking.obj
 0002:00001320       ?g_PXATanCoefficients0@aos@shdfnd@physx@@3UPX_VECTORF32@123@B 00000001800c9320     RTreeCooking.obj
 0002:00001340       ?g_PXATanCoefficients1@aos@shdfnd@physx@@3UPX_VECTORF32@123@B 00000001800c9340     RTreeCooking.obj
 0002:00001360       ?g_PXATanCoefficients2@aos@shdfnd@physx@@3UPX_VECTORF32@123@B 00000001800c9360     RTreeCooking.obj
 0002:00001380       ?g_PXSinEstCoefficients@aos@shdfnd@physx@@3UPX_VECTORF32@123@B 00000001800c9380     RTreeCooking.obj
 0002:000013a0       ?g_PXCosEstCoefficients@aos@shdfnd@physx@@3UPX_VECTORF32@123@B 00000001800c93a0     RTreeCooking.obj
 0002:000013c0       ?g_PXASinEstCoefficients@aos@shdfnd@physx@@3UPX_VECTORF32@123@B 00000001800c93c0     RTreeCooking.obj
 0002:000013d8       ??_C@_0DC@NFHPPNDP@D?3?2PhysX?93?43?2PhysXSDK?2Include?2fo@ 00000001800c93d8     RTreeCooking.obj
 0002:00001418       ??_C@_08LJALFGJN@index?$DM?$DN2?$AA@ 00000001800c9418     RTreeCooking.obj
 0002:00001428       ??_C@_0DF@MOIGAICL@D?3?2PhysX?93?43?2PhysXSDK?2Include?2fo@ 00000001800c9428     RTreeCooking.obj
 0002:00001468       ??_C@_0BL@KNHPBBHJ@isValid?$CI?$CJ?5?$CG?$CG?5box?4isValid?$CI?$CJ?$AA@ 00000001800c9468     RTreeCooking.obj
 0002:00001488       ??_C@_0CN@HEFMNGKD@?4?4?2?4?4?2PhysXCooking?2src?2mesh?2RTre@ 00000001800c9488     RTreeCooking.obj
 0002:000014c0       ??_C@_0DP@MOLEKNBA@Input?5mesh?5triangle?8s?5vertex?5ind@ 00000001800c94c0     RTreeCooking.obj
 0002:00001510       ??_C@_0CE@OPCEFGPD@permute?5?$CL?5clusterSize?5?$DM?$DN?5permute@ 00000001800c9510     RTreeCooking.obj
 0002:00001540       ??_C@_0CG@PGDOFJGF@maxBoundsPerLeafPage?5?$DO?$DN?5RT_PAGES@ 00000001800c9540     RTreeCooking.obj
 0002:00001570       ??_C@_0BA@DLODHOME@clusterSize?5?$DO?50?$AA@ 00000001800c9570     RTreeCooking.obj
 0002:00001588       ??_C@_0CB@HNMOHOIM@permute?$FL0?$FN?5?$DM?5boundCenters?4size?$CI?$CJ@ 00000001800c9588     RTreeCooking.obj
 0002:000015b0       ??_C@_0CB@BHHEMBKC@permute?$FLi?$FN?5?$DM?5boundCenters?4size?$CI?$CJ@ 00000001800c95b0     RTreeCooking.obj
 0002:000015d8       ??_C@_0DE@FNPGHHHI@leftover?5?$DN?$DN?50?5?$HM?$HM?5cluster4?$CKi?5?$CL?5co@ 00000001800c95d8     RTreeCooking.obj
 0002:00001618       ??_C@_0CP@DKNKGHIK@splitEndL?9splitStartL?5?$DN?$DN?5splitSt@ 00000001800c9618     RTreeCooking.obj
 0002:00001650       ??_C@_0BJ@DBNEPNIE@splitStartL?5?$DM?$DN?5splitEndL?$AA@ 00000001800c9650     RTreeCooking.obj
 0002:00001670       ??_C@_0BJ@CMNIPACK@splitStartR?5?$DO?$DN?5splitEndR?$AA@ 00000001800c9670     RTreeCooking.obj
 0002:00001690       ??_C@_0P@FDBOEJDH@splitEndR?5?$DO?$DN?51?$AA@ 00000001800c9690     RTreeCooking.obj
 0002:000016a8       ??_C@_0BP@OBBGEEJF@splitEndL?5?$DM?5PxI32?$CIclusterSize?$CJ?$AA@ 00000001800c96a8     RTreeCooking.obj
 0002:000016d0       ??_C@_0EG@HPNFJDFJ@?$CIcountL0?5?$DN?$DN?5countR0?$CJ?5?$CG?$CG?5?$CIcountL0@ 00000001800c96d0     RTreeCooking.obj
 0002:00001728       ??_C@_0CG@HKJJBOBJ@PxU32?$CIcountL?5?$CL?5countR?$CJ?5?$DN?$DN?5cluste@ 00000001800c9728     RTreeCooking.obj
 0002:00001758       ??_C@_0BB@BLBBKHCG@split?4count?5?$DO?$DN?51?$AA@ 00000001800c9758     RTreeCooking.obj
 0002:00001770       ??_C@_0BH@CPBDCMGA@maxSplit?5?$CB?$DN?50xFFFFffff?$AA@ 00000001800c9770     RTreeCooking.obj
 0002:00001790       ??_C@_0O@KGFPNKLN@old?4count?5?$DO?51?$AA@ 00000001800c9790     RTreeCooking.obj
 0002:000017a0       ??_C@_0BA@MHFPJACL@splitLocal?5?$DO?$DN?51?$AA@ 00000001800c97a0     RTreeCooking.obj
 0002:000017b8       ??_C@_0BK@HBDDGBBB@old?4count?9splitLocal?5?$DO?$DN?51?$AA@ 00000001800c97b8     RTreeCooking.obj
 0002:000017d8       ??_C@_0BN@OMPBPJMJ@splits?4size?$CI?$CJ?5?$DN?$DN?5RT_PAGESIZE?$AA@ 00000001800c97d8     RTreeCooking.obj
 0002:00001800       ??_C@_0BD@CJCBODNJ@sum?5?$DN?$DN?5clusterSize?$AA@ 00000001800c9800     RTreeCooking.obj
 0002:00001818       ??_C@_0CB@OOGGJCCO@splitStarts?$FLj?91?$FN?$DM?$DNsplitStarts?$FLj?$FN@ 00000001800c9818     RTreeCooking.obj
 0002:00001840       ??_C@_0DA@IAEOKCLN@splitCounts?$FLj?$FN?5?$DO?50?5?$HM?$HM?5clusterSiz@ 00000001800c9840     RTreeCooking.obj
 0002:00001880       ??_C@_0DC@FKLAKLHP@splitStarts?$FLj?91?$FN?$CLsplitCounts?$FLj?91@ 00000001800c9880     RTreeCooking.obj
 0002:000018c0       ??_C@_0BJ@KOIGDPK@sumCounts?5?$DN?$DN?5clusterSize?$AA@ 00000001800c98c0     RTreeCooking.obj
 0002:000018e0       ??_C@_0ED@KNANPLO@splitStarts?$FLRT_PAGESIZE?91?$FN?$CLsplit@ 00000001800c98e0     RTreeCooking.obj
 0002:00001930       ??_C@_0BB@EAGMBNDP@splitCount?5?$DM?$DN?516?$AA@ 00000001800c9930     RTreeCooking.obj
 0002:00001948       ??_C@_0BA@FINHNEIC@splitCount?5?$DN?$DN?50?$AA@ 00000001800c9948     RTreeCooking.obj
 0002:00001960       ??_C@_0DA@DMMOJMPK@hint?5?$DN?$DN?5PxMeshCookingHint?3?3eCOOK@ 00000001800c9960     RTreeCooking.obj
 0002:000019a0       ??_C@_0BP@JDMAEMGC@permute?$FLnumBounds?$FN?5?$DN?$DN?5sentinel?$AA@ 00000001800c99a0     RTreeCooking.obj
 0002:000019c8       ??_C@_0BB@FMHDLFFI@?$CIq?4ptr?5?$CG?51?$CJ?5?$DN?$DN?50?$AA@ 00000001800c99c8     RTreeCooking.obj
 0002:000019e0       ??_C@_0L@DLMKKOLK@q?4isLeaf?$CI?$CJ?$AA@ 00000001800c99e0     RTreeCooking.obj
 0002:000019f0       ??_C@_0DJ@FPPKJOAC@child?4leafCount?5?$DN?$DN?5?91?5?$HM?$HM?5child?4b@ 00000001800c99f0     RTreeCooking.obj
 0002:00001a38       ??_C@_0BJ@OLBICDOH@q?4ptr?5?$CF?5RT_PAGESIZE?5?$DN?$DN?50?$AA@ 00000001800c9a38     RTreeCooking.obj
 0002:00001a58       ??_C@_0CF@NBHJNEIK@qtreeNodes?4size?$CI?$CJ?5?$CF?5RT_PAGESIZE?5@ 00000001800c9a58     RTreeCooking.obj
 0002:00001a88       ??_C@_0CD@GGMNBOAH@result?4mTotalNodes?5?$CF?5pageSize?5?$DN?$DN@ 00000001800c9a88     RTreeCooking.obj
 0002:00001ab8       ??_C@_0DK@NGNFHAEN@d?3?2physx?93?43?2physxsdk?2source?2fou@ 00000001800c9ab8     RTreeCooking.obj
 0002:00001b00       ??_C@_09GCLCCGEM@i?5?$DM?5mSize?$AA@ 00000001800c9b00     RTreeCooking.obj
 0002:00001b0c       ??_C@_05ICCGDNCO@mSize?$AA@ 00000001800c9b0c     RTreeCooking.obj
 0002:00001b18       ??_C@_07PGKBDHFC@i?$DMmSize?$AA@ 00000001800c9b18     RTreeCooking.obj
 0002:00001b28       ??_C@_0BM@BMFMDKFG@this?9?$DOcapacity?$CI?$CJ?5?$DM?5capacity?$AA@ 00000001800c9b28     RTreeCooking.obj
 0002:00001b50       ??_C@_0CP@CPGGIPKL@?$CI?$CBcapacity?$CJ?5?$HM?$HM?5?$CInewData?5?$CG?$CG?5?$CInewD@ 00000001800c9b50     RTreeCooking.obj
 0002:00001b90       ??_C@_0EB@LPICPEBI@d?3?2physx?93?43?2physxsdk?2source?2phy@ 00000001800c9b90     RTreeCooking.obj
 0002:00001be0       ??_C@_0BC@IFJJKIC@k?5?$DM?$DN?5right?9left?$CL1?$AA@ 00000001800c9be0     RTreeCooking.obj
 0002:00001bf8       ??_C@_0BC@KALADCPB@pivotNewIndex?5?$DO?50?$AA@ 00000001800c9bf8     RTreeCooking.obj
 0002:00001c10       ??_C@_0CK@HLNPMLG@pivotIndex?5?$DO?$DN?5left?5?$CG?$CG?5pivotIndex@ 00000001800c9c10     RTreeCooking.obj
 0002:00001c48       ??_C@_0BN@MBNGPAEL@cmpLtEq?$CIa?$FLi?$FN?0?5a?$FLstoreIndex?$FN?$CJ?$AA@ 00000001800c9c48     RTreeCooking.obj
 0002:00001c70       ??_C@_0BN@PDFALILH@cmpLtEq?$CIa?$FLstoreIndex?$FN?0?5a?$FLi?$FN?$CJ?$AA@ 00000001800c9c70     RTreeCooking.obj
 0002:00001c98       ??_C@_0DJ@JHOKCEGK@D?3?2PhysX?93?43?2PhysXSDK?2Source?2fou@ 00000001800c9c98     RTreeCooking.obj
 0002:00001ce0       ??_C@_0CC@OFEDJMLN@first?5?$DO?$DN?50?5?$CG?$CG?5last?5?$DM?5?$CIPxI32?$CJcoun@ 00000001800c9ce0     RTreeCooking.obj
 0002:00001d08       ??_C@_0CE@JEKBEHJN@?$CBcompare?$CIelements?$FLi?$FN?0elements?$FLi?9@ 00000001800c9d08     RTreeCooking.obj
 0002:00001d40       ??_C@_0EC@MPJJALLC@d?3?2physx?93?43?2physxsdk?2source?2fou@ 00000001800c9d40     RTreeCooking.obj
 0002:00001d90       ??_C@_08JNEJNCCA@?$CBempty?$CI?$CJ?$AA@ 00000001800c9d90     RTreeCooking.obj
 0002:00001da0       ??_C@_0BE@IEAAKGDK@i?$DM?$DNlast?5?$CG?$CG?5j?$DO?$DNfirst?$AA@ 00000001800c9da0     RTreeCooking.obj
 0002:00001db8       ??_C@_0BL@LHJILAEN@i?$DM?$DNlast?5?$CG?$CG?5first?$DM?$DN?$CIlast?91?$CJ?$AA@ 00000001800c9db8     RTreeCooking.obj
 0002:00001dd8       __real@3a03126f            00000001800c9dd8     RTreeCooking.obj
 0002:00001ddc       __real@3a83126f            00000001800c9ddc     RTreeCooking.obj
 0002:00001de0       __real@3f800000            00000001800c9de0     RTreeCooking.obj
 0002:00001de4       __real@41100000            00000001800c9de4     RTreeCooking.obj
 0002:00001de8       __real@41700000            00000001800c9de8     RTreeCooking.obj
 0002:00001dec       __real@42200000            00000001800c9dec     RTreeCooking.obj
 0002:00001df0       __real@477fff00            00000001800c9df0     RTreeCooking.obj
 0002:00001df4       __real@7e7fffff            00000001800c9df4     RTreeCooking.obj
 0002:00001df8       __real@7f7fffff            00000001800c9df8     RTreeCooking.obj
 0002:00001dfc       __real@ba83126f            00000001800c9dfc     RTreeCooking.obj
 0002:00001e00       __real@fe7fffff            00000001800c9e00     RTreeCooking.obj
 0002:00001e04       __real@ff7fffff            00000001800c9e04     RTreeCooking.obj
 0002:00001e40       ??_C@_0DO@NHGJHMOB@D?3?2PhysX?93?43?2PhysXSDK?2Source?2fou@ 00000001800c9e40     TriangleMeshBuilder.obj
 0002:00001e90       ??_C@_0O@JEHCGDAJ@value?$DM?$DN0xffff?$AA@ 00000001800c9e90     TriangleMeshBuilder.obj
 0002:00001ea0       ??_C@_0DD@CMJGDCNN@TriangleMesh?3?3loadFromDesc?3?5desc@ 00000001800c9ea0     TriangleMeshBuilder.obj
 0002:00001ee0       ??_C@_0DE@NHIHKD@?4?4?2?4?4?2PhysXCooking?2src?2mesh?2Tria@ 00000001800c9ee0     TriangleMeshBuilder.obj
 0002:00001f20       ??_C@_0FB@HKCCNMI@PxCookingParams?3?3meshSizePerform@ 00000001800c9f20     TriangleMeshBuilder.obj
 0002:00001f88       ??_C@_0CK@BJFFGDPK@input?5mesh?5contains?5corrupted?5ve@ 00000001800c9f88     TriangleMeshBuilder.obj
 0002:00001fc0       ??_C@_0BF@DKJOKPOK@materials?$FLi?$FN?$CB?$DN0xffff?$AA@ 00000001800c9fc0     TriangleMeshBuilder.obj
 0002:00001fe0       ??_C@_0BJ@BKHDBBHO@cleaning?5the?5mesh?5failed?$AA@ 00000001800c9fe0     TriangleMeshBuilder.obj
 0002:00002000       ??_C@_0BM@OIFKLHDN@?$DMallocation?5names?5disabled?$DO?$AA@ 00000001800ca000     TriangleMeshBuilder.obj
 0002:00002024       __real@40000000            00000001800ca024     TriangleMeshBuilder.obj
 0002:00002028       __real@c1b00000            00000001800ca028     TriangleMeshBuilder.obj
 0002:00002030       ??_C@_0DO@OADHAGPO@d?3?2physx?93?43?2physxsdk?2source?2fou@ 00000001800ca030     BigConvexDataBuilder.obj
 0002:00002080       ??_C@_0DH@IKCMPFPC@?4?4?2?4?4?2PhysXCooking?2src?2convex?2Bi@ 00000001800ca080     BigConvexDataBuilder.obj
 0002:000020c8       ??_C@_0BO@MNGACMON@Offset?$DMmSVM?9?$DOmData?4mNbSamples?$AA@ 00000001800ca0c8     BigConvexDataBuilder.obj
 0002:000020f0       ??_C@_0DK@ODHGGDEO@mSVM?9?$DOmData?4mValencies?$FLEL?4GetEdg@ 00000001800ca0f0     BigConvexDataBuilder.obj
 0002:00002138       ??_C@_0DK@MCENFKP@mSVM?9?$DOmData?4mValencies?$FLEL?4GetEdg@ 00000001800ca138     BigConvexDataBuilder.obj
 0002:00002180       ??_C@_0CL@MLDMBJDO@mSVM?9?$DOmData?4mNbAdjVerts?$DN?$DNEL?4GetN@ 00000001800ca180     BigConvexDataBuilder.obj
 0002:000021b8       ??_C@_08KEAKIBKP@Ref0?$DM256?$AA@ 00000001800ca1b8     BigConvexDataBuilder.obj
 0002:000021c8       ??_C@_08GPFGFCAK@Ref1?$DM256?$AA@ 00000001800ca1c8     BigConvexDataBuilder.obj
 0002:000021d4       __real@00000000            00000001800ca1d4     BigConvexDataBuilder.obj
 0002:000021d8       __real@3dcccccd            00000001800ca1d8     BigConvexDataBuilder.obj
 0002:000021dc       __real@3f000000            00000001800ca1dc     BigConvexDataBuilder.obj
 0002:000021e0       __real@bf800000            00000001800ca1e0     BigConvexDataBuilder.obj
 0002:000021f0       __xmm@80000000800000008000000080000000 00000001800ca1f0     BigConvexDataBuilder.obj
 0002:00002208       ??_C@_0M@JAJDAINE@value?$DM?$DN0xff?$AA@ 00000001800ca208     ConvexHullBuilder.obj
 0002:00002218       ??_C@_0DE@JCGJGFMG@?4?4?2?4?4?2PhysXCooking?2src?2convex?2Co@ 00000001800ca218     ConvexHullBuilder.obj
 0002:00002258       ??_C@_0BH@JIHLJCIJ@Copy?4GetNbEntries?$CI?$CJ?$DO?$DN4?$AA@ 00000001800ca258     ConvexHullBuilder.obj
 0002:00002278       ??_C@_0BH@MOCBDFAP@Copy?4GetNbEntries?$CI?$CJ?$DO?$DN2?$AA@ 00000001800ca278     ConvexHullBuilder.obj
 0002:00002298       ??_C@_0L@MBANLGDP@NbVerts?$DO?$DN3?$AA@ 00000001800ca298     ConvexHullBuilder.obj
 0002:000022a8       ??_C@_0BB@EBIJDKIN@WFaces?5?$HM?$HM?5DFaces?$AA@ 00000001800ca2a8     ConvexHullBuilder.obj
 0002:000022c0       ??_C@_0BM@OKKJIAKB@Entries?$FL0?$FN?5?$DN?$DN?5Entries?$FLNb?91?$FN?$AA@ 00000001800ca2c0     ConvexHullBuilder.obj
 0002:000022e8       ??_C@_0DP@KFEAHANP@Meshmerizer?3?3ExtractHullPolygons@ 00000001800ca2e8     ConvexHullBuilder.obj
 0002:00002334       ??_C@_06KDGGGLIJ@PxVec3?$AA@ 00000001800ca334     ConvexHullBuilder.obj
 0002:00002340       ??_C@_0BH@CCGEFODL@indices?$FLi?$CK3?$CL0?$FN?$DM?$DN0xffff?$AA@ 00000001800ca340     ConvexHullBuilder.obj
 0002:00002360       ??_C@_0BH@ODOKIBPL@indices?$FLi?$CK3?$CL1?$FN?$DM?$DN0xffff?$AA@ 00000001800ca360     ConvexHullBuilder.obj
 0002:00002380       ??_C@_0BH@HKAIOHPK@indices?$FLi?$CK3?$CL2?$FN?$DM?$DN0xffff?$AA@ 00000001800ca380     ConvexHullBuilder.obj
 0002:000023a0       ??_C@_0EB@MLICBFEL@ConvexHullBuilder?3?3Init?3?5convex?5@ 00000001800ca3a0     ConvexHullBuilder.obj
 0002:000023f0       ??_C@_0BE@KOOOMNLC@Gu?3?3HullPolygonData?$AA@ 00000001800ca3f0     ConvexHullBuilder.obj
 0002:00002408       ??_C@_0BA@OMHMECP@nbHullVerts?$DM256?$AA@ 00000001800ca408     ConvexHullBuilder.obj
 0002:00002420       ??_C@_0GF@OJLJHAMH@ConvexHullBuilder?3?3CreateTriangl@ 00000001800ca420     ConvexHullBuilder.obj
 0002:000024a0       ??_C@_0BO@KFMAHGLJ@NbTriangles?5?$DM?$DN?5MaxNbTriangles?$AA@ 00000001800ca4a0     ConvexHullBuilder.obj
 0002:000024c8       ??_C@_0DM@LLCHBGLA@Hull?5check?5failed?$CB?5Please?5report@ 00000001800ca4c8     ConvexHullBuilder.obj
 0002:00002510       ??_C@_0FO@PFKGIEJ@Hull?5check?5failed?$CB?5Hull?5seems?5to@ 00000001800ca510     ConvexHullBuilder.obj
 0002:00002580       ??_C@_0BL@MFNKFFFN@Reduced?5vertices?5hull?5data?$AA@ 00000001800ca580     ConvexHullBuilder.obj
 0002:000025a0       ??_C@_0CK@GNGILODA@currentIndex?5?$DM?5numReducedHullDat@ 00000001800ca5a0     ConvexHullBuilder.obj
 0002:000025d8       ??_C@_0CB@CGNHHAGO@Data?$FLj?$FN?5?$DM?5mHull?9?$DOmNbHullVertices@ 00000001800ca5d8     ConvexHullBuilder.obj
 0002:00002600       ??_C@_0DL@IAFKOCCK@ConvexHullBuilder?3?5convex?5hull?5h@ 00000001800ca600     ConvexHullBuilder.obj
 0002:00002648       ??_C@_0BG@GPCBPFAF@TriIndex?$DMmNbHullFaces?$AA@ 00000001800ca648     ConvexHullBuilder.obj
 0002:00002668       ??_C@_0CP@JLCGBLDE@PL?4n?4dot?$CImHullDataPolygons?$FLi?$FN?4mP@ 00000001800ca668     ConvexHullBuilder.obj
 0002:000026a0       ??_C@_0DH@FPEAADNN@mHullDataPolygons?$FLi?$FN?4mPlane?4dist@ 00000001800ca6a0     ConvexHullBuilder.obj
 0002:000026e8       ??_C@_09PNPFALML@triangles?$AA@ 00000001800ca6e8     ConvexHullBuilder.obj
 0002:000026f4       ??_C@_05FEEIMKBD@verts?$AA@ 00000001800ca6f4     ConvexHullBuilder.obj
 0002:00002700       ??_C@_0BJ@CIDDLGFP@triangles?$FLi?$CK3?$CL0?$FN?$DM?$DN0xffff?$AA@ 00000001800ca700     ConvexHullBuilder.obj
 0002:00002720       ??_C@_0BJ@OJLNGJJP@triangles?$FLi?$CK3?$CL1?$FN?$DM?$DN0xffff?$AA@ 00000001800ca720     ConvexHullBuilder.obj
 0002:00002740       ??_C@_0BJ@HAFPAPJO@triangles?$FLi?$CK3?$CL2?$FN?$DM?$DN0xffff?$AA@ 00000001800ca740     ConvexHullBuilder.obj
 0002:00002760       ??_C@_0HF@OLJFBIEL@ConvexHullBuilder?3?5convex?5hull?5d@ 00000001800ca760     ConvexHullBuilder.obj
 0002:000027f0       ??_C@_0OG@JNHFOIL@ConvexHullBuilder?3?5convex?5hull?5d@ 00000001800ca7f0     ConvexHullBuilder.obj
 0002:00002908       ??_C@_0CG@BKAJAIFF@?$CIPxU32?$CJ?$CIRun0?9VRefs0?$CJ?$DN?$DNNbEdgesUns@ 00000001800ca908     ConvexHullBuilder.obj
 0002:00002938       ??_C@_0CG@BBOCCIFC@?$CIPxU32?$CJ?$CIRun1?9VRefs1?$CJ?$DN?$DNNbEdgesUns@ 00000001800ca938     ConvexHullBuilder.obj
 0002:00002970       ??_C@_0EJ@NIOIBAKH@Cooking?3?3cookConvexMesh?3?5non?9man@ 00000001800ca970     ConvexHullBuilder.obj
 0002:000029c8       ??_C@_0BC@JILNBNOE@mHullDataPolygons?$AA@ 00000001800ca9c8     ConvexHullBuilder.obj
 0002:000029e0       __real@3ba3d70a            00000001800ca9e0     ConvexHullBuilder.obj
 0002:000029e4       __real@3ca3d70a            00000001800ca9e4     ConvexHullBuilder.obj
 0002:000029e8       __real@3eaaaaab            00000001800ca9e8     ConvexHullBuilder.obj
 0002:00002a20       ??_7ConvexMeshBuilder@physx@@6BPxConvexMesh@1@@ 00000001800caa20     ConvexMeshBuilder.obj
 0002:00002ab0       ??_7ConvexMeshBuilder@physx@@6BRefCountable@Cm@1@@ 00000001800caab0     ConvexMeshBuilder.obj
 0002:00002ac8       ??_C@_0DI@DOIFJFCL@D?3?2PhysX?93?43?2PhysXSDK?2Include?2co@ 00000001800caac8     ConvexMeshBuilder.obj
 0002:00002b10       ??_C@_0DM@DFBCLLPG@Unexpected?5platform?5in?5PxGetGaus@ 00000001800cab10     ConvexMeshBuilder.obj
 0002:00002b58       ??_C@_0DF@LLFJIJGM@Gu?3?3ConvexMesh?3?3loadFromDesc?3?5de@ 00000001800cab58     ConvexMeshBuilder.obj
 0002:00002b98       ??_C@_0DE@FMMNMFJD@?4?4?2?4?4?2PhysXCooking?2src?2convex?2Co@ 00000001800cab98     ConvexMeshBuilder.obj
 0002:00002be0       ??_C@_0HK@JOGKIEAA@Gu?3?3ConvexMesh?3?5Mesh?5has?5a?5negat@ 00000001800cabe0     ConvexMeshBuilder.obj
 0002:00002c78       ??_C@_0DH@NJPPHFFD@Gu?3?3ConvexMesh?3?5Error?5computing?5@ 00000001800cac78     ConvexMeshBuilder.obj
 0002:00002cc0       ??_C@_0DJ@LJDLGLDJ@Gu?3?3ConvexMesh?3?3loadConvexHull?3?5@ 00000001800cacc0     ConvexMeshBuilder.obj
 0002:00002d10       ??_C@_0JC@IEAFEIFE@Gu?3?3ConvexMesh?3?3loadConvexHull?3?5@ 00000001800cad10     ConvexMeshBuilder.obj
 0002:00002dc0       ??_C@_0HJ@KJANPPOE@ConvexMeshBuilder?3?3computeHullPo@ 00000001800cadc0     ConvexMeshBuilder.obj
 0002:00002e54       ??_C@_05LMJPANIN@PxU32?$AA@ 00000001800cae54     ConvexMeshBuilder.obj
 0002:00002e60       ??_C@_0O@JMAGMMGG@PxHullPolygon?$AA@ 00000001800cae60     ConvexMeshBuilder.obj
 0002:00002e70       ??_C@_0FN@IODHNLIE@indices?$FLoutPolygon?4mIndexBase?5?$CL?5@ 00000001800cae70     ConvexMeshBuilder.obj
 0002:00002ee0       __real@0000000000000000    00000001800caee0     ConvexMeshBuilder.obj
 0002:00002eec       __real@40400000            00000001800caeec     ConvexMeshBuilder.obj
 0002:00002ef0       __real@44800000            00000001800caef0     ConvexMeshBuilder.obj
 0002:00002f00       __xmm@80000000000000008000000000000000 00000001800caf00     ConvexMeshBuilder.obj
 0002:00002f18       ??_C@_01GBGANLPD@0?$AA@    00000001800caf18     hulllib.obj
 0002:00002f20       ??_C@_0CK@LEJAGBKE@?4?4?2?4?4?2PhysXCooking?2src?2convex?2hu@ 00000001800caf20     hulllib.obj
 0002:00002f58       ??_C@_09GBJPLNEP@i?$DO?$DN0?$CG?$CGi?$DM3?$AA@ 00000001800caf58     hulllib.obj
 0002:00002f68       ??_C@_0BM@FNPIOFJJ@Cant?5normalize?5ZERO?5vector?6?$AA@ 00000001800caf68     hulllib.obj
 0002:00002f8c       ??_C@_04LOBEFBAE@d?$CB?$DN0?$AA@ 00000001800caf8c     hulllib.obj
 0002:00002f98       ??_C@_0CL@GOMAOONC@convex?4edges?$FLinext?$FN?4p?5?$DN?$DN?5convex?4@ 00000001800caf98     hulllib.obj
 0002:00002fd0       ??_C@_07MGHLAJA@nb?$CB?$DN255?$AA@ 00000001800cafd0     hulllib.obj
 0002:00002fdc       ??_C@_06PEAOENKB@nb?$CB?$DN?91?$AA@ 00000001800cafdc     hulllib.obj
 0002:00002fe8       ??_C@_0BI@IJHHMEEF@i?$DN?$DN?5convex?4edges?$FLnb?$FN?4ea?$AA@ 00000001800cafe8     hulllib.obj
 0002:00003008       ??_C@_0CM@CCMBNEHJ@convex?4edges?$FLnb?$FN?4v?5?$DN?$DN?5convex?4edg@ 00000001800cb008     hulllib.obj
 0002:00003040       ??_C@_0FJ@LMIAKMAH@COPLANAR?$DN?$DNPlaneTest?$CIconvex?4facet@ 00000001800cb040     hulllib.obj
 0002:000030b0       ??_C@_0BH@HDOPHOOH@convex?4edges?4count?$DM480?$AA@ 00000001800cb0b0     hulllib.obj
 0002:000030d0       ??_C@_0DC@LKDJNPEO@tmpunderedges?$FLunder_edge_count?$FN?4@ 00000001800cb0d0     hulllib.obj
 0002:00003110       ??_C@_0CM@OAAPMFDL@edgeflag?$FLedge0?4ea?$FN?4undermap?5?$CB?$DN?5i@ 00000001800cb110     hulllib.obj
 0002:00003148       ??_C@_0BF@KEHLOIPL@vout?5?$CB?$DN?5invalidIndex?$AA@ 00000001800cb148     hulllib.obj
 0002:00003168       ??_C@_0BF@GLPJAAKL@vin?5?$DM?5vertcountunder?$AA@ 00000001800cb168     hulllib.obj
 0002:00003188       ??_C@_0CK@KJLDNOON@edgeflag?$FLe0?$FN?4undermap?5?$DN?$DN?5under_e@ 00000001800cb188     hulllib.obj
 0002:000031c0       ??_C@_0BE@ODINDNNF@vin?5?$CB?$DN?5invalidIndex?$AA@ 00000001800cb1c0     hulllib.obj
 0002:000031d8       ??_C@_0BE@DMLEFGJP@coplanaredge?5?$CB?$DN?5511?$AA@ 00000001800cb1d8     hulllib.obj
 0002:000031f0       ??_C@_0BG@BFEJMJAI@i?$DN?$DNcreatedverts?4count?$AA@ 00000001800cb1f0     hulllib.obj
 0002:00003210       ??_C@_0BH@NJJCMLHB@?$CI?$CKmTris?$CJ?$FLtri?9?$DOid?$FN?$DN?$DNtri?$AA@ 00000001800cb210     hulllib.obj
 0002:00003230       ??_C@_0M@MKOGDFGO@Array?$DMTri?$CK?$DO?$AA@ 00000001800cb230     hulllib.obj
 0002:00003240       ??_C@_0CL@EFAEFND@?$CI?$CKmTris?$CJ?$FLs?9?$DOneib?$CIa?0b?$CJ?$FN?9?$DOneib?$CIb?0a@ 00000001800cb240     hulllib.obj
 0002:00003278       ??_C@_0CL@OGNKMCOJ@?$CI?$CKmTris?$CJ?$FLt?9?$DOneib?$CIa?0b?$CJ?$FN?9?$DOneib?$CIb?0a@ 00000001800cb278     hulllib.obj
 0002:000032b0       ??_C@_0BD@FJHIEEEC@?$CI?$CKmTris?$CJ?$FLt?9?$DOid?$FN?$DN?$DNt?$AA@ 00000001800cb2b0     hulllib.obj
 0002:000032c8       ??_C@_04POHJOBKC@a?$CB?$DNb?$AA@ 00000001800cb2c8     hulllib.obj
 0002:000032d0       ??_C@_0CG@CFKMADHO@?$CI?$CKmTris?$CJ?$FLt?9?$DOn?$FLi?$FN?$FN?9?$DOneib?$CIb?0a?$CJ?5?$DN?$DN?5@ 00000001800cb2d0     hulllib.obj
 0002:00003300       ??_C@_0DC@OMACIGCJ@?$CB?$CIp0?$DN?$DNp1?$HM?$HMp0?$DN?$DNp2?$HM?$HMp0?$DN?$DNp3?$HM?$HMp1?$DN?$DNp2@ 00000001800cb300     hulllib.obj
 0002:0000333c       ??_C@_01PFHFFBPC@t?$AA@    00000001800cb33c     hulllib.obj
 0002:00003340       ??_C@_09MDBCJDMM@t?9?$DOvmax?$DM0?$AA@ 00000001800cb340     hulllib.obj
 0002:00003350       ??_C@_0O@FMOJFPKF@?$CBisextreme?$FLv?$FN?$AA@ 00000001800cb350     hulllib.obj
 0002:00003360       ??_C@_02BFDMMJOC@nb?$AA@   00000001800cb360     hulllib.obj
 0002:00003368       ??_C@_0BA@OKMDLOJM@?$CBhasvert?$CI?$CKnb?0v?$CJ?$AA@ 00000001800cb368     hulllib.obj
 0002:00003380       ??_C@_08BNIGMCJB@nb?9?$DOid?$DMj?$AA@ 00000001800cb380     hulllib.obj
 0002:00003390       ??_C@_0CA@HIOFHKC@expandPlane?4mAdjacency?$FL0?$FN?5?$DN?$DN?5?91?$AA@ 00000001800cb390     hulllib.obj
 0002:000033b8       ??_C@_0CA@BAPFEDOB@expandPlane?4mAdjacency?$FL1?$FN?5?$DN?$DN?5?91?$AA@ 00000001800cb3b8     hulllib.obj
 0002:000033e0       ??_C@_0CA@CJHIHPCE@expandPlane?4mAdjacency?$FL2?$FN?5?$DN?$DN?5?91?$AA@ 00000001800cb3e0     hulllib.obj
 0002:00003408       ??_C@_0DB@MDKGLJDK@LocalTests?3?3PlaneCheck?$CIverts?0ver@ 00000001800cb408     hulllib.obj
 0002:00003448       ??_C@_0N@EJENLPBA@indexE?5?$CB?$DN?5?91?$AA@ 00000001800cb448     hulllib.obj
 0002:00003458       ??_C@_0CM@DGNHBGHH@expandPlane?4mPlane?4distance?$CIvert@ 00000001800cb458     hulllib.obj
 0002:00003490       ??_C@_0BA@LLAJEKFE@n?$CB?$DNREAL3?$CI0?00?00?$CJ?$AA@ 00000001800cb490     hulllib.obj
 0002:000034a8       ??_C@_0BB@DBMEHMDM@AssertIntact?$CI?$CKc?$CJ?$AA@ 00000001800cb4a8     hulllib.obj
 0002:000034bc       ??_C@_03JBIPMCLC@int?$AA@  00000001800cb4bc     hulllib.obj
 0002:000034c0       ??_C@_0BD@HIHDLLJJ@k?$DN?$DNc?9?$DOfacets?4count?$AA@ 00000001800cb4c0     hulllib.obj
 0002:000034d8       ??_C@_0DE@GBNKIAOM@faces_count_out?5?$DN?$DN?51?$CLc?9?$DOfacets?4c@ 00000001800cb4d8     hulllib.obj
 0002:00003518       ??_C@_0CC@MLOMFAJG@tris?4count?5?$DN?$DN?5index_count?91?9?$CIn?$CK3@ 00000001800cb518     hulllib.obj
 0002:00003540       ??_C@_0L@LDIAPGOM@v?5?$DM?5vcount?$AA@ 00000001800cb540     hulllib.obj
 0002:00003550       ??_C@_0BB@KFMHLOGC@ocount?5?$DM?$DN?5vcount?$AA@ 00000001800cb550     hulllib.obj
 0002:00003564       ??_C@_05KNFBNCOH@float?$AA@ 00000001800cb564     hulllib.obj
 0002:00003570       ??_C@_0EE@FGJHPLLE@d?3?2physx?93?43?2physxsdk?2source?2phy@ 00000001800cb570     hulllib.obj
 0002:000035c8       ??_C@_0BA@BLMLNLGH@i?$DO?$DN0?5?$CG?$CG?5i?$DMcount?$AA@ 00000001800cb5c8     hulllib.obj
 0002:000035e0       ??_C@_0BC@FCFAAFKB@count?$DM?$DNarray_size?$AA@ 00000001800cb5e0     hulllib.obj
 0002:000035f8       ??_C@_05IOMEMJEC@count?$AA@ 00000001800cb5f8     hulllib.obj
 0002:00003600       ??_C@_03FGICNBPI@s?$DO0?$AA@ 00000001800cb600     hulllib.obj
 0002:00003608       ??_C@_08EJNCAGIC@s?$DO?$DNcount?$AA@ 00000001800cb608     hulllib.obj
 0002:00003618       ??_C@_0BC@JDJGKIHB@hull?5array?5memory?$AA@ 00000001800cb618     hulllib.obj
 0002:00003630       ??_C@_0BL@HNGPFBEI@element?5?$CG?$CG?5?$CI?$CBcount?5?$HM?$HM?5old?$CJ?$AA@ 00000001800cb630     hulllib.obj
 0002:00003650       ??_C@_05PCHPLGBB@m?$CB?$DN?91?$AA@ 00000001800cb650     hulllib.obj
 0002:00003658       __real@1e3ce508            00000001800cb658     hulllib.obj
 0002:0000365c       __real@358637bd            00000001800cb65c     hulllib.obj
 0002:00003660       __real@3c23d70a            00000001800cb660     hulllib.obj
 0002:00003664       __real@3c8efa35            00000001800cb664     hulllib.obj
 0002:00003668       __real@3ccccccd            00000001800cb668     hulllib.obj
 0002:0000366c       __real@3d4ccccd            00000001800cb66c     hulllib.obj
 0002:00003670       __real@3e800000            00000001800cb670     hulllib.obj
 0002:00003674       __real@40800000            00000001800cb674     hulllib.obj
 0002:00003678       __real@40a00000            00000001800cb678     hulllib.obj
 0002:0000367c       __real@42340000            00000001800cb67c     hulllib.obj
 0002:00003680       __real@42f00000            00000001800cb680     hulllib.obj
 0002:00003684       __real@43b40000            00000001800cb684     hulllib.obj
 0002:00003688       __real@9e3ce508            00000001800cb688     hulllib.obj
 0002:0000368c       __real@bc23d70a            00000001800cb68c     hulllib.obj
 0002:00003690       __real@bca3d70a            00000001800cb690     hulllib.obj
 0002:00003698       ??_C@_0DC@MIABMDKE@D?3?2PhysX?93?43?2PhysXSDK?2Include?2fo@ 00000001800cb698     VolumeIntegration.obj
 0002:000036d8       __real@3f81111111111111    00000001800cb6d8     VolumeIntegration.obj
 0002:000036e8       __real@3f91111111111111    00000001800cb6e8     VolumeIntegration.obj
 0002:000036f8       __real@3fa5555555555555    00000001800cb6f8     VolumeIntegration.obj
 0002:00003708       __real@3fc5555555555555    00000001800cb708     VolumeIntegration.obj
 0002:00003718       __real@3ff0000000000000    00000001800cb718     VolumeIntegration.obj
 0002:00003728       __real@4000000000000000    00000001800cb728     VolumeIntegration.obj
 0002:00003738       __real@4008000000000000    00000001800cb738     VolumeIntegration.obj
 0002:00003748       __real@4010000000000000    00000001800cb748     VolumeIntegration.obj
 0002:00003758       __real@4018000000000000    00000001800cb758     VolumeIntegration.obj
 0002:00003768       __real@4028000000000000    00000001800cb768     VolumeIntegration.obj
 0002:00003778       __real@4034000000000000    00000001800cb778     VolumeIntegration.obj
 0002:00003788       __real@4038000000000000    00000001800cb788     VolumeIntegration.obj
 0002:00003798       __real@404e000000000000    00000001800cb798     VolumeIntegration.obj
 0002:000037a8       __real@c018000000000000    00000001800cb7a8     VolumeIntegration.obj
 0002:000037b8       __real@c028000000000000    00000001800cb7b8     VolumeIntegration.obj
 0002:000037c8       __real@c034000000000000    00000001800cb7c8     VolumeIntegration.obj
 0002:000037d8       __real@c04e000000000000    00000001800cb7d8     VolumeIntegration.obj
 0002:000037e8       ??_C@_0DC@DMHHONHL@Adjacencies?3?3GetBoundaryVertices@ 00000001800cb7e8     Adjacencies.obj
 0002:00003828       ??_C@_0CH@EOBHIJNK@?4?4?2?4?4?2PhysXCooking?2src?2Adjacenci@ 00000001800cb828     Adjacencies.obj
 0002:00003858       ??_C@_0CK@KKNAOLHI@Adjacencies?3?3MakeLastRef?3?5NULL?5p@ 00000001800cb858     Adjacencies.obj
 0002:0000388c       ??_C@_04DDKJGDCM@bool?$AA@ 00000001800cb88c     Adjacencies.obj
 0002:00003898       ??_C@_0DA@FMEHLBKI@Adjacencies?3?3UpdateLink?3?5invalid@ 00000001800cb898     Adjacencies.obj
 0002:000038e0       ??_C@_0JJ@BJLNDJKO@Adjacencies?3?3CreateDatabase?3?5can@ 00000001800cb8e0     Adjacencies.obj
 0002:00003998       ??_C@_0BE@LIEIDFLP@NbEdges?$DN?$DNmNbFaces?$CK3?$AA@ 00000001800cb998     Adjacencies.obj
 0002:000039b0       ??_C@_0JH@OAGDEHEP@?$CIGu?3?3EdgeTriangleAC?3?3HasActiveEd@ 00000001800cb9b0     Adjacencies.obj
 0002:00003a70       ??_C@_0JH@GOIKPHAD@?$CIGu?3?3EdgeTriangleAC?3?3HasActiveEd@ 00000001800cba70     Adjacencies.obj
 0002:00003b30       ??_C@_0JH@OMLLOEFP@?$CIGu?3?3EdgeTriangleAC?3?3HasActiveEd@ 00000001800cbb30     Adjacencies.obj
 0002:00003bf0       ??_7PxCooking@physx@@6B@   00000001800cbbf0     Cooking.obj
 0002:00003c68       ??_7Cooking@physx@@6B@     00000001800cbc68     Cooking.obj
 0002:00003ce0       ??_7TriangleMeshBuilder@physx@@6BPxTriangleMesh@1@@ 00000001800cbce0     Cooking.obj
 0002:00003d80       ??_7TriangleMeshBuilder@physx@@6BRefCountable@Cm@1@@ 00000001800cbd80     Cooking.obj
 0002:00003d98       ??_C@_0CD@HPMFPCAJ@?4?4?2?4?4?2PhysXCooking?2src?2Cooking?4c@ 00000001800cbd98     Cooking.obj
 0002:00003dd0       ??_C@_0FC@PJIHAFK@Cooking?3?3validateTriangleMesh?3?5u@ 00000001800cbdd0     Cooking.obj
 0002:00003e40       ??_C@_0GF@KBACGOEB@PxTriangleMeshDesc?3?3convexEdgeTh@ 00000001800cbe40     Cooking.obj
 0002:00003ec0       ??_C@_0FF@FCKBBOBA@Cooking?3?3cook?1createTriangleMesh@ 00000001800cbec0     Cooking.obj
 0002:00003f30       ??_C@_0EK@EKAIJEBL@Cooking?3?3cookConvexMesh?3?5user?9pr@ 00000001800cbf30     Cooking.obj
 0002:00003f90       ??_C@_0EJ@EIMOEGKB@Cooking?3?3cookConvexMesh?3?5user?9pr@ 00000001800cbf90     Cooking.obj
 0002:00003ff0       ??_C@_0EP@CKACPLJK@Cooking?3?3cookConvexMesh?3?5user?9pr@ 00000001800cbff0     Cooking.obj
 0002:00004050       ??_C@_0EO@LKFMMDE@Cooking?3?3cookConvexMesh?3?5user?9pr@ 00000001800cc050     Cooking.obj
 0002:000040b0       ??_C@_0EN@FCEPCAFC@Cooking?3?3createHeightField?3?5user@ 00000001800cc0b0     Cooking.obj
 0002:00004110       ??_C@_0EM@MHLLDEBI@static_cast?$DMPs?3?3Foundation?$CK?$DO?$CI?$CGfo@ 00000001800cc110     Cooking.obj
 0002:00004170       ??_C@_0CI@LKCEKHOD@?4?4?2?4?4?2PhysXCooking?2src?2CookingUt@ 00000001800cc170     CookingUtils.obj
 0002:000041a8       ??_C@_0N@OOPDCJAN@Gu?3?3EdgeData?$AA@ 00000001800cc1a8     EdgeList.obj
 0002:000041b8       ??_C@_0CE@DNAJJHLF@?4?4?2?4?4?2PhysXCooking?2src?2EdgeList?4@ 00000001800cc1b8     EdgeList.obj
 0002:000041e8       ??_C@_0BF@DEHGNEOE@Gu?3?3EdgeTriangleData?$AA@ 00000001800cc1e8     EdgeList.obj
 0002:00004208       ??_C@_0BB@LAAHLNEJ@Gu?3?3EdgeDescData?$AA@ 00000001800cc208     EdgeList.obj
 0002:00004220       ??_C@_0BK@BJFOKFDB@Gu?3?3EdgeList?5FacesByEdges?$AA@ 00000001800cc220     EdgeList.obj
 0002:00004240       ??_C@_0CO@GBNJFPN@EdgeList?3?3CreateFacesToEdges?3?5NU@ 00000001800cc240     EdgeList.obj
 0002:00004278       ??_C@_0CB@OPJNLGEO@Gu?3?3EdgeListBuilder?5FacesByEdges@ 00000001800cc278     EdgeList.obj
 0002:000042a0       ??_C@_0CO@EHJBBMNK@EdgeList?3?3ComputeActiveEdges?3?5NU@ 00000001800cc2a0     EdgeList.obj
 0002:000042d8       ??_C@_0DI@GBHLFOFP@ActiveEdges?3?3ComputeConvexEdges?3@ 00000001800cc2d8     EdgeList.obj
 0002:00004320       ??_C@_0DM@JOGBLHDI@ActiveEdges?3?3ComputeConvexEdges?3@ 00000001800cc320     EdgeList.obj
 0002:00004370       ??_C@_0ED@FEMJKPEL@ActiveEdges?3?3ComputeConvexEdges?3@ 00000001800cc370     EdgeList.obj
 0002:000043c0       ??_C@_0EB@BFDPMFCD@ActiveEdges?3?3ComputeConvexEdges?3@ 00000001800cc3c0     EdgeList.obj
 0002:00004410       ??_C@_06FCDOAHIN@wfaces?$AA@ 00000001800cc410     EdgeList.obj
 0002:00004418       ??_C@_0BB@KCPJALAK@dfaces?5?$HM?$HM?5wfaces?$AA@ 00000001800cc418     EdgeList.obj
 0002:0000442c       ??_C@_04CJNNGFMA@j?$DN?$DN2?$AA@ 00000001800cc42c     EdgeList.obj
 0002:00004434       __real@bf7fbe77            00000001800cc434     EdgeList.obj
 0002:00004440       ??_C@_0DK@KJFHOOJM@D?3?2PhysX?93?43?2PhysXSDK?2Source?2Geo@ 00000001800cc440     InternalTriangleMeshBuilder.obj
 0002:00004488       ??_C@_0P@JLLGKKGO@nb?$DO0?5?$CG?$CG?5nb?$DM?$DN16?$AA@ 00000001800cc488     InternalTriangleMeshBuilder.obj
 0002:000044a0       ??_C@_0BA@IGNEICFC@index?5?$DM?5?$CI1?$DM?$DM27?$CJ?$AA@ 00000001800cc4a0     InternalTriangleMeshBuilder.obj
 0002:000044b8       ??_7RemapCallback@RTreeCooker@physx@@6B@ 00000001800cc4b8     InternalTriangleMeshBuilder.obj
 0002:000044d0       ??_C@_0DH@KAAPMABG@?4?4?2?4?4?2PhysXCooking?2src?2InternalT@ 00000001800cc4d0     InternalTriangleMeshBuilder.obj
 0002:00004514       ??_C@_04KPBEILIJ@mesh?$AA@ 00000001800cc514     InternalTriangleMeshBuilder.obj
 0002:00004520       ??_C@_0BF@CCKBOJFO@Gu?3?3TriangleT?$DMPxU32?$DO?$AA@ 00000001800cc520     InternalTriangleMeshBuilder.obj
 0002:00004540       ??_7RTreeCookerRemap@@6B@  00000001800cc540     InternalTriangleMeshBuilder.obj
 0002:00004558       ??_C@_0O@PPMFEIKF@leafCount?5?$DO?50?$AA@ 00000001800cc558     InternalTriangleMeshBuilder.obj
 0002:00004568       ??_C@_0BA@ICGDMFLO@leafCount?5?$DM?$DN?516?$AA@ 00000001800cc568     InternalTriangleMeshBuilder.obj
 0002:00004580       ??_C@_0BB@CBEMBEIL@start?5?$DM?5mNumTris?$AA@ 00000001800cc580     InternalTriangleMeshBuilder.obj
 0002:00004598       ??_C@_0BM@PKJGHNOI@start?$CLleafCount?5?$DM?$DN?5mNumTris?$AA@ 00000001800cc598     InternalTriangleMeshBuilder.obj
 0002:000045bc       ??_C@_03BALCFKBP@val?$AA@  00000001800cc5bc     InternalTriangleMeshBuilder.obj
 0002:000045c0       ??_C@_0CO@CFBGFAJE@resultPermute?4size?$CI?$CJ?5?$DN?$DN?5triData?4@ 00000001800cc5c0     InternalTriangleMeshBuilder.obj
 0002:000045f8       ??_C@_0DJ@IGODLHLP@TriangleMesh?3?5Enable?5mesh?5weldin@ 00000001800cc5f8     InternalTriangleMeshBuilder.obj
 0002:00004640       ??_C@_0EB@FMFFAHEN@?$CB?$CIdata?4mFlags?5?$CG?5PxTriangleMeshFl@ 00000001800cc640     InternalTriangleMeshBuilder.obj
 0002:00004690       ??_C@_0CN@PJHOIFC@vref0?$CB?$DNvref1?5?$CG?$CG?5vref0?$CB?$DNvref2?5?$CG?$CG?5@ 00000001800cc690     InternalTriangleMeshBuilder.obj
 0002:000046d0       ??_C@_0FJ@HHJLKGDF@TriangleMesh?3?5triangles?5are?5too?5@ 00000001800cc6d0     InternalTriangleMeshBuilder.obj
 0002:00004740       ??_C@_0CN@KGPHHHLK@TriangleMesh?3?5mesh?5is?5too?5big?5fo@ 00000001800cc740     InternalTriangleMeshBuilder.obj
 0002:00004778       ??_C@_0DA@ICJBFKFL@edgeList?9?$DOGetNbFaces?$CI?$CJ?$DN?$DNmesh?9?$DOge@ 00000001800cc778     InternalTriangleMeshBuilder.obj
 0002:000047c0       ??_C@_0NB@DAHFAAHF@?$CIGu?3?3EdgeTriangleAC?3?3HasActiveEd@ 00000001800cc7c0     InternalTriangleMeshBuilder.obj
 0002:000048c0       ??_C@_0NB@JJBLOIPF@?$CIGu?3?3EdgeTriangleAC?3?3HasActiveEd@ 00000001800cc8c0     InternalTriangleMeshBuilder.obj
 0002:000049c0       ??_C@_0NB@EBGLPJFF@?$CIGu?3?3EdgeTriangleAC?3?3HasActiveEd@ 00000001800cc9c0     InternalTriangleMeshBuilder.obj
 0002:00004abc       __real@48742400            00000001800ccabc     InternalTriangleMeshBuilder.obj
 0002:00004ac0       ??_C@_0M@GOCDBJNH@MeshCleaner?$AA@ 00000001800ccac0     MeshCleaner.obj
 0002:00004ad0       ??_C@_0CH@GLEMKEIO@?4?4?2?4?4?2PhysXCooking?2src?2MeshClean@ 00000001800ccad0     MeshCleaner.obj
 0002:00004b00       ??_C@_0L@FKHAJINL@cleanVerts?$AA@ 00000001800ccb00     MeshCleaner.obj
 0002:00004b10       ??_C@_09PEPOFECJ@hashTable?$AA@ 00000001800ccb10     MeshCleaner.obj
 0002:00004b20       ??_C@_0BB@EKDFPEDB@nbCleanedTris?$DM?$DNi?$AA@ 00000001800ccb20     MeshCleaner.obj
 0002:00004b40       __sz_PhysX3CommonDEBUG_x64_dll 00000001800ccb40     PhysX3CommonDEBUG_x64:PhysX3CommonDEBUG_x64.dll
 0002:00004b60       _FPinit                    00000001800ccb60     LIBCMTD:fpinit.obj
 0002:00004b68       ??_C@_0L@KDOEJCKC@_nextafter?$AA@ 00000001800ccb68     LIBCMTD:ieeemisc.obj
 0002:00004b78       ??_C@_0M@LNMOKHH@_nextafterf?$AA@ 00000001800ccb78     LIBCMTD:ieeemisc.obj
 0002:00004b84       ??_C@_06HBLGGACK@_scalb?$AA@ 00000001800ccb84     LIBCMTD:ieeemisc.obj
 0002:00004b90       ??_C@_07OIGNLDJH@_scalbf?$AA@ 00000001800ccb90     LIBCMTD:ieeemisc.obj
 0002:00005468       ?value@?$integral_constant@_N$0A@@std@@2_NB 00000001800cd468     LIBCMTD:typinfo.obj
 0002:00005469       ?value@?$integral_constant@_N$00@std@@2_NB 00000001800cd469     LIBCMTD:typinfo.obj
 0002:00005478       ??_7type_info@@6B@         00000001800cd478     LIBCMTD:typinfo.obj
 0002:00005480       ?ProcessDetach@NativeDll@<CrtImplementationDetails>@@0IB 00000001800cd480     LIBCMTD:tncleanup.obj
 0002:00005484       ?ProcessAttach@NativeDll@<CrtImplementationDetails>@@0IB 00000001800cd484     LIBCMTD:tncleanup.obj
 0002:00005488       ?ThreadAttach@NativeDll@<CrtImplementationDetails>@@0IB 00000001800cd488     LIBCMTD:tncleanup.obj
 0002:0000548c       ?ThreadDetach@NativeDll@<CrtImplementationDetails>@@0IB 00000001800cd48c     LIBCMTD:tncleanup.obj
 0002:00005490       ?ProcessVerifier@NativeDll@<CrtImplementationDetails>@@0IB 00000001800cd490     LIBCMTD:tncleanup.obj
 0002:00005494       ??_C@_05KGFAIMPG@sqrtf?$AA@ 00000001800cd494     LIBCMTD:sqrtf.obj
 0002:000054a0       ??_C@_1EO@LHDAJOCM@?$AA_?$AAB?$AAL?$AAO?$AAC?$AAK?$AA_?$AAT?$AAY?$AAP?$AAE?$AA_?$AAI?$AAS?$AA_?$AAV?$AAA?$AAL?$AAI?$AAD?$AA?$CI?$AAp?$AAH?$AAe?$AAa?$AAd?$AA?9?$AA?$DO?$AAn?$AAB?$AAl?$AAo@ 00000001800cd4a0     LIBCMTD:dbgdel.obj
 0002:000054f0       ??_C@_15GANGMFKL@?$AA?$CF?$AAs?$AA?$AA@ 00000001800cd4f0     LIBCMTD:dbgdel.obj
 0002:00005500       ??_C@_1FC@BHNGAOAE@?$AAf?$AA?3?$AA?2?$AAd?$AAd?$AA?2?$AAv?$AAc?$AAt?$AAo?$AAo?$AAl?$AAs?$AA?2?$AAc?$AAr?$AAt?$AA?2?$AAc?$AAr?$AAt?$AAw?$AA3?$AA2?$AA?2?$AAm?$AAi?$AAs?$AAc?$AA?2?$AAd?$AAb@ 00000001800cd500     LIBCMTD:dbgdel.obj
 0002:00005558       ??_C@_1CC@MGIEJOME@?$AA?$CI?$AAf?$AAo?$AAr?$AAm?$AAa?$AAt?$AA?5?$AA?$CB?$AA?$DN?$AA?5?$AAN?$AAU?$AAL?$AAL?$AA?$CJ?$AA?$AA@ 00000001800cd558     LIBCMTD:printf.obj
 0002:00005580       ??_C@_1FA@GMJBBNDK@?$AAf?$AA?3?$AA?2?$AAd?$AAd?$AA?2?$AAv?$AAc?$AAt?$AAo?$AAo?$AAl?$AAs?$AA?2?$AAc?$AAr?$AAt?$AA?2?$AAc?$AAr?$AAt?$AAw?$AA3?$AA2?$AA?2?$AAs?$AAt?$AAd?$AAi?$AAo?$AA?2?$AAp@ 00000001800cd580     LIBCMTD:printf.obj
 0002:000055d0       ??_C@_1O@GKDHFACN@?$AAp?$AAr?$AAi?$AAn?$AAt?$AAf?$AA?$AA@ 00000001800cd5d0     LIBCMTD:printf.obj
 0002:00005f98       ??_C@_06LEACALBF@atan2f?$AA@ 00000001800cdf98     LIBCMTD:atan2f.obj
 0002:00005fa0       __real@3f1a36e2eb1c432d    00000001800cdfa0     LIBCMTD:atan2f.obj
 0002:00005fa8       __real@3fb0000000000000    00000001800cdfa8     LIBCMTD:atan2f.obj
 0002:00005fb0       __real@3fc2492482bd6be1    00000001800cdfb0     LIBCMTD:atan2f.obj
 0002:00005fb8       __real@3fc99999999643a3    00000001800cdfb8     LIBCMTD:atan2f.obj
 0002:00005fc0       __real@3fd5555555550877    00000001800cdfc0     LIBCMTD:atan2f.obj
 0002:00005fc8       __real@3fd5555555555538    00000001800cdfc8     LIBCMTD:atan2f.obj
 0002:00005fd0       __real@3fe0000000000000    00000001800cdfd0     LIBCMTD:atan2f.obj
 0002:00005fd8       __real@4070000000000000    00000001800cdfd8     LIBCMTD:atan2f.obj
 0002:00005fe0       __real@80000000            00000001800cdfe0     LIBCMTD:atan2f.obj
 0002:00005fe4       ??_C@_06OJDGOBKJ@floorf?$AA@ 00000001800cdfe4     LIBCMTD:floorf.obj
 0002:00005ff0       _pDefaultRawDllMain        00000001800cdff0     LIBCMTD:dllcrt0.obj
 0002:00005ff0       _pRawDllMain               00000001800cdff0     LIBCMTD:dllcrt0.obj
 0002:00005ff8       ??_C@_0CL@OOIKPIHN@f?3?2dd?2vctools?2crt?2crtw32?2startup@ 00000001800cdff8     LIBCMTD:dllcrt0.obj
 0002:00006050       ??_C@_0BJ@HEGAHDFO@Stack?5pointer?5corruption?$AA@ 00000001800ce050     LIBCMTD:userapi.obj
 0002:00006070       ??_C@_0CK@FEGOIOPB@Cast?5to?5smaller?5type?5causing?5los@ 00000001800ce070     LIBCMTD:userapi.obj
 0002:000060a0       ??_C@_0BI@CIGMDCBH@Stack?5memory?5corruption?$AA@ 00000001800ce0a0     LIBCMTD:userapi.obj
 0002:000060b8       ??_C@_0CK@CNLNOEPB@Local?5variable?5used?5before?5initi@ 00000001800ce0b8     LIBCMTD:userapi.obj
 0002:000060e8       ??_C@_0BP@OGBCLIBO@Stack?5around?5_alloca?5corrupted?$AA@ 00000001800ce0e8     LIBCMTD:userapi.obj
 0002:00006108       ??_C@_1BI@ICGGMGLK@?$AAb?$AAu?$AAf?$AA?5?$AA?$CB?$AA?$DN?$AA?5?$AAN?$AAU?$AAL?$AAL?$AA?$AA@ 00000001800ce108     LIBCMTD:cvt.obj
 0002:00006120       ??_C@_1EG@OHONNKNN@?$AAf?$AA?3?$AA?2?$AAd?$AAd?$AA?2?$AAv?$AAc?$AAt?$AAo?$AAo?$AAl?$AAs?$AA?2?$AAc?$AAr?$AAt?$AA?2?$AAf?$AAp?$AAw?$AA3?$AA2?$AA?2?$AAc?$AAo?$AAn?$AAv?$AA?2?$AAc?$AAv?$AAt@ 00000001800ce120     LIBCMTD:cvt.obj
 0002:00006168       ??_C@_1BE@OLBNEILL@?$AA_?$AAc?$AAf?$AAt?$AAo?$AAe?$AA2?$AA_?$AAl?$AA?$AA@ 00000001800ce168     LIBCMTD:cvt.obj
 0002:00006180       ??_C@_1CA@CBMNPEO@?$AAs?$AAi?$AAz?$AAe?$AAI?$AAn?$AAB?$AAy?$AAt?$AAe?$AAs?$AA?5?$AA?$DO?$AA?5?$AA0?$AA?$AA@ 00000001800ce180     LIBCMTD:cvt.obj
 0002:000061a0       ??_C@_1HE@NACBNDPP@?$AAs?$AAi?$AAz?$AAe?$AAI?$AAn?$AAB?$AAy?$AAt?$AAe?$AAs?$AA?5?$AA?$DO?$AA?5?$AA?$CI?$AAs?$AAi?$AAz?$AAe?$AA_?$AAt?$AA?$CJ?$AA?$CI?$AA3?$AA?5?$AA?$CL?$AA?5?$AA?$CI?$AAn?$AAd?$AAe?$AAc@ 00000001800ce1a0     LIBCMTD:cvt.obj
 0002:00006220       ??_C@_1LE@EOIFGNCJ@?$AAs?$AAt?$AAr?$AAc?$AAp?$AAy?$AA_?$AAs?$AA?$CI?$AAp?$AA?0?$AA?5?$AA?$CI?$AAs?$AAi?$AAz?$AAe?$AAI?$AAn?$AAB?$AAy?$AAt?$AAe?$AAs?$AA?5?$AA?$DN?$AA?$DN?$AA?5?$AA?$CI?$AAs?$AAi?$AAz@ 00000001800ce220     LIBCMTD:cvt.obj
 0002:000062d4       ??_C@_05KLBDPFGC@e?$CL000?$AA@ 00000001800ce2d4     LIBCMTD:cvt.obj
 0002:000062e0       ??_C@_1BC@INKAPMHI@?$AA_?$AAc?$AAf?$AAt?$AAo?$AAe?$AA_?$AAl?$AA?$AA@ 00000001800ce2e0     LIBCMTD:cvt.obj
 0002:000062f8       ??_C@_1BC@JOKPCIC@?$AA_?$AAc?$AAf?$AAt?$AAo?$AAa?$AA_?$AAl?$AA?$AA@ 00000001800ce2f8     LIBCMTD:cvt.obj
 0002:00006310       ??_C@_1FC@IKIMAMJB@?$AAs?$AAi?$AAz?$AAe?$AAI?$AAn?$AAB?$AAy?$AAt?$AAe?$AAs?$AA?5?$AA?$DO?$AA?5?$AA?$CI?$AAs?$AAi?$AAz?$AAe?$AA_?$AAt?$AA?$CJ?$AA?$CI?$AA1?$AA?5?$AA?$CL?$AA?5?$AA4?$AA?5?$AA?$CL?$AA?5?$AAn@ 00000001800ce310     LIBCMTD:cvt.obj
 0002:00006368       ??_C@_1BE@CKPDLI@?$AA_?$AAc?$AAf?$AAt?$AAo?$AAf?$AA2?$AA_?$AAl?$AA?$AA@ 00000001800ce368     LIBCMTD:cvt.obj
 0002:00006380       ??_C@_1BC@DCPPLJL@?$AA_?$AAc?$AAf?$AAt?$AAo?$AAf?$AA_?$AAl?$AA?$AA@ 00000001800ce380     LIBCMTD:cvt.obj
 0002:00006398       ??_C@_1BC@MPIFPLAF@?$AA_?$AAc?$AAf?$AAt?$AAo?$AAg?$AA_?$AAl?$AA?$AA@ 00000001800ce398     LIBCMTD:cvt.obj
 0002:000063b8       ??_7bad_alloc@std@@6B@     00000001800ce3b8     LIBCMTD:new.obj
 0002:000063c8       ??_C@_0P@GHFPNOJB@bad?5allocation?$AA@ 00000001800ce3c8     LIBCMTD:new.obj
 0002:000063d8       ??_C@_03KHJOGHMM@exp?$AA@  00000001800ce3d8     LIBCMTD:fpexcept.obj
 0002:000063dc       ??_C@_03JGHBODFD@pow?$AA@  00000001800ce3dc     LIBCMTD:fpexcept.obj
 0002:000063e0       ??_C@_03MGHMBJCF@log?$AA@  00000001800ce3e0     LIBCMTD:fpexcept.obj
 0002:000063e4       ??_C@_05HGHHAHAP@log10?$AA@ 00000001800ce3e4     LIBCMTD:fpexcept.obj
 0002:000063ec       ??_C@_04COOMCNPB@sinh?$AA@ 00000001800ce3ec     LIBCMTD:fpexcept.obj
 0002:000063f4       ??_C@_04HPJJNFIM@cosh?$AA@ 00000001800ce3f4     LIBCMTD:fpexcept.obj
 0002:000063fc       ??_C@_04FJHINJAO@tanh?$AA@ 00000001800ce3fc     LIBCMTD:fpexcept.obj
 0002:00006404       ??_C@_04FIHNOPOL@asin?$AA@ 00000001800ce404     LIBCMTD:fpexcept.obj
 0002:0000640c       ??_C@_04PDIFKINK@acos?$AA@ 00000001800ce40c     LIBCMTD:fpexcept.obj
 0002:00006414       ??_C@_04MLLJIGOK@atan?$AA@ 00000001800ce414     LIBCMTD:fpexcept.obj
 0002:0000641c       ??_C@_05KNGEOGJB@atan2?$AA@ 00000001800ce41c     LIBCMTD:fpexcept.obj
 0002:00006424       ??_C@_04EIAKFFMI@sqrt?$AA@ 00000001800ce424     LIBCMTD:fpexcept.obj
 0002:0000642c       ??_C@_03BLEJJJBH@sin?$AA@  00000001800ce42c     LIBCMTD:fpexcept.obj
 0002:00006430       ??_C@_03LALBNOCG@cos?$AA@  00000001800ce430     LIBCMTD:fpexcept.obj
 0002:00006434       ??_C@_03IIINPABG@tan?$AA@  00000001800ce434     LIBCMTD:fpexcept.obj
 0002:00006438       ??_C@_04GFPJNGEK@ceil?$AA@ 00000001800ce438     LIBCMTD:fpexcept.obj
 0002:00006440       ??_C@_05PBJFFIGL@floor?$AA@ 00000001800ce440     LIBCMTD:fpexcept.obj
 0002:00006448       ??_C@_04ODHECPBC@fabs?$AA@ 00000001800ce448     LIBCMTD:fpexcept.obj
 0002:00006450       ??_C@_04EHEDPDJG@modf?$AA@ 00000001800ce450     LIBCMTD:fpexcept.obj
 0002:00006458       ??_C@_05CEJMAHNP@ldexp?$AA@ 00000001800ce458     LIBCMTD:fpexcept.obj
 0002:00006460       ??_C@_05KBKMEMPO@_cabs?$AA@ 00000001800ce460     LIBCMTD:fpexcept.obj
 0002:00006468       ??_C@_06MEIMCGCF@_hypot?$AA@ 00000001800ce468     LIBCMTD:fpexcept.obj
 0002:00006470       ??_C@_04KEPJIHGP@fmod?$AA@ 00000001800ce470     LIBCMTD:fpexcept.obj
 0002:00006478       ??_C@_05GKKHEGJL@frexp?$AA@ 00000001800ce478     LIBCMTD:fpexcept.obj
 0002:00006480       ??_C@_03MJLDFKDL@_y0?$AA@  00000001800ce480     LIBCMTD:fpexcept.obj
 0002:00006484       ??_C@_03NAKIGLHK@_y1?$AA@  00000001800ce484     LIBCMTD:fpexcept.obj
 0002:00006488       ??_C@_03ONILCKOB@_yn?$AA@  00000001800ce488     LIBCMTD:fpexcept.obj
 0002:0000648c       ??_C@_05JGDBENOH@_logb?$AA@ 00000001800ce48c     LIBCMTD:fpexcept.obj
 0002:000064a0       __two_to_jby64_table       00000001800ce4a0     LIBCMTD:two_to_jby64_table.obj
 0002:000066a0       __log_F_inv_qword          00000001800ce6a0     LIBCMTD:log_F_inv_qword_table.obj
 0002:00006eb0       ??_C@_04MBFDLNIM@powf?$AA@ 00000001800ceeb0     LIBCMTD:pow_special.obj
 0002:00006eb8       ??_C@_1CK@GELGGBDK@?$AAp?$AAN?$AAo?$AAd?$AAe?$AA?9?$AA?$DO?$AA_?$AAN?$AAe?$AAx?$AAt?$AA?5?$AA?$CB?$AA?$DN?$AA?5?$AAN?$AAU?$AAL?$AAL?$AA?$AA@ 00000001800ceeb8     LIBCMTD:typname.obj
 0002:00006ef0       ??_C@_1FA@KAJOMDBA@?$AAf?$AA?3?$AA?2?$AAd?$AAd?$AA?2?$AAv?$AAc?$AAt?$AAo?$AAo?$AAl?$AAs?$AA?2?$AAc?$AAr?$AAt?$AA?2?$AAc?$AAr?$AAt?$AAw?$AA3?$AA2?$AA?2?$AAe?$AAh?$AA?2?$AAt?$AAy?$AAp?$AAn@ 00000001800ceef0     LIBCMTD:typname.obj
 0002:00006f40       ??_C@_1CM@OOICDMK@?$AAt?$AAy?$AAp?$AAe?$AA_?$AAi?$AAn?$AAf?$AAo?$AA?3?$AA?3?$AA_?$AAN?$AAa?$AAm?$AAe?$AA_?$AAb?$AAa?$AAs?$AAe?$AA?$AA@ 00000001800cef40     LIBCMTD:typname.obj
 0002:00006f70       ??_C@_1JK@NAFNEPGC@?$AAs?$AAt?$AAr?$AAc?$AAp?$AAy?$AA_?$AAs?$AA?5?$AA?$CI?$AA?$CI?$AAc?$AAh?$AAa?$AAr?$AA?5?$AA?$CK?$AA?$CJ?$AA?$CI?$AA?$CI?$AAt?$AAy?$AAp?$AAe?$AA_?$AAi?$AAn?$AAf?$AAo?$AA?5?$AA?$CK?$AA?$CJ@ 00000001800cef70     LIBCMTD:typname.obj
 0002:00007010       ??_C@_1DO@OJJLFJPE@?$AAt?$AAy?$AAp?$AAe?$AA_?$AAi?$AAn?$AAf?$AAo?$AA?3?$AA?3?$AA_?$AAN?$AAa?$AAm?$AAe?$AA_?$AAb?$AAa?$AAs?$AAe?$AA_?$AAi?$AAn?$AAt?$AAe?$AAr?$AAn?$AAa?$AAl?$AA?$AA@ 00000001800cf010     LIBCMTD:typname.obj
 0002:00007050       ??_C@_1GI@EAJKJPED@?$AAs?$AAt?$AAr?$AAc?$AAp?$AAy?$AA_?$AAs?$AA?5?$AA?$CI?$AAp?$AAT?$AAm?$AAp?$AAT?$AAy?$AAp?$AAe?$AAN?$AAa?$AAm?$AAe?$AA?0?$AA?5?$AAl?$AAe?$AAn?$AA?$CL?$AA2?$AA?0?$AA?5?$AA?$CI@ 00000001800cf050     LIBCMTD:typname.obj
 0002:000070b8       ??_C@_0CJ@LPLBAFNO@f?3?2dd?2vctools?2crt?2crtw32?2startup@ 00000001800cf0b8     LIBCMTD:mlock.obj
 0002:00007100       ??_C@_1BA@GLMCNLEM@?$AAW?$AAa?$AAr?$AAn?$AAi?$AAn?$AAg?$AA?$AA@ 00000001800cf100     LIBCMTD:dbgrptw.obj
 0002:00007110       ??_C@_1M@ILHOPKA@?$AAE?$AAr?$AAr?$AAo?$AAr?$AA?$AA@ 00000001800cf110     LIBCMTD:dbgrptw.obj
 0002:00007120       ??_C@_1CC@CGHMNGDG@?$AAA?$AAs?$AAs?$AAe?$AAr?$AAt?$AAi?$AAo?$AAn?$AA?5?$AAF?$AAa?$AAi?$AAl?$AAe?$AAd?$AA?$AA@ 00000001800cf120     LIBCMTD:dbgrptw.obj
 0002:00007148       ??_C@_17LGKOMLJ@?$AA?4?$AA?4?$AA?4?$AA?$AA@ 00000001800cf148     LIBCMTD:dbgrptw.obj
 0002:00007150       ??_C@_1HI@OFEHGPPC@?$AAm?$AAo?$AAd?$AAe?$AA?5?$AA?$DN?$AA?$DN?$AA?5?$AA_?$AAC?$AAR?$AAT?$AA_?$AAR?$AAP?$AAT?$AAH?$AAO?$AAO?$AAK?$AA_?$AAI?$AAN?$AAS?$AAT?$AAA?$AAL?$AAL?$AA?5?$AA?$HM?$AA?$HM?$AA?5@ 00000001800cf150     LIBCMTD:dbgrptw.obj
 0002:000071d0       ??_C@_1EO@JACJHHCK@?$AAf?$AA?3?$AA?2?$AAd?$AAd?$AA?2?$AAv?$AAc?$AAt?$AAo?$AAo?$AAl?$AAs?$AA?2?$AAc?$AAr?$AAt?$AA?2?$AAc?$AAr?$AAt?$AAw?$AA3?$AA2?$AA?2?$AAm?$AAi?$AAs?$AAc?$AA?2?$AAd?$AAb@ 00000001800cf1d0     LIBCMTD:dbgrptw.obj
 0002:00007220       ??_C@_1CI@IIHEAKEI@?$AA_?$AAC?$AAr?$AAt?$AAS?$AAe?$AAt?$AAR?$AAe?$AAp?$AAo?$AAr?$AAt?$AAH?$AAo?$AAo?$AAk?$AAW?$AA2?$AA?$AA@ 00000001800cf220     LIBCMTD:dbgrptw.obj
 0002:00007248       ??_C@_1CG@JBJEFOCM@?$AAp?$AAf?$AAn?$AAN?$AAe?$AAw?$AAH?$AAo?$AAo?$AAk?$AA?5?$AA?$CB?$AA?$DN?$AA?5?$AAN?$AAU?$AAL?$AAL?$AA?$AA@ 00000001800cf248     LIBCMTD:dbgrptw.obj
 0002:00007270       ??_C@_1FI@PHIAFFHM@?$AA?$CI?$AA?$CC?$AAT?$AAh?$AAe?$AA?5?$AAh?$AAo?$AAo?$AAk?$AA?5?$AAf?$AAu?$AAn?$AAc?$AAt?$AAi?$AAo?$AAn?$AA?5?$AAi?$AAs?$AA?5?$AAn?$AAo?$AAt?$AA?5?$AAi?$AAn?$AA?5?$AAt?$AAh@ 00000001800cf270     LIBCMTD:dbgrptw.obj
 0002:000072c8       ??_C@_0CH@BBGAHGHC@f?3?2dd?2vctools?2crt?2crtw32?2misc?2db@ 00000001800cf2c8     LIBCMTD:dbgrptw.obj
 0002:000072f0       ??_C@_1CI@PGJIFDEK@?$AA_?$AA_?$AAc?$AAr?$AAt?$AAM?$AAe?$AAs?$AAs?$AAa?$AAg?$AAe?$AAW?$AAi?$AAn?$AAd?$AAo?$AAw?$AAW?$AA?$AA@ 00000001800cf2f0     LIBCMTD:dbgrptw.obj
 0002:00007320       ??_C@_1GI@DEDNNLCI@?$AAw?$AAc?$AAs?$AAc?$AAp?$AAy?$AA_?$AAs?$AA?$CI?$AAs?$AAz?$AAE?$AAx?$AAe?$AAN?$AAa?$AAm?$AAe?$AA?0?$AA?5?$AA2?$AA6?$AA0?$AA?0?$AA?5?$AAL?$AA?$CC?$AA?$DM?$AAp?$AAr?$AAo?$AAg@ 00000001800cf320     LIBCMTD:dbgrptw.obj
 0002:00007388       ??_C@_1CO@EAEJAADC@?$AA?$DM?$AAp?$AAr?$AAo?$AAg?$AAr?$AAa?$AAm?$AA?5?$AAn?$AAa?$AAm?$AAe?$AA?5?$AAu?$AAn?$AAk?$AAn?$AAo?$AAw?$AAn?$AA?$DO?$AA?$AA@ 00000001800cf388     LIBCMTD:dbgrptw.obj
 0002:000073c0       ??_C@_1NO@LECLLHOL@?$AAm?$AAe?$AAm?$AAc?$AAp?$AAy?$AA_?$AAs?$AA?$CI?$AAs?$AAz?$AAS?$AAh?$AAo?$AAr?$AAt?$AAP?$AAr?$AAo?$AAg?$AAN?$AAa?$AAm?$AAe?$AA?0?$AA?5?$AAs?$AAi?$AAz?$AAe?$AAo?$AAf@ 00000001800cf3c0     LIBCMTD:dbgrptw.obj
 0002:000074a0       ??_C@_1OG@PMPPFHAF@?$AA?6?$AA?6?$AAF?$AAo?$AAr?$AA?5?$AAi?$AAn?$AAf?$AAo?$AAr?$AAm?$AAa?$AAt?$AAi?$AAo?$AAn?$AA?5?$AAo?$AAn?$AA?5?$AAh?$AAo?$AAw?$AA?5?$AAy?$AAo?$AAu?$AAr?$AA?5?$AAp?$AAr@ 00000001800cf4a0     LIBCMTD:dbgrptw.obj
 0002:00007588       ??_C@_11LOCGONAA@?$AA?$AA@ 00000001800cf588     LIBCMTD:dbgrptw.obj
 0002:00007590       ??_C@_1BK@PEDCIPMA@?$AAE?$AAx?$AAp?$AAr?$AAe?$AAs?$AAs?$AAi?$AAo?$AAn?$AA?3?$AA?5?$AA?$AA@ 00000001800cf590     LIBCMTD:dbgrptw.obj
 0002:000075ac       ??_C@_15IABLJNFO@?$AA?6?$AA?6?$AA?$AA@ 00000001800cf5ac     LIBCMTD:dbgrptw.obj
 0002:000075b8       ??_C@_1BA@GLLGCPCK@?$AA?6?$AAL?$AAi?$AAn?$AAe?$AA?3?$AA?5?$AA?$AA@ 00000001800cf5b8     LIBCMTD:dbgrptw.obj
 0002:000075c8       ??_C@_1BA@LNHECFIM@?$AA?6?$AAF?$AAi?$AAl?$AAe?$AA?3?$AA?5?$AA?$AA@ 00000001800cf5c8     LIBCMTD:dbgrptw.obj
 0002:000075d8       ??_C@_1BE@CGCJKGHI@?$AA?6?$AAM?$AAo?$AAd?$AAu?$AAl?$AAe?$AA?3?$AA?5?$AA?$AA@ 00000001800cf5d8     LIBCMTD:dbgrptw.obj
 0002:000075f0       ??_C@_1KM@HNMIBKJH@?$AAD?$AAe?$AAb?$AAu?$AAg?$AA?5?$AA?$CF?$AAs?$AA?$CB?$AA?6?$AA?6?$AAP?$AAr?$AAo?$AAg?$AAr?$AAa?$AAm?$AA?3?$AA?5?$AA?$CF?$AAs?$AA?$CF?$AAs?$AA?$CF?$AAs?$AA?$CF?$AAs?$AA?$CF?$AAs?$AA?$CF?$AAs@ 00000001800cf5f0     LIBCMTD:dbgrptw.obj
 0002:000076a0       ??_C@_1BI@KALLJECN@?$AA?$CI?$AA?$CK?$AA_?$AAe?$AAr?$AAr?$AAn?$AAo?$AA?$CI?$AA?$CJ?$AA?$CJ?$AA?$AA@ 00000001800cf6a0     LIBCMTD:dbgrptw.obj
 0002:000076c0       ??_C@_1JI@EACPGHID@?$AAw?$AAc?$AAs?$AAc?$AAp?$AAy?$AA_?$AAs?$AA?$CI?$AAs?$AAz?$AAO?$AAu?$AAt?$AAM?$AAe?$AAs?$AAs?$AAa?$AAg?$AAe?$AA?0?$AA?5?$AA4?$AA0?$AA9?$AA6?$AA?0?$AA?5?$AAL?$AA?$CC?$AA_@ 00000001800cf6c0     LIBCMTD:dbgrptw.obj
 0002:00007760       ??_C@_1FG@BBOLDHGF@?$AA_?$AAC?$AAr?$AAt?$AAD?$AAb?$AAg?$AAR?$AAe?$AAp?$AAo?$AAr?$AAt?$AA?3?$AA?5?$AAS?$AAt?$AAr?$AAi?$AAn?$AAg?$AA?5?$AAt?$AAo?$AAo?$AA?5?$AAl?$AAo?$AAn?$AAg?$AA?5?$AAo@ 00000001800cf760     LIBCMTD:dbgrptw.obj
 0002:000077c0       ??_C@_1EK@MBDPDCGA@?$AAM?$AAi?$AAc?$AAr?$AAo?$AAs?$AAo?$AAf?$AAt?$AA?5?$AAV?$AAi?$AAs?$AAu?$AAa?$AAl?$AA?5?$AAC?$AA?$CL?$AA?$CL?$AA?5?$AAR?$AAu?$AAn?$AAt?$AAi?$AAm?$AAe?$AA?5?$AAL?$AAi?$AAb@ 00000001800cf7c0     LIBCMTD:dbgrptw.obj
 0002:00007838       ??_C@_04HJMOFLDF@Free?$AA@ 00000001800cf838     LIBCMTD:dbgheap.obj
 0002:00007840       ??_C@_06EFAGIKOH@Normal?$AA@ 00000001800cf840     LIBCMTD:dbgheap.obj
 0002:00007848       ??_C@_03OGPFLFLO@CRT?$AA@  00000001800cf848     LIBCMTD:dbgheap.obj
 0002:0000784c       ??_C@_06KMEJCCGM@Ignore?$AA@ 00000001800cf84c     LIBCMTD:dbgheap.obj
 0002:00007854       ??_C@_06PJIGMIJB@Client?$AA@ 00000001800cf854     LIBCMTD:dbgheap.obj
 0002:00007860       ??_C@_1CE@LJFEPPMP@?$AA_?$AAC?$AAr?$AAt?$AAC?$AAh?$AAe?$AAc?$AAk?$AAM?$AAe?$AAm?$AAo?$AAr?$AAy?$AA?$CI?$AA?$CJ?$AA?$AA@ 00000001800cf860     LIBCMTD:dbgheap.obj
 0002:00007890       ??_C@_1FA@JKEKCOIC@?$AAf?$AA?3?$AA?2?$AAd?$AAd?$AA?2?$AAv?$AAc?$AAt?$AAo?$AAo?$AAl?$AAs?$AA?2?$AAc?$AAr?$AAt?$AA?2?$AAc?$AAr?$AAt?$AAw?$AA3?$AA2?$AA?2?$AAm?$AAi?$AAs?$AAc?$AA?2?$AAd?$AAb@ 00000001800cf890     LIBCMTD:dbgheap.obj
 0002:000078e0       ??_C@_0DF@BBEGIFEK@Client?5hook?5allocation?5failure?5a@ 00000001800cf8e0     LIBCMTD:dbgheap.obj
 0002:00007918       ??_C@_0CB@CCLOLAHO@Client?5hook?5allocation?5failure?4?6@ 00000001800cf918     LIBCMTD:dbgheap.obj
 0002:0000793c       ??_C@_02DKCKIIND@?$CFs?$AA@ 00000001800cf93c     LIBCMTD:dbgheap.obj
 0002:00007940       ??_C@_0CF@BICKFLAF@Invalid?5allocation?5size?3?5?$CFIu?5byt@ 00000001800cf940     LIBCMTD:dbgheap.obj
 0002:00007968       ??_C@_0DC@JEMAGEKG@Error?3?5memory?5allocation?3?5bad?5me@ 00000001800cf968     LIBCMTD:dbgheap.obj
 0002:000079a0       ??_C@_0DI@KKJPDPGM@Client?5hook?5re?9allocation?5failur@ 00000001800cf9a0     LIBCMTD:dbgheap.obj
 0002:000079d8       ??_C@_0CE@DOFMDOL@Client?5hook?5re?9allocation?5failur@ 00000001800cf9d8     LIBCMTD:dbgheap.obj
 0002:00007a00       ??_C@_0ED@GPCPBAGP@Invalid?5allocation?5size?3?5?$CFIu?5byt@ 00000001800cfa00     LIBCMTD:dbgheap.obj
 0002:00007a50       ??_C@_0FA@EFEIGJKG@Error?3?5memory?5allocation?3?5bad?5me@ 00000001800cfa50     LIBCMTD:dbgheap.obj
 0002:00007aa0       ??_C@_0EM@LGFLMAGJ@The?5Block?5at?50x?$CFp?5was?5allocated?5@ 00000001800cfaa0     LIBCMTD:dbgheap.obj
 0002:00007af0       ??_C@_1EE@GFOPCECE@?$AA_?$AAC?$AAr?$AAt?$AAI?$AAs?$AAV?$AAa?$AAl?$AAi?$AAd?$AAH?$AAe?$AAa?$AAp?$AAP?$AAo?$AAi?$AAn?$AAt?$AAe?$AAr?$AA?$CI?$AAp?$AAU?$AAs?$AAe?$AAr?$AAD?$AAa?$AAt?$AAa@ 00000001800cfaf0     LIBCMTD:dbgheap.obj
 0002:00007b40       ??_C@_1IK@DCPKDGNH@?$AAp?$AAO?$AAl?$AAd?$AAB?$AAl?$AAo?$AAc?$AAk?$AA?9?$AA?$DO?$AAn?$AAL?$AAi?$AAn?$AAe?$AA?5?$AA?$DN?$AA?$DN?$AA?5?$AAI?$AAG?$AAN?$AAO?$AAR?$AAE?$AA_?$AAL?$AAI?$AAN?$AAE?$AA?5@ 00000001800cfb40     LIBCMTD:dbgheap.obj
 0002:00007bd0       ??_C@_0DA@HFBKENN@Error?3?5possible?5heap?5corruption?5@ 00000001800cfbd0     LIBCMTD:dbgheap.obj
 0002:00007c00       ??_C@_1GE@PCKLOLAO@?$AAf?$AAR?$AAe?$AAa?$AAl?$AAl?$AAo?$AAc?$AA?5?$AA?$HM?$AA?$HM?$AA?5?$AA?$CI?$AA?$CB?$AAf?$AAR?$AAe?$AAa?$AAl?$AAl?$AAo?$AAc?$AA?5?$AA?$CG?$AA?$CG?$AA?5?$AAp?$AAN?$AAe?$AAw?$AAB?$AAl@ 00000001800cfc00     LIBCMTD:dbgheap.obj
 0002:00007c68       ??_C@_1DC@GEFKNOOL@?$AA_?$AAp?$AAL?$AAa?$AAs?$AAt?$AAB?$AAl?$AAo?$AAc?$AAk?$AA?5?$AA?$DN?$AA?$DN?$AA?5?$AAp?$AAO?$AAl?$AAd?$AAB?$AAl?$AAo?$AAc?$AAk?$AA?$AA@ 00000001800cfc68     LIBCMTD:dbgheap.obj
 0002:00007ca0       ??_C@_1DE@KOOKLFBB@?$AA_?$AAp?$AAF?$AAi?$AAr?$AAs?$AAt?$AAB?$AAl?$AAo?$AAc?$AAk?$AA?5?$AA?$DN?$AA?$DN?$AA?5?$AAp?$AAO?$AAl?$AAd?$AAB?$AAl?$AAo?$AAc?$AAk?$AA?$AA@ 00000001800cfca0     LIBCMTD:dbgheap.obj
 0002:00007cd8       ??_C@_1CE@CJACEFBA@?$AAp?$AAU?$AAs?$AAe?$AAr?$AAD?$AAa?$AAt?$AAa?$AA?5?$AA?$CB?$AA?$DN?$AA?5?$AAN?$AAU?$AAL?$AAL?$AA?$AA@ 00000001800cfcd8     LIBCMTD:dbgheap.obj
 0002:00007d00       ??_C@_1BI@HAPNGHDP@?$AA_?$AAe?$AAx?$AAp?$AAa?$AAn?$AAd?$AA_?$AAd?$AAb?$AAg?$AA?$AA@ 00000001800cfd00     LIBCMTD:dbgheap.obj
 0002:00007d20       ??_C@_0EJ@HEIBCIMJ@The?5Block?5at?50x?$CFp?5was?5allocated?5@ 00000001800cfd20     LIBCMTD:dbgheap.obj
 0002:00007d70       ??_C@_0BL@KEIPLFAC@Client?5hook?5free?5failure?4?6?$AA@ 00000001800cfd70     LIBCMTD:dbgheap.obj
 0002:00007d90       ??_C@_0KI@JGFOHMEB@HEAP?5CORRUPTION?5DETECTED?3?5before@ 00000001800cfd90     LIBCMTD:dbgheap.obj
 0002:00007e40       ??_C@_0IK@PJCGLBOB@HEAP?5CORRUPTION?5DETECTED?3?5before@ 00000001800cfe40     LIBCMTD:dbgheap.obj
 0002:00007ed0       ??_C@_0KE@MBMNHHHN@HEAP?5CORRUPTION?5DETECTED?3?5after?5@ 00000001800cfed0     LIBCMTD:dbgheap.obj
 0002:00007f80       ??_C@_0IG@LEMBDCJK@HEAP?5CORRUPTION?5DETECTED?3?5after?5@ 00000001800cff80     LIBCMTD:dbgheap.obj
 0002:00008010       ??_C@_1HK@HPCBMDFG@?$AAp?$AAH?$AAe?$AAa?$AAd?$AA?9?$AA?$DO?$AAn?$AAL?$AAi?$AAn?$AAe?$AA?5?$AA?$DN?$AA?$DN?$AA?5?$AAI?$AAG?$AAN?$AAO?$AAR?$AAE?$AA_?$AAL?$AAI?$AAN?$AAE?$AA?5?$AA?$CG?$AA?$CG?$AA?5?$AAp@ 00000001800d0010     LIBCMTD:dbgheap.obj
 0002:00008090       ??_C@_1DM@ODCJIDCP@?$AAp?$AAH?$AAe?$AAa?$AAd?$AA?9?$AA?$DO?$AAn?$AAB?$AAl?$AAo?$AAc?$AAk?$AAU?$AAs?$AAe?$AA?5?$AA?$DN?$AA?$DN?$AA?5?$AAn?$AAB?$AAl?$AAo?$AAc?$AAk?$AAU?$AAs?$AAe?$AA?$AA@ 00000001800d0090     LIBCMTD:dbgheap.obj
 0002:000080d0       ??_C@_1CK@DMAGEMBG@?$AA_?$AAp?$AAL?$AAa?$AAs?$AAt?$AAB?$AAl?$AAo?$AAc?$AAk?$AA?5?$AA?$DN?$AA?$DN?$AA?5?$AAp?$AAH?$AAe?$AAa?$AAd?$AA?$AA@ 00000001800d00d0     LIBCMTD:dbgheap.obj
 0002:00008100       ??_C@_1CM@MMAADDMD@?$AA_?$AAp?$AAF?$AAi?$AAr?$AAs?$AAt?$AAB?$AAl?$AAo?$AAc?$AAk?$AA?5?$AA?$DN?$AA?$DN?$AA?5?$AAp?$AAH?$AAe?$AAa?$AAd?$AA?$AA@ 00000001800d0100     LIBCMTD:dbgheap.obj
 0002:00008130       ??_C@_1BG@MBKOGDLD@?$AA_?$AAm?$AAs?$AAi?$AAz?$AAe?$AA_?$AAd?$AAb?$AAg?$AA?$AA@ 00000001800d0130     LIBCMTD:dbgheap.obj
 0002:00008148       ??_C@_0CE@MKKHMBMK@_heapchk?5fails?5with?5_HEAPBADBEGI@ 00000001800d0148     LIBCMTD:dbgheap.obj
 0002:00008170       ??_C@_0CD@CPKEAPBD@_heapchk?5fails?5with?5_HEAPBADNODE@ 00000001800d0170     LIBCMTD:dbgheap.obj
 0002:00008198       ??_C@_0CC@MJGLGBDG@_heapchk?5fails?5with?5_HEAPBADEND?4@ 00000001800d0198     LIBCMTD:dbgheap.obj
 0002:000081c0       ??_C@_0CC@MFFCHFHO@_heapchk?5fails?5with?5_HEAPBADPTR?4@ 00000001800d01c0     LIBCMTD:dbgheap.obj
 0002:000081e8       ??_C@_0CL@HNNNMKMJ@_heapchk?5fails?5with?5unknown?5retu@ 00000001800d01e8     LIBCMTD:dbgheap.obj
 0002:00008218       ??_C@_07OHKEFPKJ@DAMAGED?$AA@ 00000001800d0218     LIBCMTD:dbgheap.obj
 0002:00008220       ??_C@_0KA@IHNJJKPL@HEAP?5CORRUPTION?5DETECTED?3?5on?5top@ 00000001800d0220     LIBCMTD:dbgheap.obj
 0002:000082c0       ??_C@_0IC@BBJIOOJH@HEAP?5CORRUPTION?5DETECTED?3?5on?5top@ 00000001800d02c0     LIBCMTD:dbgheap.obj
 0002:00008350       ??_C@_0EG@DGJMPDBH@?$CFhs?5located?5at?50x?$CFp?5is?5?$CFIu?5bytes@ 00000001800d0350     LIBCMTD:dbgheap.obj
 0002:00008398       ??_C@_0CI@JMLBEDHJ@?$CFhs?5located?5at?50x?$CFp?5is?5?$CFIu?5bytes@ 00000001800d0398     LIBCMTD:dbgheap.obj
 0002:000083c0       ??_C@_1BHO@NNANJNF@?$AA?$CI?$AAf?$AAN?$AAe?$AAw?$AAB?$AAi?$AAt?$AAs?$AA?$DN?$AA?$DN?$AA_?$AAC?$AAR?$AAT?$AAD?$AAB?$AAG?$AA_?$AAR?$AAE?$AAP?$AAO?$AAR?$AAT?$AA_?$AAF?$AAL?$AAA?$AAG?$AA?$CJ?$AA?5@ 00000001800d03c0     LIBCMTD:dbgheap.obj
 0002:00008540       ??_C@_1BO@GJFDNMNF@?$AA_?$AAC?$AAr?$AAt?$AAS?$AAe?$AAt?$AAD?$AAb?$AAg?$AAF?$AAl?$AAa?$AAg?$AA?$AA@ 00000001800d0540     LIBCMTD:dbgheap.obj
 0002:00008560       ??_C@_1BI@CJGCEEDL@?$AAp?$AAf?$AAn?$AA?5?$AA?$CB?$AA?$DN?$AA?5?$AAN?$AAU?$AAL?$AAL?$AA?$AA@ 00000001800d0560     LIBCMTD:dbgheap.obj
 0002:00008578       ??_C@_1DE@GJCKCKEC@?$AA_?$AAC?$AAr?$AAt?$AAD?$AAo?$AAF?$AAo?$AAr?$AAA?$AAl?$AAl?$AAC?$AAl?$AAi?$AAe?$AAn?$AAt?$AAO?$AAb?$AAj?$AAe?$AAc?$AAt?$AAs?$AA?$AA@ 00000001800d0578     LIBCMTD:dbgheap.obj
 0002:000085b0       ??_C@_1BM@MIMANDHC@?$AAs?$AAt?$AAa?$AAt?$AAe?$AA?5?$AA?$CB?$AA?$DN?$AA?5?$AAN?$AAU?$AAL?$AAL?$AA?$AA@ 00000001800d05b0     LIBCMTD:dbgheap.obj
 0002:000085d0       ??_C@_1CE@NJJKELF@?$AA_?$AAC?$AAr?$AAt?$AAM?$AAe?$AAm?$AAC?$AAh?$AAe?$AAc?$AAk?$AAp?$AAo?$AAi?$AAn?$AAt?$AA?$AA@ 00000001800d05d0     LIBCMTD:dbgheap.obj
 0002:000085f8       ??_C@_0DP@LEFMFBOD@Bad?5memory?5block?5found?5at?50x?$CFp?4?6@ 00000001800d05f8     LIBCMTD:dbgheap.obj
 0002:00008638       ??_C@_0CB@EAAIGELO@Bad?5memory?5block?5found?5at?50x?$CFp?4?6@ 00000001800d0638     LIBCMTD:dbgheap.obj
 0002:00008660       ??_C@_1CE@PDIENACM@?$AA_?$AAC?$AAr?$AAt?$AAM?$AAe?$AAm?$AAD?$AAi?$AAf?$AAf?$AAe?$AAr?$AAe?$AAn?$AAc?$AAe?$AA?$AA@ 00000001800d0660     LIBCMTD:dbgheap.obj
 0002:00008688       ??_C@_1CC@DHPFEMMN@?$AAo?$AAl?$AAd?$AAS?$AAt?$AAa?$AAt?$AAe?$AA?5?$AA?$CB?$AA?$DN?$AA?5?$AAN?$AAU?$AAL?$AAL?$AA?$AA@ 00000001800d0688     LIBCMTD:dbgheap.obj
 0002:000086b0       ??_C@_1CC@DFPEDFBP@?$AAn?$AAe?$AAw?$AAS?$AAt?$AAa?$AAt?$AAe?$AA?5?$AA?$CB?$AA?$DN?$AA?5?$AAN?$AAU?$AAL?$AAL?$AA?$AA@ 00000001800d06b0     LIBCMTD:dbgheap.obj
 0002:000086d4       ??_C@_05MKKEDADM@?$CF?42X?5?$AA@ 00000001800d06d4     LIBCMTD:dbgheap.obj
 0002:000086e0       ??_C@_1CG@LPFIACGM@?$AA_?$AAp?$AAr?$AAi?$AAn?$AAt?$AAM?$AAe?$AAm?$AAB?$AAl?$AAo?$AAc?$AAk?$AAD?$AAa?$AAt?$AAa?$AA?$AA@ 00000001800d06e0     LIBCMTD:dbgheap.obj
 0002:00008708       ??_C@_0BA@HJBKCELP@?5Data?3?5?$DM?$CFs?$DO?5?$CFs?6?$AA@ 00000001800d0708     LIBCMTD:dbgheap.obj
 0002:00008718       ??_C@_0BE@KCIPKCIA@Dumping?5objects?5?9?$DO?6?$AA@ 00000001800d0718     LIBCMTD:dbgheap.obj
 0002:00008730       ??_C@_0BE@OIEFNFL@?$CDFile?5Error?$CD?$CI?$CFd?$CJ?5?3?5?$AA@ 00000001800d0730     LIBCMTD:dbgheap.obj
 0002:00008748       ??_C@_0L@JMEFFCCJ@?$CFhs?$CI?$CFd?$CJ?5?3?5?$AA@ 00000001800d0748     LIBCMTD:dbgheap.obj
 0002:00008754       ??_C@_06PKLGBFGM@?$HL?$CFld?$HN?5?$AA@ 00000001800d0754     LIBCMTD:dbgheap.obj
 0002:00008760       ??_C@_0DD@GHNAAKBB@client?5block?5at?50x?$CFp?0?5subtype?5?$CFx@ 00000001800d0760     LIBCMTD:dbgheap.obj
 0002:00008798       ??_C@_0CH@FAGDDGPN@normal?5block?5at?50x?$CFp?0?5?$CFIu?5bytes?5@ 00000001800d0798     LIBCMTD:dbgheap.obj
 0002:000087c0       ??_C@_0DA@MDLBNIBM@crt?5block?5at?50x?$CFp?0?5subtype?5?$CFx?0?5?$CF@ 00000001800d07c0     LIBCMTD:dbgheap.obj
 0002:000087f0       ??_C@_0BH@GFGKJDCO@Object?5dump?5complete?4?6?$AA@ 00000001800d07f0     LIBCMTD:dbgheap.obj
 0002:00008808       ??_C@_0BI@JBFPOEJA@Detected?5memory?5leaks?$CB?6?$AA@ 00000001800d0808     LIBCMTD:dbgheap.obj
 0002:00008820       ??_C@_1CM@MPNIBKGK@?$AA_?$AAC?$AAr?$AAt?$AAM?$AAe?$AAm?$AAD?$AAu?$AAm?$AAp?$AAS?$AAt?$AAa?$AAt?$AAi?$AAs?$AAt?$AAi?$AAc?$AAs?$AA?$AA@ 00000001800d0820     LIBCMTD:dbgheap.obj
 0002:00008850       ??_C@_0BO@DACNIABB@?$CFId?5bytes?5in?5?$CFId?5?$CFhs?5Blocks?4?6?$AA@ 00000001800d0850     LIBCMTD:dbgheap.obj
 0002:00008870       ??_C@_0CB@BLHDAFNE@Largest?5number?5used?3?5?$CFId?5bytes?4?6@ 00000001800d0870     LIBCMTD:dbgheap.obj
 0002:00008898       ??_C@_0BP@DEDHGGGI@Total?5allocations?3?5?$CFId?5bytes?4?6?$AA@ 00000001800d0898     LIBCMTD:dbgheap.obj
 0002:000088b8       ??_C@_1CE@NPMGPNNP@?$AAI?$AAS?$AA_?$AA2?$AA_?$AAP?$AAO?$AAW?$AA_?$AAN?$AA?$CI?$AAa?$AAl?$AAi?$AAg?$AAn?$AA?$CJ?$AA?$AA@ 00000001800d08b8     LIBCMTD:dbgheap.obj
 0002:000088e0       ??_C@_1DG@DONCJBBJ@?$AA_?$AAa?$AAl?$AAi?$AAg?$AAn?$AAe?$AAd?$AA_?$AAo?$AAf?$AAf?$AAs?$AAe?$AAt?$AA_?$AAm?$AAa?$AAl?$AAl?$AAo?$AAc?$AA_?$AAd?$AAb?$AAg?$AA?$AA@ 00000001800d08e0     LIBCMTD:dbgheap.obj
 0002:00008918       ??_C@_1DK@LFLKFPDA@?$AAo?$AAf?$AAf?$AAs?$AAe?$AAt?$AA?5?$AA?$DN?$AA?$DN?$AA?5?$AA0?$AA?5?$AA?$HM?$AA?$HM?$AA?5?$AAo?$AAf?$AAf?$AAs?$AAe?$AAt?$AA?5?$AA?$DM?$AA?5?$AAs?$AAi?$AAz?$AAe?$AA?$AA@ 00000001800d0918     LIBCMTD:dbgheap.obj
 0002:00008960       ??_C@_0EI@NDNJMAJK@The?5block?5at?50x?$CFp?5was?5not?5alloca@ 00000001800d0960     LIBCMTD:dbgheap.obj
 0002:000089a8       ??_C@_0DL@PGHMMKNE@Damage?5before?50x?$CFp?5which?5was?5all@ 00000001800d09a8     LIBCMTD:dbgheap.obj
 0002:000089e8       ??_C@_1DI@NINIKFFK@?$AA_?$AAa?$AAl?$AAi?$AAg?$AAn?$AAe?$AAd?$AA_?$AAo?$AAf?$AAf?$AAs?$AAe?$AAt?$AA_?$AAr?$AAe?$AAa?$AAl?$AAl?$AAo?$AAc?$AA_?$AAd?$AAb?$AAg?$AA?$AA@ 00000001800d09e8     LIBCMTD:dbgheap.obj
 0002:00008a20       ??_C@_0EF@PGELACII@The?5block?5at?50x?$CFp?5was?5not?5alloca@ 00000001800d0a20     LIBCMTD:dbgheap.obj
 0002:00008a68       ??_C@_1CC@MOBIKHH@?$AAm?$AAe?$AAm?$AAb?$AAl?$AAo?$AAc?$AAk?$AA?5?$AA?$CB?$AA?$DN?$AA?5?$AAN?$AAU?$AAL?$AAL?$AA?$AA@ 00000001800d0a68     LIBCMTD:dbgheap.obj
 0002:00008a90       ??_C@_1CG@CEGMHIMN@?$AA_?$AAa?$AAl?$AAi?$AAg?$AAn?$AAe?$AAd?$AA_?$AAm?$AAs?$AAi?$AAz?$AAe?$AA_?$AAd?$AAb?$AAg?$AA?$AA@ 00000001800d0a90     LIBCMTD:dbgheap.obj
 0002:00008ab8       ??_C@_0CH@FPHLCLAF@f?3?2dd?2vctools?2crt?2crtw32?2stdio?2_@ 00000001800d0ab8     LIBCMTD:_file.obj
 0002:00008ae0       ??_C@_1FC@LLDAFLML@?$AAf?$AA?3?$AA?2?$AAd?$AAd?$AA?2?$AAv?$AAc?$AAt?$AAo?$AAo?$AAl?$AAs?$AA?2?$AAc?$AAr?$AAt?$AA?2?$AAc?$AAr?$AAt?$AAw?$AA3?$AA2?$AA?2?$AAs?$AAt?$AAd?$AAi?$AAo?$AA?2?$AAv@ 00000001800d0ae0     LIBCMTD:vprintf.obj
 0002:00008b38       ??_C@_1BO@JGFPDJCP@?$AAv?$AAp?$AAr?$AAi?$AAn?$AAt?$AAf?$AA_?$AAh?$AAe?$AAl?$AAp?$AAe?$AAr?$AA?$AA@ 00000001800d0b38     LIBCMTD:vprintf.obj
 0002:00008b58       ??_C@_1BI@MFCLPIBM@?$AAs?$AAt?$AAr?$AA?5?$AA?$CB?$AA?$DN?$AA?5?$AAN?$AAU?$AAL?$AAL?$AA?$AA@ 00000001800d0b58     LIBCMTD:_sftbuf.obj
 0002:00008b70       ??_C@_1FC@LKGACDMH@?$AAf?$AA?3?$AA?2?$AAd?$AAd?$AA?2?$AAv?$AAc?$AAt?$AAo?$AAo?$AAl?$AAs?$AA?2?$AAc?$AAr?$AAt?$AA?2?$AAc?$AAr?$AAt?$AAw?$AA3?$AA2?$AA?2?$AAs?$AAt?$AAd?$AAi?$AAo?$AA?2?$AA_@ 00000001800d0b70     LIBCMTD:_sftbuf.obj
 0002:00008bc8       ??_C@_0CJ@KDJGPIJL@f?3?2dd?2vctools?2crt?2crtw32?2stdio?2_@ 00000001800d0bc8     LIBCMTD:_sftbuf.obj
 0002:00008bf8       ??_C@_1CO@KCKAACMI@?$AAf?$AAl?$AAa?$AAg?$AA?5?$AA?$DN?$AA?$DN?$AA?5?$AA0?$AA?5?$AA?$HM?$AA?$HM?$AA?5?$AAf?$AAl?$AAa?$AAg?$AA?5?$AA?$DN?$AA?$DN?$AA?5?$AA1?$AA?$AA@ 00000001800d0bf8     LIBCMTD:_sftbuf.obj
 0002:00008c28       ??_C@_06OJHGLDPL@?$CInull?$CJ?$AA@ 00000001800d0c28     LIBCMTD:output.obj
 0002:00008c30       ??_C@_1O@CEDCILHN@?$AA?$CI?$AAn?$AAu?$AAl?$AAl?$AA?$CJ?$AA?$AA@ 00000001800d0c30     LIBCMTD:output.obj
 0002:00008c40       __lookuptable              00000001800d0c40     LIBCMTD:output.obj
 0002:00008ca0       ??_C@_1CC@FADMNIL@?$AA?$CI?$AAs?$AAt?$AAr?$AAe?$AAa?$AAm?$AA?5?$AA?$CB?$AA?$DN?$AA?5?$AAN?$AAU?$AAL?$AAL?$AA?$CJ?$AA?$AA@ 00000001800d0ca0     LIBCMTD:output.obj
 0002:00008cd0       ??_C@_1FA@KMIJDCIC@?$AAf?$AA?3?$AA?2?$AAd?$AAd?$AA?2?$AAv?$AAc?$AAt?$AAo?$AAo?$AAl?$AAs?$AA?2?$AAc?$AAr?$AAt?$AA?2?$AAc?$AAr?$AAt?$AAw?$AA3?$AA2?$AA?2?$AAs?$AAt?$AAd?$AAi?$AAo?$AA?2?$AAo@ 00000001800d0cd0     LIBCMTD:output.obj
 0002:00008d20       ??_C@_1BE@IONLIDNC@?$AA_?$AAo?$AAu?$AAt?$AAp?$AAu?$AAt?$AA_?$AAl?$AA?$AA@ 00000001800d0d20     LIBCMTD:output.obj
 0002:00008d40       ??_C@_1BAA@ODEGEDCK@?$AA?$CI?$AA?5?$AA?$CI?$AA_?$AAS?$AAt?$AAr?$AAe?$AAa?$AAm?$AA?9?$AA?$DO?$AA_?$AAf?$AAl?$AAa?$AAg?$AA?5?$AA?$CG?$AA?5?$AA_?$AAI?$AAO?$AAS?$AAT?$AAR?$AAG?$AA?$CJ?$AA?5?$AA?$HM?$AA?$HM?$AA?5@ 00000001800d0d40     LIBCMTD:output.obj
 0002:00008e40       ??_C@_1CC@IFFHEMNF@?$AA?$CI?$AAc?$AAh?$AA?5?$AA?$CB?$AA?$DN?$AA?5?$AA_?$AAT?$AA?$CI?$AA?8?$AA?2?$AA0?$AA?8?$AA?$CJ?$AA?$CJ?$AA?$AA@ 00000001800d0e40     LIBCMTD:output.obj
 0002:00008e70       ??_C@_1EK@PNGFDECN@?$AA?$CI?$AA?$CC?$AA?8?$AAn?$AA?8?$AA?5?$AAf?$AAo?$AAr?$AAm?$AAa?$AAt?$AA?5?$AAs?$AAp?$AAe?$AAc?$AAi?$AAf?$AAi?$AAe?$AAr?$AA?5?$AAd?$AAi?$AAs?$AAa?$AAb?$AAl?$AAe?$AAd?$AA?$CC@ 00000001800d0e70     LIBCMTD:output.obj
 0002:00008ec0       ??_C@_0CI@CMOPBIOD@f?3?2dd?2vctools?2crt?2crtw32?2stdio?2o@ 00000001800d0ec0     LIBCMTD:output.obj
 0002:00008ee8       ??_C@_1BO@LKEBEKJP@?$AAp?$AAV?$AAa?$AAl?$AAu?$AAe?$AA?5?$AA?$CB?$AA?$DN?$AA?5?$AAN?$AAU?$AAL?$AAL?$AA?$AA@ 00000001800d0ee8     LIBCMTD:dosmap.obj
 0002:00008f10       ??_C@_1EM@IOHICOCC@?$AAf?$AA?3?$AA?2?$AAd?$AAd?$AA?2?$AAv?$AAc?$AAt?$AAo?$AAo?$AAl?$AAs?$AA?2?$AAc?$AAr?$AAt?$AA?2?$AAc?$AAr?$AAt?$AAw?$AA3?$AA2?$AA?2?$AAd?$AAo?$AAs?$AA?2?$AAd?$AAo?$AAs@ 00000001800d0f10     LIBCMTD:dosmap.obj
 0002:00008f60       ??_C@_1BG@KCMPBBDK@?$AA_?$AAg?$AAe?$AAt?$AA_?$AAe?$AAr?$AAr?$AAn?$AAo?$AA?$AA@ 00000001800d0f60     LIBCMTD:dosmap.obj
 0002:00008f78       ??_C@_1BM@INIPHHDD@?$AA_?$AAg?$AAe?$AAt?$AA_?$AAd?$AAo?$AAs?$AAe?$AAr?$AAr?$AAn?$AAo?$AA?$AA@ 00000001800d0f78     LIBCMTD:dosmap.obj
 0002:00009110       ??_C@_04LAGPAAHP@sinf?$AA@ 00000001800d1110     LIBCMTD:sincos_special.obj
 0002:00009118       ??_C@_04OBBKPIAC@cosf?$AA@ 00000001800d1118     LIBCMTD:sincos_special.obj
 0002:00009120       ??_C@_04MHPLPEIA@tanf?$AA@ 00000001800d1120     LIBCMTD:sincos_special.obj
 0002:00009130       __Lcosfarray               00000001800d1130     LIBCMTD:Lsincosf_array.obj
 0002:00009160       __Lsinfarray               00000001800d1160     LIBCMTD:Lsincosf_array.obj
 0002:00009180       __L_2_by_pi_bits           00000001800d1180     LIBCMTD:L2_by_pi_bits.obj
 0002:00009440       ??_C@_1FK@PGACCAFB@?$AAR?$AA6?$AA0?$AA0?$AA2?$AA?$AN?$AA?6?$AA?9?$AA?5?$AAf?$AAl?$AAo?$AAa?$AAt?$AAi?$AAn?$AAg?$AA?5?$AAp?$AAo?$AAi?$AAn?$AAt?$AA?5?$AAs?$AAu?$AAp?$AAp?$AAo?$AAr?$AAt?$AA?5@ 00000001800d1440     LIBCMTD:crt0msg.obj
 0002:000094a0       ??_C@_1FE@LLNEDJMD@?$AAR?$AA6?$AA0?$AA0?$AA8?$AA?$AN?$AA?6?$AA?9?$AA?5?$AAn?$AAo?$AAt?$AA?5?$AAe?$AAn?$AAo?$AAu?$AAg?$AAh?$AA?5?$AAs?$AAp?$AAa?$AAc?$AAe?$AA?5?$AAf?$AAo?$AAr?$AA?5?$AAa?$AAr@ 00000001800d14a0     LIBCMTD:crt0msg.obj
 0002:00009500       ??_C@_1FI@HONFMGBI@?$AAR?$AA6?$AA0?$AA0?$AA9?$AA?$AN?$AA?6?$AA?9?$AA?5?$AAn?$AAo?$AAt?$AA?5?$AAe?$AAn?$AAo?$AAu?$AAg?$AAh?$AA?5?$AAs?$AAp?$AAa?$AAc?$AAe?$AA?5?$AAf?$AAo?$AAr?$AA?5?$AAe?$AAn@ 00000001800d1500     LIBCMTD:crt0msg.obj
 0002:00009560       ??_C@_1EG@BEHAGFJD@?$AAR?$AA6?$AA0?$AA1?$AA0?$AA?$AN?$AA?6?$AA?9?$AA?5?$AAa?$AAb?$AAo?$AAr?$AAt?$AA?$CI?$AA?$CJ?$AA?5?$AAh?$AAa?$AAs?$AA?5?$AAb?$AAe?$AAe?$AAn?$AA?5?$AAc?$AAa?$AAl?$AAl?$AAe?$AAd@ 00000001800d1560     LIBCMTD:crt0msg.obj
 0002:000095b0       ??_C@_1FI@LOGNIKDM@?$AAR?$AA6?$AA0?$AA1?$AA6?$AA?$AN?$AA?6?$AA?9?$AA?5?$AAn?$AAo?$AAt?$AA?5?$AAe?$AAn?$AAo?$AAu?$AAg?$AAh?$AA?5?$AAs?$AAp?$AAa?$AAc?$AAe?$AA?5?$AAf?$AAo?$AAr?$AA?5?$AAt?$AAh@ 00000001800d15b0     LIBCMTD:crt0msg.obj
 0002:00009610       ??_C@_1FK@BEOGODMC@?$AAR?$AA6?$AA0?$AA1?$AA7?$AA?$AN?$AA?6?$AA?9?$AA?5?$AAu?$AAn?$AAe?$AAx?$AAp?$AAe?$AAc?$AAt?$AAe?$AAd?$AA?5?$AAm?$AAu?$AAl?$AAt?$AAi?$AAt?$AAh?$AAr?$AAe?$AAa?$AAd?$AA?5@ 00000001800d1610     LIBCMTD:crt0msg.obj
 0002:00009670       ??_C@_1EC@JIBHAOPH@?$AAR?$AA6?$AA0?$AA1?$AA8?$AA?$AN?$AA?6?$AA?9?$AA?5?$AAu?$AAn?$AAe?$AAx?$AAp?$AAe?$AAc?$AAt?$AAe?$AAd?$AA?5?$AAh?$AAe?$AAa?$AAp?$AA?5?$AAe?$AAr?$AAr?$AAo?$AAr?$AA?$AN?$AA?6@ 00000001800d1670     LIBCMTD:crt0msg.obj
 0002:000096c0       ??_C@_1FC@ECHBIFBC@?$AAR?$AA6?$AA0?$AA1?$AA9?$AA?$AN?$AA?6?$AA?9?$AA?5?$AAu?$AAn?$AAa?$AAb?$AAl?$AAe?$AA?5?$AAt?$AAo?$AA?5?$AAo?$AAp?$AAe?$AAn?$AA?5?$AAc?$AAo?$AAn?$AAs?$AAo?$AAl?$AAe?$AA?5@ 00000001800d16c0     LIBCMTD:crt0msg.obj
 0002:00009720       ??_C@_1GK@FHCKBEFA@?$AAR?$AA6?$AA0?$AA2?$AA4?$AA?$AN?$AA?6?$AA?9?$AA?5?$AAn?$AAo?$AAt?$AA?5?$AAe?$AAn?$AAo?$AAu?$AAg?$AAh?$AA?5?$AAs?$AAp?$AAa?$AAc?$AAe?$AA?5?$AAf?$AAo?$AAr?$AA?5?$AA_?$AAo@ 00000001800d1720     LIBCMTD:crt0msg.obj
 0002:00009790       ??_C@_1EM@MAADIHMB@?$AAR?$AA6?$AA0?$AA2?$AA5?$AA?$AN?$AA?6?$AA?9?$AA?5?$AAp?$AAu?$AAr?$AAe?$AA?5?$AAv?$AAi?$AAr?$AAt?$AAu?$AAa?$AAl?$AA?5?$AAf?$AAu?$AAn?$AAc?$AAt?$AAi?$AAo?$AAn?$AA?5?$AAc@ 00000001800d1790     LIBCMTD:crt0msg.obj
 0002:000097e0       ??_C@_1GK@MCAAGJMO@?$AAR?$AA6?$AA0?$AA2?$AA6?$AA?$AN?$AA?6?$AA?9?$AA?5?$AAn?$AAo?$AAt?$AA?5?$AAe?$AAn?$AAo?$AAu?$AAg?$AAh?$AA?5?$AAs?$AAp?$AAa?$AAc?$AAe?$AA?5?$AAf?$AAo?$AAr?$AA?5?$AAs?$AAt@ 00000001800d17e0     LIBCMTD:crt0msg.obj
 0002:00009850       ??_C@_1GK@MFGOKLAG@?$AAR?$AA6?$AA0?$AA2?$AA7?$AA?$AN?$AA?6?$AA?9?$AA?5?$AAn?$AAo?$AAt?$AA?5?$AAe?$AAn?$AAo?$AAu?$AAg?$AAh?$AA?5?$AAs?$AAp?$AAa?$AAc?$AAe?$AA?5?$AAf?$AAo?$AAr?$AA?5?$AAl?$AAo@ 00000001800d1850     LIBCMTD:crt0msg.obj
 0002:000098c0       ??_C@_1EK@HHFLMAOL@?$AAR?$AA6?$AA0?$AA2?$AA8?$AA?$AN?$AA?6?$AA?9?$AA?5?$AAu?$AAn?$AAa?$AAb?$AAl?$AAe?$AA?5?$AAt?$AAo?$AA?5?$AAi?$AAn?$AAi?$AAt?$AAi?$AAa?$AAl?$AAi?$AAz?$AAe?$AA?5?$AAh?$AAe@ 00000001800d18c0     LIBCMTD:crt0msg.obj
 0002:00009910       ??_C@_1DO@BMFCDCD@?$AAR?$AA6?$AA0?$AA3?$AA0?$AA?$AN?$AA?6?$AA?9?$AA?5?$AAC?$AAR?$AAT?$AA?5?$AAn?$AAo?$AAt?$AA?5?$AAi?$AAn?$AAi?$AAt?$AAi?$AAa?$AAl?$AAi?$AAz?$AAe?$AAd?$AA?$AN?$AA?6?$AA?$AA@ 00000001800d1910     LIBCMTD:crt0msg.obj
 0002:00009950       ??_C@_1MG@ENCOOIDF@?$AAR?$AA6?$AA0?$AA3?$AA1?$AA?$AN?$AA?6?$AA?9?$AA?5?$AAA?$AAt?$AAt?$AAe?$AAm?$AAp?$AAt?$AA?5?$AAt?$AAo?$AA?5?$AAi?$AAn?$AAi?$AAt?$AAi?$AAa?$AAl?$AAi?$AAz?$AAe?$AA?5?$AAt@ 00000001800d1950     LIBCMTD:crt0msg.obj
 0002:00009a20       ??_C@_1GG@GOPILAJP@?$AAR?$AA6?$AA0?$AA3?$AA2?$AA?$AN?$AA?6?$AA?9?$AA?5?$AAn?$AAo?$AAt?$AA?5?$AAe?$AAn?$AAo?$AAu?$AAg?$AAh?$AA?5?$AAs?$AAp?$AAa?$AAc?$AAe?$AA?5?$AAf?$AAo?$AAr?$AA?5?$AAl?$AAo@ 00000001800d1a20     LIBCMTD:crt0msg.obj
 0002:00009a90       ??_C@_1BOO@KGEDBGAJ@?$AAR?$AA6?$AA0?$AA3?$AA3?$AA?$AN?$AA?6?$AA?9?$AA?5?$AAA?$AAt?$AAt?$AAe?$AAm?$AAp?$AAt?$AA?5?$AAt?$AAo?$AA?5?$AAu?$AAs?$AAe?$AA?5?$AAM?$AAS?$AAI?$AAL?$AA?5?$AAc?$AAo?$AAd@ 00000001800d1a90     LIBCMTD:crt0msg.obj
 0002:00009c80       ??_C@_1GG@MKFPEKFO@?$AAR?$AA6?$AA0?$AA3?$AA4?$AA?$AN?$AA?6?$AA?9?$AA?5?$AAi?$AAn?$AAc?$AAo?$AAn?$AAs?$AAi?$AAs?$AAt?$AAe?$AAn?$AAt?$AA?5?$AAo?$AAn?$AAe?$AAx?$AAi?$AAt?$AA?5?$AAb?$AAe?$AAg@ 00000001800d1c80     LIBCMTD:crt0msg.obj
 0002:00009ce8       ??_C@_1BO@BFCDCGC@?$AAD?$AAO?$AAM?$AAA?$AAI?$AAN?$AA?5?$AAe?$AAr?$AAr?$AAo?$AAr?$AA?$AN?$AA?6?$AA?$AA@ 00000001800d1ce8     LIBCMTD:crt0msg.obj
 0002:00009d08       ??_C@_1BK@KMOMNAAI@?$AAS?$AAI?$AAN?$AAG?$AA?5?$AAe?$AAr?$AAr?$AAo?$AAr?$AA?$AN?$AA?6?$AA?$AA@ 00000001800d1d08     LIBCMTD:crt0msg.obj
 0002:00009d28       ??_C@_1BM@JBBEPPHI@?$AAT?$AAL?$AAO?$AAS?$AAS?$AA?5?$AAe?$AAr?$AAr?$AAo?$AAr?$AA?$AN?$AA?6?$AA?$AA@ 00000001800d1d28     LIBCMTD:crt0msg.obj
 0002:00009d44       ??_C@_15JNBOKNOG@?$AA?$AN?$AA?6?$AA?$AA@ 00000001800d1d44     LIBCMTD:crt0msg.obj
 0002:00009d50       ??_C@_1BO@BKOMIGKJ@?$AAr?$AAu?$AAn?$AAt?$AAi?$AAm?$AAe?$AA?5?$AAe?$AAr?$AAr?$AAo?$AAr?$AA?5?$AA?$AA@ 00000001800d1d50     LIBCMTD:crt0msg.obj
 0002:00009d70       ??_C@_1FG@ILOHEEMG@?$AAf?$AA?3?$AA?2?$AAd?$AAd?$AA?2?$AAv?$AAc?$AAt?$AAo?$AAo?$AAl?$AAs?$AA?2?$AAc?$AAr?$AAt?$AA?2?$AAc?$AAr?$AAt?$AAw?$AA3?$AA2?$AA?2?$AAs?$AAt?$AAa?$AAr?$AAt?$AAu?$AAp@ 00000001800d1d70     LIBCMTD:crt0msg.obj
 0002:00009dc8       ??_C@_1BI@EAHMBMEC@?$AA_?$AAN?$AAM?$AAS?$AAG?$AA_?$AAW?$AAR?$AAI?$AAT?$AAE?$AA?$AA@ 00000001800d1dc8     LIBCMTD:crt0msg.obj
 0002:00009de0       ??_C@_1KO@BKLCKNFL@?$AAw?$AAc?$AAs?$AAc?$AAp?$AAy?$AA_?$AAs?$AA?$CI?$AAo?$AAu?$AAt?$AAm?$AAs?$AAg?$AA?0?$AA?5?$AA?$CI?$AAs?$AAi?$AAz?$AAe?$AAo?$AAf?$AA?$CI?$AAo?$AAu?$AAt?$AAm?$AAs?$AAg?$AA?$CJ@ 00000001800d1de0     LIBCMTD:crt0msg.obj
 0002:00009e90       ??_C@_1DE@JNGNBFGO@?$AAR?$AAu?$AAn?$AAt?$AAi?$AAm?$AAe?$AA?5?$AAE?$AAr?$AAr?$AAo?$AAr?$AA?$CB?$AA?6?$AA?6?$AAP?$AAr?$AAo?$AAg?$AAr?$AAa?$AAm?$AA?3?$AA?5?$AA?$AA@ 00000001800d1e90     LIBCMTD:crt0msg.obj
 0002:00009ed0       ??_C@_1HK@FJJNAABO@?$AAw?$AAc?$AAs?$AAc?$AAp?$AAy?$AA_?$AAs?$AA?$CI?$AAp?$AAr?$AAo?$AAg?$AAn?$AAa?$AAm?$AAe?$AA?0?$AA?5?$AAp?$AAr?$AAo?$AAg?$AAn?$AAa?$AAm?$AAe?$AA_?$AAs?$AAi?$AAz?$AAe@ 00000001800d1ed0     LIBCMTD:crt0msg.obj
 0002:00009f50       ??_C@_1HI@FLHKGEBE@?$AAw?$AAc?$AAs?$AAn?$AAc?$AAp?$AAy?$AA_?$AAs?$AA?$CI?$AAp?$AAc?$AAh?$AA?0?$AA?5?$AAp?$AAr?$AAo?$AAg?$AAn?$AAa?$AAm?$AAe?$AA_?$AAs?$AAi?$AAz?$AAe?$AA?5?$AA?9?$AA?5?$AA?$CI@ 00000001800d1f50     LIBCMTD:crt0msg.obj
 0002:00009fd0       ??_C@_1IA@DCJGKHFO@?$AAw?$AAc?$AAs?$AAc?$AAa?$AAt?$AA_?$AAs?$AA?$CI?$AAo?$AAu?$AAt?$AAm?$AAs?$AAg?$AA?0?$AA?5?$AA?$CI?$AAs?$AAi?$AAz?$AAe?$AAo?$AAf?$AA?$CI?$AAo?$AAu?$AAt?$AAm?$AAs?$AAg?$AA?$CJ@ 00000001800d1fd0     LIBCMTD:crt0msg.obj
 0002:0000a050       ??_C@_1IG@NMONDPP@?$AAw?$AAc?$AAs?$AAc?$AAa?$AAt?$AA_?$AAs?$AA?$CI?$AAo?$AAu?$AAt?$AAm?$AAs?$AAg?$AA?0?$AA?5?$AA?$CI?$AAs?$AAi?$AAz?$AAe?$AAo?$AAf?$AA?$CI?$AAo?$AAu?$AAt?$AAm?$AAs?$AAg?$AA?$CJ@ 00000001800d2050     LIBCMTD:crt0msg.obj
 0002:0000a0d8       ??_C@_0CJ@PLENACMA@f?3?2dd?2vctools?2crt?2crtw32?2misc?2in@ 00000001800d20d8     LIBCMTD:inithelp.obj
 0002:0000a110       ??_C@_1FC@PPCAPEFB@?$AAf?$AA?3?$AA?2?$AAd?$AAd?$AA?2?$AAv?$AAc?$AAt?$AAo?$AAo?$AAl?$AAs?$AA?2?$AAc?$AAr?$AAt?$AA?2?$AAc?$AAr?$AAt?$AAw?$AA3?$AA2?$AA?2?$AAm?$AAi?$AAs?$AAc?$AA?2?$AAi?$AAn@ 00000001800d2110     LIBCMTD:inithelp.obj
 0002:0000a168       ??_C@_1CA@KHHCPEI@?$AA_?$AA_?$AAg?$AAe?$AAt?$AAl?$AAo?$AAc?$AAa?$AAl?$AAe?$AAi?$AAn?$AAf?$AAo?$AA?$AA@ 00000001800d2168     LIBCMTD:inithelp.obj
 0002:0000a190       ??_C@_1GO@NGIGJNHH@?$AAs?$AAt?$AAr?$AAn?$AAc?$AAp?$AAy?$AA_?$AAs?$AA?$CI?$AA?$CK?$AAs?$AAt?$AAr?$AAa?$AAd?$AAd?$AAr?$AAe?$AAs?$AAs?$AA?0?$AA?5?$AAo?$AAu?$AAt?$AAs?$AAi?$AAz?$AAe?$AA?0?$AA?5@ 00000001800d2190     LIBCMTD:inithelp.obj
 0002:0000a200       _XcptActTab                00000001800d2200     LIBCMTD:winxfltr.obj
 0002:0000a2c0       _XcptActTabCount           00000001800d22c0     LIBCMTD:winxfltr.obj
 0002:0000a2c4       _XcptActTabSize            00000001800d22c4     LIBCMTD:winxfltr.obj
 0002:0000a2c8       _First_FPE_Indx            00000001800d22c8     LIBCMTD:winxfltr.obj
 0002:0000a2cc       _Num_FPE                   00000001800d22cc     LIBCMTD:winxfltr.obj
 0002:0000a2d0       ??_C@_0CM@KPPOKOAI@f?3?2dd?2vctools?2crt?2crtw32?2startup@ 00000001800d22d0     LIBCMTD:tidtable.obj
 0002:0000a300       ??_C@_1BI@BGOHAHKC@?$AAm?$AAs?$AAc?$AAo?$AAr?$AAe?$AAe?$AA?4?$AAd?$AAl?$AAl?$AA?$AA@ 00000001800d2300     LIBCMTD:crt0dat.obj
 0002:0000a318       ??_C@_0P@MIGLKIOC@CorExitProcess?$AA@ 00000001800d2318     LIBCMTD:crt0dat.obj
 0002:0000a330       ??_C@_1FG@MHCBBJEK@?$AAf?$AA?3?$AA?2?$AAd?$AAd?$AA?2?$AAv?$AAc?$AAt?$AAo?$AAo?$AAl?$AAs?$AA?2?$AAc?$AAr?$AAt?$AA?2?$AAc?$AAr?$AAt?$AAw?$AA3?$AA2?$AA?2?$AAs?$AAt?$AAa?$AAr?$AAt?$AAu?$AAp@ 00000001800d2330     LIBCMTD:crt0dat.obj
 0002:0000a388       ??_C@_1BK@PNLDCCDP@?$AA_?$AAg?$AAe?$AAt?$AA_?$AAw?$AAp?$AAg?$AAm?$AAp?$AAt?$AAr?$AA?$AA@ 00000001800d2388     LIBCMTD:crt0dat.obj
 0002:0000a3a8       ??_C@_1CC@CDIPMFPD@?$AA_?$AAw?$AAp?$AAg?$AAm?$AAp?$AAt?$AAr?$AA?5?$AA?$CB?$AA?$DN?$AA?5?$AAN?$AAU?$AAL?$AAL?$AA?$AA@ 00000001800d23a8     LIBCMTD:crt0dat.obj
 0002:0000a3d0       ??_C@_1BI@COAAPHJK@?$AA_?$AAg?$AAe?$AAt?$AA_?$AAp?$AAg?$AAm?$AAp?$AAt?$AAr?$AA?$AA@ 00000001800d23d0     LIBCMTD:crt0dat.obj
 0002:0000a3e8       ??_C@_1CA@BBNAFCKO@?$AA_?$AAp?$AAg?$AAm?$AAp?$AAt?$AAr?$AA?5?$AA?$CB?$AA?$DN?$AA?5?$AAN?$AAU?$AAL?$AAL?$AA?$AA@ 00000001800d23e8     LIBCMTD:crt0dat.obj
 0002:0000a408       ??_C@_1BK@DJNILIMN@?$AAp?$AAa?$AAt?$AAh?$AA?5?$AA?$CB?$AA?$DN?$AA?5?$AAN?$AAU?$AAL?$AAL?$AA?$AA@ 00000001800d2408     LIBCMTD:crt0dat.obj
 0002:0000a428       ??_C@_1DG@KANBJOCK@?$AA_?$AA_?$AAc?$AAo?$AAp?$AAy?$AA_?$AAp?$AAa?$AAt?$AAh?$AA_?$AAt?$AAo?$AA_?$AAw?$AAi?$AAd?$AAe?$AA_?$AAs?$AAt?$AAr?$AAi?$AAn?$AAg?$AA?$AA@ 00000001800d2428     LIBCMTD:crt0dat.obj
 0002:0000a460       ??_C@_1CA@BGODLPHH@?$AAo?$AAu?$AAt?$AAP?$AAa?$AAt?$AAh?$AA?5?$AA?$CB?$AA?$DN?$AA?5?$AAN?$AAU?$AAL?$AAL?$AA?$AA@ 00000001800d2460     LIBCMTD:crt0dat.obj
 0002:0000a480       ??_C@_0CL@LMMOJFEN@f?3?2dd?2vctools?2crt?2crtw32?2startup@ 00000001800d2480     LIBCMTD:crt0dat.obj
 0002:0000a4b0       ??_C@_1CC@NLGECIOD@?$AAi?$AAn?$AAS?$AAt?$AAr?$AAi?$AAn?$AAg?$AA?5?$AA?$CB?$AA?$DN?$AA?5?$AAN?$AAU?$AAL?$AAL?$AA?$AA@ 00000001800d24b0     LIBCMTD:crt0dat.obj
 0002:0000a4d8       ??_C@_1BO@PNPLHAEP@?$AA_?$AA_?$AAc?$AAo?$AAp?$AAy?$AA_?$AAt?$AAo?$AA_?$AAc?$AAh?$AAa?$AAr?$AA?$AA@ 00000001800d24d8     LIBCMTD:crt0dat.obj
 0002:0000a4f8       ??_C@_1CE@HIPDKGHC@?$AAo?$AAu?$AAt?$AAS?$AAt?$AAr?$AAi?$AAn?$AAg?$AA?5?$AA?$CB?$AA?$DN?$AA?5?$AAN?$AAU?$AAL?$AAL?$AA?$AA@ 00000001800d24f8     LIBCMTD:crt0dat.obj
 0002:0000a520       ??_C@_1BC@DENNNKIM@?$AA_?$AAc?$AAr?$AAt?$AAh?$AAe?$AAa?$AAp?$AA?$AA@ 00000001800d2520     LIBCMTD:heapinit.obj
 0002:0000a540       ??_C@_1FC@JOHAHJGP@?$AAf?$AA?3?$AA?2?$AAd?$AAd?$AA?2?$AAv?$AAc?$AAt?$AAo?$AAo?$AAl?$AAs?$AA?2?$AAc?$AAr?$AAt?$AA?2?$AAc?$AAr?$AAt?$AAw?$AA3?$AA2?$AA?2?$AAh?$AAe?$AAa?$AAp?$AA?2?$AAh?$AAe@ 00000001800d2540     LIBCMTD:heapinit.obj
 0002:0000a598       ??_C@_0CI@BIOGDJKL@f?3?2dd?2vctools?2crt?2crtw32?2lowio?2i@ 00000001800d2598     LIBCMTD:ioinit.obj
 0002:0000a5c0       ??_C@_0CL@OBKFGCKK@f?3?2dd?2vctools?2crt?2crtw32?2startup@ 00000001800d25c0     LIBCMTD:stdargv.obj
 0002:0000a5f0       ??_C@_0CL@BJBFGFLH@f?3?2dd?2vctools?2crt?2crtw32?2startup@ 00000001800d25f0     LIBCMTD:stdenvp.obj
 0002:0000a620       ??_C@_1FG@MHBLOJIO@?$AAf?$AA?3?$AA?2?$AAd?$AAd?$AA?2?$AAv?$AAc?$AAt?$AAo?$AAo?$AAl?$AAs?$AA?2?$AAc?$AAr?$AAt?$AA?2?$AAc?$AAr?$AAt?$AAw?$AA3?$AA2?$AA?2?$AAs?$AAt?$AAa?$AAr?$AAt?$AAu?$AAp@ 00000001800d2620     LIBCMTD:stdenvp.obj
 0002:0000a678       ??_C@_1BC@GHMCNHHL@?$AA_?$AAs?$AAe?$AAt?$AAe?$AAn?$AAv?$AAp?$AA?$AA@ 00000001800d2678     LIBCMTD:stdenvp.obj
 0002:0000a690       ??_C@_1DE@MMOGFGHF@?$AAs?$AAt?$AAr?$AAc?$AAp?$AAy?$AA_?$AAs?$AA?$CI?$AA?$CK?$AAe?$AAn?$AAv?$AA?0?$AA?5?$AAc?$AAc?$AAh?$AAa?$AAr?$AAs?$AA?0?$AA?5?$AAp?$AA?$CJ?$AA?$AA@ 00000001800d2690     LIBCMTD:stdenvp.obj
 0002:0000a6c8       ??_C@_0CG@NNNNMKLF@f?3?2dd?2vctools?2crt?2crtw32?2misc?2a_@ 00000001800d26c8     LIBCMTD:a_env.obj
 0002:0000a6f0       ??_C@_1BK@MGMFAEKH@?$AAk?$AAe?$AAr?$AAn?$AAe?$AAl?$AA3?$AA2?$AA?4?$AAd?$AAl?$AAl?$AA?$AA@ 00000001800d26f0     LIBCMTD:winapisupp.obj
 0002:0000a710       ??_C@_08KNHFBNJ@FlsAlloc?$AA@ 00000001800d2710     LIBCMTD:winapisupp.obj
 0002:0000a720       ??_C@_07PEJMOBNF@FlsFree?$AA@ 00000001800d2720     LIBCMTD:winapisupp.obj
 0002:0000a728       ??_C@_0M@GDNOONDI@FlsGetValue?$AA@ 00000001800d2728     LIBCMTD:winapisupp.obj
 0002:0000a738       ??_C@_0M@JCPCPOEF@FlsSetValue?$AA@ 00000001800d2738     LIBCMTD:winapisupp.obj
 0002:0000a748       ??_C@_0BM@HCFOFFN@InitializeCriticalSectionEx?$AA@ 00000001800d2748     LIBCMTD:winapisupp.obj
 0002:0000a768       ??_C@_0P@DLHPPCNH@CreateEventExW?$AA@ 00000001800d2768     LIBCMTD:winapisupp.obj
 0002:0000a778       ??_C@_0BD@KIEEOEEH@CreateSemaphoreExW?$AA@ 00000001800d2778     LIBCMTD:winapisupp.obj
 0002:0000a790       ??_C@_0BI@BKLFFAPO@SetThreadStackGuarantee?$AA@ 00000001800d2790     LIBCMTD:winapisupp.obj
 0002:0000a7a8       ??_C@_0BG@OGFAJCKC@CreateThreadpoolTimer?$AA@ 00000001800d27a8     LIBCMTD:winapisupp.obj
 0002:0000a7c0       ??_C@_0BD@LPLEMMDI@SetThreadpoolTimer?$AA@ 00000001800d27c0     LIBCMTD:winapisupp.obj
 0002:0000a7d8       ??_C@_0CA@FMNJENH@WaitForThreadpoolTimerCallbacks?$AA@ 00000001800d27d8     LIBCMTD:winapisupp.obj
 0002:0000a7f8       ??_C@_0BF@DCFCCNOC@CloseThreadpoolTimer?$AA@ 00000001800d27f8     LIBCMTD:winapisupp.obj
 0002:0000a810       ??_C@_0BF@FLABGKKM@CreateThreadpoolWait?$AA@ 00000001800d2810     LIBCMTD:winapisupp.obj
 0002:0000a828       ??_C@_0BC@MGCOHNA@SetThreadpoolWait?$AA@ 00000001800d2828     LIBCMTD:winapisupp.obj
 0002:0000a840       ??_C@_0BE@OCIOMIMP@CloseThreadpoolWait?$AA@ 00000001800d2840     LIBCMTD:winapisupp.obj
 0002:0000a858       ??_C@_0BJ@LKGHFHBO@FlushProcessWriteBuffers?$AA@ 00000001800d2858     LIBCMTD:winapisupp.obj
 0002:0000a878       ??_C@_0BP@KALKKPMO@FreeLibraryWhenCallbackReturns?$AA@ 00000001800d2878     LIBCMTD:winapisupp.obj
 0002:0000a898       ??_C@_0BK@DFNBACLA@GetCurrentProcessorNumber?$AA@ 00000001800d2898     LIBCMTD:winapisupp.obj
 0002:0000a8b8       ??_C@_0BP@KHGALBC@GetLogicalProcessorInformation?$AA@ 00000001800d28b8     LIBCMTD:winapisupp.obj
 0002:0000a8d8       ??_C@_0BE@FKKLLFLM@CreateSymbolicLinkW?$AA@ 00000001800d28d8     LIBCMTD:winapisupp.obj
 0002:0000a8f0       ??_C@_0BJ@OHNKDLIJ@SetDefaultDllDirectories?$AA@ 00000001800d28f0     LIBCMTD:winapisupp.obj
 0002:0000a910       ??_C@_0BE@LJANKFHF@EnumSystemLocalesEx?$AA@ 00000001800d2910     LIBCMTD:winapisupp.obj
 0002:0000a928       ??_C@_0BA@IHGNDAEB@CompareStringEx?$AA@ 00000001800d2928     LIBCMTD:winapisupp.obj
 0002:0000a938       ??_C@_0BA@EPCJIIPD@GetDateFormatEx?$AA@ 00000001800d2938     LIBCMTD:winapisupp.obj
 0002:0000a948       ??_C@_0BA@ONOKGCMP@GetLocaleInfoEx?$AA@ 00000001800d2948     LIBCMTD:winapisupp.obj
 0002:0000a958       ??_C@_0BA@CIJJKCJJ@GetTimeFormatEx?$AA@ 00000001800d2958     LIBCMTD:winapisupp.obj
 0002:0000a968       ??_C@_0BJ@PBCCBIPI@GetUserDefaultLocaleName?$AA@ 00000001800d2968     LIBCMTD:winapisupp.obj
 0002:0000a988       ??_C@_0BC@CELBKLLA@IsValidLocaleName?$AA@ 00000001800d2988     LIBCMTD:winapisupp.obj
 0002:0000a9a0       ??_C@_0O@KKBNKAPF@LCMapStringEx?$AA@ 00000001800d29a0     LIBCMTD:winapisupp.obj
 0002:0000a9b0       ??_C@_0BE@JOGNEJCI@GetCurrentPackageId?$AA@ 00000001800d29b0     LIBCMTD:winapisupp.obj
 0002:0000a9c8       ??_C@_0P@CDHHOHKP@GetTickCount64?$AA@ 00000001800d29c8     LIBCMTD:winapisupp.obj
 0002:0000a9d8       ??_C@_0BO@KPCLFDJJ@GetFileInformationByHandleExW?$AA@ 00000001800d29d8     LIBCMTD:winapisupp.obj
 0002:0000a9f8       ??_C@_0BM@MHIDLABK@SetFileInformationByHandleW?$AA@ 00000001800d29f8     LIBCMTD:winapisupp.obj
 0002:0000aae0       ??_C@_0NN@NGPKDKPD@The?5value?5of?5ESP?5was?5not?5properl@ 00000001800d2ae0     LIBCMTD:error.obj
 0002:0000abc0       ??_C@_0BBN@GPMLNJCF@A?5cast?5to?5a?5smaller?5data?5type?5ha@ 00000001800d2bc0     LIBCMTD:error.obj
 0002:0000ace0       ??_C@_0BN@FFOINMNJ@Stack?5memory?5was?5corrupted?6?$AN?$AA@ 00000001800d2ce0     LIBCMTD:error.obj
 0002:0000ad00       ??_C@_0DG@HKJMLLLP@A?5local?5variable?5was?5used?5before@ 00000001800d2d00     LIBCMTD:error.obj
 0002:0000ad38       ??_C@_0CM@NGINOKPC@Stack?5memory?5around?5_alloca?5was?5@ 00000001800d2d38     LIBCMTD:error.obj
 0002:0000ad68       ??_C@_0BO@GNIAFIKK@Unknown?5Runtime?5Check?5Error?6?$AN?$AA@ 00000001800d2d68     LIBCMTD:error.obj
 0002:0000ad90       ??_C@_1GM@OLMCBDMB@?$AAR?$AAu?$AAn?$AAt?$AAi?$AAm?$AAe?$AA?5?$AAC?$AAh?$AAe?$AAc?$AAk?$AA?5?$AAE?$AAr?$AAr?$AAo?$AAr?$AA?4?$AA?6?$AA?$AN?$AA?5?$AAU?$AAn?$AAa?$AAb?$AAl?$AAe?$AA?5?$AAt?$AAo@ 00000001800d2d90     LIBCMTD:error.obj
 0002:0000ae00       ??_C@_1EA@NFKNIFJP@?$AAR?$AAu?$AAn?$AA?9?$AAT?$AAi?$AAm?$AAe?$AA?5?$AAC?$AAh?$AAe?$AAc?$AAk?$AA?5?$AAF?$AAa?$AAi?$AAl?$AAu?$AAr?$AAe?$AA?5?$AA?$CD?$AA?$CF?$AAd?$AA?5?$AA?9?$AA?5?$AA?$CF?$AAs?$AA?$AA@ 00000001800d2e00     LIBCMTD:error.obj
 0002:0000ae40       ??_C@_0BB@PFFGGCJP@Unknown?5Filename?$AA@ 00000001800d2e40     LIBCMTD:error.obj
 0002:0000ae58       ??_C@_0BE@GNBOBNCK@Unknown?5Module?5Name?$AA@ 00000001800d2e58     LIBCMTD:error.obj
 0002:0000ae70       ??_C@_0CA@IODNCDPG@Run?9Time?5Check?5Failure?5?$CD?$CFd?5?9?5?$CFs?$AA@ 00000001800d2e70     LIBCMTD:error.obj
 0002:0000ae90       ??_C@_0CG@IAFNJNEE@Stack?5corrupted?5near?5unknown?5var@ 00000001800d2e90     LIBCMTD:error.obj
 0002:0000aeb8       ??_C@_1BG@OILDLIOJ@?$AAu?$AAs?$AAe?$AAr?$AA3?$AA2?$AA?4?$AAd?$AAl?$AAl?$AA?$AA@ 00000001800d2eb8     LIBCMTD:error.obj
 0002:0000aed0       ??_C@_09FOPFMPEJ@wsprintfA?$AA@ 00000001800d2ed0     LIBCMTD:error.obj
 0002:0000aee0       ??_C@_0EJ@LJKNEOLN@Stack?5area?5around?5_alloca?5memory@ 00000001800d2ee0     LIBCMTD:error.obj
 0002:0000af30       ??_C@_08OMAHNMHJ@?6Data?3?5?$DM?$AA@ 00000001800d2f30     LIBCMTD:error.obj
 0002:0000af40       ??_C@_0CK@DKGBICFE@?6Allocation?5number?5within?5this?5f@ 00000001800d2f40     LIBCMTD:error.obj
 0002:0000af70       ??_C@_07DFDJCKFN@?6Size?3?5?$AA@ 00000001800d2f70     LIBCMTD:error.obj
 0002:0000af78       ??_C@_0N@MHFFIMFG@?6Address?3?50x?$AA@ 00000001800d2f78     LIBCMTD:error.obj
 0002:0000af90       ??_C@_0EI@CLEPFNGI@Stack?5area?5around?5_alloca?5memory@ 00000001800d2f90     LIBCMTD:error.obj
 0002:0000afd8       ??_C@_0BE@EJFBLEMJ@?$CFs?$CFs?$CFp?$CFs?$CFI64d?$CFs?$CFd?$CFs?$AA@ 00000001800d2fd8     LIBCMTD:error.obj
 0002:0000afec       ??_C@_01EEMJAFIK@?6?$AA@   00000001800d2fec     LIBCMTD:error.obj
 0002:0000aff0       ??_C@_02LLMPMKNF@?$DO?5?$AA@ 00000001800d2ff0     LIBCMTD:error.obj
 0002:0000aff8       ??_C@_08KJEDNCKC@?$CFs?$CFs?$CFs?$CFs?$AA@ 00000001800d2ff8     LIBCMTD:error.obj
 0002:0000b008       ??_C@_0DE@OHJBPMBP@A?5variable?5is?5being?5used?5without@ 00000001800d3008     LIBCMTD:error.obj
 0002:0000b058       ??_C@_03KHICJKCI@?4?4?4?$AA@ 00000001800d3058     LIBCMTD:dbgrpt.obj
 0002:0000b060       ??_C@_1CG@GNMJDMIO@?$AA_?$AAC?$AAr?$AAt?$AAS?$AAe?$AAt?$AAR?$AAe?$AAp?$AAo?$AAr?$AAt?$AAH?$AAo?$AAo?$AAk?$AA2?$AA?$AA@ 00000001800d3060     LIBCMTD:dbgrpt.obj
 0002:0000b088       ??_C@_1CI@IDOKFLAJ@?$AA_?$AA_?$AAc?$AAr?$AAt?$AAM?$AAe?$AAs?$AAs?$AAa?$AAg?$AAe?$AAW?$AAi?$AAn?$AAd?$AAo?$AAw?$AAA?$AA?$AA@ 00000001800d3088     LIBCMTD:dbgrpt.obj
 0002:0000b0b0       ??_C@_1GG@DLDHOIGE@?$AAs?$AAt?$AAr?$AAc?$AAp?$AAy?$AA_?$AAs?$AA?$CI?$AAs?$AAz?$AAE?$AAx?$AAe?$AAN?$AAa?$AAm?$AAe?$AA?0?$AA?5?$AA2?$AA6?$AA0?$AA?0?$AA?5?$AA?$CC?$AA?$DM?$AAp?$AAr?$AAo?$AAg?$AAr@ 00000001800d30b0     LIBCMTD:dbgrpt.obj
 0002:0000b118       ??_C@_0BH@DNAGHKFM@?$DMprogram?5name?5unknown?$DO?$AA@ 00000001800d3118     LIBCMTD:dbgrpt.obj
 0002:0000b12f       ??_C@_00CNPNBAHC@?$AA@     00000001800d312f     LIBCMTD:dbgrpt.obj
 0002:0000b130       ??_C@_1LG@BEHAHJLI@?$AAD?$AAe?$AAb?$AAu?$AAg?$AA?5?$AA?$CF?$AAs?$AA?$CB?$AA?6?$AA?6?$AAP?$AAr?$AAo?$AAg?$AAr?$AAa?$AAm?$AA?3?$AA?5?$AA?$CF?$AAh?$AAs?$AA?$CF?$AAs?$AA?$CF?$AAs?$AA?$CF?$AAh?$AAs?$AA?$CF?$AAs@ 00000001800d3130     LIBCMTD:dbgrpt.obj
 0002:0000b1f0       ??_C@_1BJK@FEBNHLFF@?$AA?$CI?$AA?$CI?$AAp?$AAt?$AAl?$AAo?$AAc?$AAi?$AA?9?$AA?$DO?$AAl?$AAc?$AA_?$AAc?$AAa?$AAt?$AAe?$AAg?$AAo?$AAr?$AAy?$AA?$FL?$AAc?$AAa?$AAt?$AAe?$AAg?$AAo?$AAr?$AAy?$AA?$FN?$AA?4@ 00000001800d31f0     LIBCMTD:localref.obj
 0002:0000b390       ??_C@_1FC@HINIIGNO@?$AAf?$AA?3?$AA?2?$AAd?$AAd?$AA?2?$AAv?$AAc?$AAt?$AAo?$AAo?$AAl?$AAs?$AA?2?$AAc?$AAr?$AAt?$AA?2?$AAc?$AAr?$AAt?$AAw?$AA3?$AA2?$AA?2?$AAm?$AAi?$AAs?$AAc?$AA?2?$AAl?$AAo@ 00000001800d3390     LIBCMTD:localref.obj
 0002:0000b408       ??_C@_1M@HPNHIDJI@?$AAj?$AAa?$AA?9?$AAJ?$AAP?$AA?$AA@ 00000001800d3408     LIBCMTD:mbctype.obj
 0002:0000b418       ??_C@_1M@BIBDDEMK@?$AAz?$AAh?$AA?9?$AAC?$AAN?$AA?$AA@ 00000001800d3418     LIBCMTD:mbctype.obj
 0002:0000b428       ??_C@_1M@JLOOOEGK@?$AAk?$AAo?$AA?9?$AAK?$AAR?$AA?$AA@ 00000001800d3428     LIBCMTD:mbctype.obj
 0002:0000b438       ??_C@_1M@CLNBBOPM@?$AAz?$AAh?$AA?9?$AAT?$AAW?$AA?$AA@ 00000001800d3438     LIBCMTD:mbctype.obj
 0002:0000b470       ??_C@_0CM@BEDCPGGG@f?3?2dd?2vctools?2crt?2crtw32?2mbstrin@ 00000001800d3470     LIBCMTD:mbctype.obj
 0002:0000b4a0       ??_C@_1FC@NCPEPIBI@?$AA?$CI?$AA?$CI?$AA_?$AAD?$AAs?$AAt?$AA?$CJ?$AA?$CJ?$AA?5?$AA?$CB?$AA?$DN?$AA?5?$AAN?$AAU?$AAL?$AAL?$AA?5?$AA?$CG?$AA?$CG?$AA?5?$AA?$CI?$AA?$CI?$AA_?$AAS?$AAi?$AAz?$AAe?$AAI?$AAn?$AAB?$AAy?$AAt@ 00000001800d34a0     LIBCMTD:strcpy_s.obj
 0002:0000b500       ??_C@_1FA@ILDLFIFE@?$AAf?$AA?3?$AA?2?$AAd?$AAd?$AA?2?$AAv?$AAc?$AAt?$AAo?$AAo?$AAl?$AAs?$AA?2?$AAc?$AAr?$AAt?$AA?2?$AAc?$AAr?$AAt?$AAw?$AA3?$AA2?$AA?2?$AAh?$AA?2?$AAt?$AAc?$AAs?$AAc?$AAp@ 00000001800d3500     LIBCMTD:strcpy_s.obj
 0002:0000b550       ??_C@_1BC@CFJEPFGF@?$AAs?$AAt?$AAr?$AAc?$AAp?$AAy?$AA_?$AAs?$AA?$AA@ 00000001800d3550     LIBCMTD:strcpy_s.obj
 0002:0000b568       ??_C@_1CG@OFBJMIGJ@?$AA?$CI?$AA?$CI?$AA?$CI?$AA_?$AAS?$AAr?$AAc?$AA?$CJ?$AA?$CJ?$AA?$CJ?$AA?5?$AA?$CB?$AA?$DN?$AA?5?$AAN?$AAU?$AAL?$AAL?$AA?$AA@ 00000001800d3568     LIBCMTD:strcpy_s.obj
 0002:0000b590       ??_C@_1CI@HCPHDDLE@?$AAB?$AAu?$AAf?$AAf?$AAe?$AAr?$AA?5?$AAi?$AAs?$AA?5?$AAt?$AAo?$AAo?$AA?5?$AAs?$AAm?$AAa?$AAl?$AAl?$AA?$AA@ 00000001800d3590     LIBCMTD:strcpy_s.obj
 0002:0000b5b8       ??_C@_1DM@MADKGDLO@?$AA?$CI?$AAL?$AA?$CC?$AAB?$AAu?$AAf?$AAf?$AAe?$AAr?$AA?5?$AAi?$AAs?$AA?5?$AAt?$AAo?$AAo?$AA?5?$AAs?$AAm?$AAa?$AAl?$AAl?$AA?$CC?$AA?5?$AA?$CG?$AA?$CG?$AA?5?$AA0?$AA?$CJ?$AA?$AA@ 00000001800d35b8     LIBCMTD:strcpy_s.obj
 0002:0000b600       ??_C@_1FI@JBLIKEIM@?$AAf?$AA?3?$AA?2?$AAd?$AAd?$AA?2?$AAv?$AAc?$AAt?$AAo?$AAo?$AAl?$AAs?$AA?2?$AAc?$AAr?$AAt?$AA?2?$AAc?$AAr?$AAt?$AAw?$AA3?$AA2?$AA?2?$AAc?$AAo?$AAn?$AAv?$AAe?$AAr?$AAt@ 00000001800d3600     LIBCMTD:_fptostr.obj
 0002:0000b658       ??_C@_1BC@OPALLEB@?$AA_?$AAf?$AAp?$AAt?$AAo?$AAs?$AAt?$AAr?$AA?$AA@ 00000001800d3658     LIBCMTD:_fptostr.obj
 0002:0000b670       ??_C@_1GM@CEDLGDDI@?$AAs?$AAi?$AAz?$AAe?$AAI?$AAn?$AAB?$AAy?$AAt?$AAe?$AAs?$AA?5?$AA?$DO?$AA?5?$AA?$CI?$AAs?$AAi?$AAz?$AAe?$AA_?$AAt?$AA?$CJ?$AA?$CI?$AA?$CI?$AAd?$AAi?$AAg?$AAi?$AAt?$AAs?$AA?5?$AA?$DO@ 00000001800d3670     LIBCMTD:_fptostr.obj
 0002:0000b6e0       ??_C@_1BK@CLIEHFDF@?$AAp?$AAf?$AAl?$AAt?$AA?5?$AA?$CB?$AA?$DN?$AA?5?$AAN?$AAU?$AAL?$AAL?$AA?$AA@ 00000001800d36e0     LIBCMTD:_fptostr.obj
 0002:0000b700       ??_C@_1EK@LJBJCHGA@?$AAf?$AA?3?$AA?2?$AAd?$AAd?$AA?2?$AAv?$AAc?$AAt?$AAo?$AAo?$AAl?$AAs?$AA?2?$AAc?$AAr?$AAt?$AA?2?$AAf?$AAp?$AAw?$AA3?$AA2?$AA?2?$AAc?$AAo?$AAn?$AAv?$AA?2?$AAc?$AAf?$AAo@ 00000001800d3700     LIBCMTD:cfout.obj
 0002:0000b750       ??_C@_1BC@BPMMEHLK@?$AA_?$AAf?$AAl?$AAt?$AAo?$AAu?$AAt?$AA2?$AA?$AA@ 00000001800d3750     LIBCMTD:cfout.obj
 0002:0000b770       ??_C@_1FK@KODCOBKF@?$AAs?$AAt?$AAr?$AAc?$AAp?$AAy?$AA_?$AAs?$AA?$CI?$AAr?$AAe?$AAs?$AAu?$AAl?$AAt?$AAs?$AAt?$AAr?$AA?0?$AA?5?$AAr?$AAe?$AAs?$AAu?$AAl?$AAt?$AAs?$AAi?$AAz?$AAe?$AA?0?$AA?5@ 00000001800d3770     LIBCMTD:cfout.obj
 0002:0000b7cc       ??_C@_03KOEHGMDN@Sun?$AA@  00000001800d37cc     LIBCMTD:nlsdata.obj
 0002:0000b7d0       ??_C@_03PDAGKDH@Mon?$AA@   00000001800d37d0     LIBCMTD:nlsdata.obj
 0002:0000b7d4       ??_C@_03NAGEINEP@Tue?$AA@  00000001800d37d4     LIBCMTD:nlsdata.obj
 0002:0000b7d8       ??_C@_03MHOMLAJA@Wed?$AA@  00000001800d37d8     LIBCMTD:nlsdata.obj
 0002:0000b7dc       ??_C@_03IOFIKPDN@Thu?$AA@  00000001800d37dc     LIBCMTD:nlsdata.obj
 0002:0000b7e0       ??_C@_03IDIOELNC@Fri?$AA@  00000001800d37e0     LIBCMTD:nlsdata.obj
 0002:0000b7e4       ??_C@_03FEFJNEK@Sat?$AA@   00000001800d37e4     LIBCMTD:nlsdata.obj
 0002:0000b7e8       ??_C@_06OOPIFAJ@Sunday?$AA@ 00000001800d37e8     LIBCMTD:nlsdata.obj
 0002:0000b7f0       ??_C@_06JLEDEDGH@Monday?$AA@ 00000001800d37f0     LIBCMTD:nlsdata.obj
 0002:0000b7f8       ??_C@_07BAAGCFCM@Tuesday?$AA@ 00000001800d37f8     LIBCMTD:nlsdata.obj
 0002:0000b800       ??_C@_09DLIGFAKA@Wednesday?$AA@ 00000001800d3800     LIBCMTD:nlsdata.obj
 0002:0000b810       ??_C@_08HACCIKIA@Thursday?$AA@ 00000001800d3810     LIBCMTD:nlsdata.obj
 0002:0000b81c       ??_C@_06JECMNKMI@Friday?$AA@ 00000001800d381c     LIBCMTD:nlsdata.obj
 0002:0000b828       ??_C@_08INBOOONO@Saturday?$AA@ 00000001800d3828     LIBCMTD:nlsdata.obj
 0002:0000b834       ??_C@_03JIHJHPIE@Jan?$AA@  00000001800d3834     LIBCMTD:nlsdata.obj
 0002:0000b838       ??_C@_03HJBDCHOM@Feb?$AA@  00000001800d3838     LIBCMTD:nlsdata.obj
 0002:0000b83c       ??_C@_03ODNJBKGA@Mar?$AA@  00000001800d383c     LIBCMTD:nlsdata.obj
 0002:0000b840       ??_C@_03LEOLGMJP@Apr?$AA@  00000001800d3840     LIBCMTD:nlsdata.obj
 0002:0000b844       ??_C@_03CNMDKL@May?$AA@    00000001800d3844     LIBCMTD:nlsdata.obj
 0002:0000b848       ??_C@_03IDFGHECI@Jun?$AA@  00000001800d3848     LIBCMTD:nlsdata.obj
 0002:0000b84c       ??_C@_03LBGABGKK@Jul?$AA@  00000001800d384c     LIBCMTD:nlsdata.obj
 0002:0000b850       ??_C@_03IFJFEIGA@Aug?$AA@  00000001800d3850     LIBCMTD:nlsdata.obj
 0002:0000b854       ??_C@_03GGCAPAJC@Sep?$AA@  00000001800d3854     LIBCMTD:nlsdata.obj
 0002:0000b858       ??_C@_03BMAOKBAD@Oct?$AA@  00000001800d3858     LIBCMTD:nlsdata.obj
 0002:0000b85c       ??_C@_03JPJOFNIA@Nov?$AA@  00000001800d385c     LIBCMTD:nlsdata.obj
 0002:0000b860       ??_C@_03MKABNOCG@Dec?$AA@  00000001800d3860     LIBCMTD:nlsdata.obj
 0002:0000b868       ??_C@_07CGJPFGJA@January?$AA@ 00000001800d3868     LIBCMTD:nlsdata.obj
 0002:0000b870       ??_C@_08GNJGEPFN@February?$AA@ 00000001800d3870     LIBCMTD:nlsdata.obj
 0002:0000b87c       ??_C@_05HPCKOFNC@March?$AA@ 00000001800d387c     LIBCMTD:nlsdata.obj
 0002:0000b884       ??_C@_05DMJDNLEJ@April?$AA@ 00000001800d3884     LIBCMTD:nlsdata.obj
 0002:0000b88c       ??_C@_04CNLMGBGM@June?$AA@ 00000001800d388c     LIBCMTD:nlsdata.obj
 0002:0000b894       ??_C@_04MIEPOIFP@July?$AA@ 00000001800d3894     LIBCMTD:nlsdata.obj
 0002:0000b89c       ??_C@_06LBBHFDDG@August?$AA@ 00000001800d389c     LIBCMTD:nlsdata.obj
 0002:0000b8a8       ??_C@_09BHHEALKD@September?$AA@ 00000001800d38a8     LIBCMTD:nlsdata.obj
 0002:0000b8b8       ??_C@_07JJNFCEND@October?$AA@ 00000001800d38b8     LIBCMTD:nlsdata.obj
 0002:0000b8c0       ??_C@_08HCHEGEOA@November?$AA@ 00000001800d38c0     LIBCMTD:nlsdata.obj
 0002:0000b8d0       ??_C@_08EDHMEBNP@December?$AA@ 00000001800d38d0     LIBCMTD:nlsdata.obj
 0002:0000b8dc       ??_C@_02DEDBPAFC@AM?$AA@   00000001800d38dc     LIBCMTD:nlsdata.obj
 0002:0000b8e0       ??_C@_02CJNFDJBF@PM?$AA@   00000001800d38e0     LIBCMTD:nlsdata.obj
 0002:0000b8e8       ??_C@_08BPBNCDIB@MM?1dd?1yy?$AA@ 00000001800d38e8     LIBCMTD:nlsdata.obj
 0002:0000b8f8       ??_C@_0BE@CKGJFCPC@dddd?0?5MMMM?5dd?0?5yyyy?$AA@ 00000001800d38f8     LIBCMTD:nlsdata.obj
 0002:0000b910       ??_C@_08JCCMCCIL@HH?3mm?3ss?$AA@ 00000001800d3910     LIBCMTD:nlsdata.obj
 0002:0000b920       ??_C@_17MBGCMIPB@?$AAS?$AAu?$AAn?$AA?$AA@ 00000001800d3920     LIBCMTD:nlsdata.obj
 0002:0000b928       ??_C@_17KBOMKBF@?$AAM?$AAo?$AAn?$AA?$AA@ 00000001800d3928     LIBCMTD:nlsdata.obj
 0002:0000b930       ??_C@_17BMKGEGOJ@?$AAT?$AAu?$AAe?$AA?$AA@ 00000001800d3930     LIBCMTD:nlsdata.obj
 0002:0000b938       ??_C@_17CJEDCEPE@?$AAW?$AAe?$AAd?$AA?$AA@ 00000001800d3938     LIBCMTD:nlsdata.obj
 0002:0000b940       ??_C@_17PDPHAADD@?$AAT?$AAh?$AAu?$AA?$AA@ 00000001800d3940     LIBCMTD:nlsdata.obj
 0002:0000b948       ??_C@_17HFOLPPLP@?$AAF?$AAr?$AAi?$AA?$AA@ 00000001800d3948     LIBCMTD:nlsdata.obj
 0002:0000b950       ??_C@_17GGIBDPIH@?$AAS?$AAa?$AAt?$AA?$AA@ 00000001800d3950     LIBCMTD:nlsdata.obj
 0002:0000b958       ??_C@_1O@IHNHDHPB@?$AAS?$AAu?$AAn?$AAd?$AAa?$AAy?$AA?$AA@ 00000001800d3958     LIBCMTD:nlsdata.obj
 0002:0000b968       ??_C@_1O@MMNBFLIA@?$AAM?$AAo?$AAn?$AAd?$AAa?$AAy?$AA?$AA@ 00000001800d3968     LIBCMTD:nlsdata.obj
 0002:0000b978       ??_C@_1BA@ENFBFFEK@?$AAT?$AAu?$AAe?$AAs?$AAd?$AAa?$AAy?$AA?$AA@ 00000001800d3978     LIBCMTD:nlsdata.obj
 0002:0000b988       ??_C@_1BE@EBOGMDOH@?$AAW?$AAe?$AAd?$AAn?$AAe?$AAs?$AAd?$AAa?$AAy?$AA?$AA@ 00000001800d3988     LIBCMTD:nlsdata.obj
 0002:0000b9a0       ??_C@_1BC@HHMNLIHE@?$AAT?$AAh?$AAu?$AAr?$AAs?$AAd?$AAa?$AAy?$AA?$AA@ 00000001800d39a0     LIBCMTD:nlsdata.obj
 0002:0000b9b8       ??_C@_1O@PDICJHAG@?$AAF?$AAr?$AAi?$AAd?$AAa?$AAy?$AA?$AA@ 00000001800d39b8     LIBCMTD:nlsdata.obj
 0002:0000b9c8       ??_C@_1BC@ENMNNPAJ@?$AAS?$AAa?$AAt?$AAu?$AAr?$AAd?$AAa?$AAy?$AA?$AA@ 00000001800d39c8     LIBCMTD:nlsdata.obj
 0002:0000b9e0       ??_C@_17DKNBKCHM@?$AAJ?$AAa?$AAn?$AA?$AA@ 00000001800d39e0     LIBCMTD:nlsdata.obj
 0002:0000b9e8       ??_C@_17LMDJEKJN@?$AAF?$AAe?$AAb?$AA?$AA@ 00000001800d39e8     LIBCMTD:nlsdata.obj
 0002:0000b9f0       ??_C@_17CKNLEDEC@?$AAM?$AAa?$AAr?$AA?$AA@ 00000001800d39f0     LIBCMTD:nlsdata.obj
 0002:0000b9f8       ??_C@_17LFPOIHDD@?$AAA?$AAp?$AAr?$AA?$AA@ 00000001800d39f8     LIBCMTD:nlsdata.obj
 0002:0000ba00       ??_C@_17PNNKMEED@?$AAM?$AAa?$AAy?$AA?$AA@ 00000001800d3a00     LIBCMTD:nlsdata.obj
 0002:0000ba08       ??_C@_17KCJGOCPB@?$AAJ?$AAu?$AAn?$AA?$AA@ 00000001800d3a08     LIBCMTD:nlsdata.obj
 0002:0000ba10       ??_C@_17IJPCKHK@?$AAJ?$AAu?$AAl?$AA?$AA@ 00000001800d3a10     LIBCMTD:nlsdata.obj
 0002:0000ba18       ??_C@_17ICPELBCN@?$AAA?$AAu?$AAg?$AA?$AA@ 00000001800d3a18     LIBCMTD:nlsdata.obj
 0002:0000ba20       ??_C@_17HCHCOKMG@?$AAS?$AAe?$AAp?$AA?$AA@ 00000001800d3a20     LIBCMTD:nlsdata.obj
 0002:0000ba28       ??_C@_17FNLKOI@?$AAO?$AAc?$AAt?$AA?$AA@ 00000001800d3a28     LIBCMTD:nlsdata.obj
 0002:0000ba30       ??_C@_17BBDMLCIG@?$AAN?$AAo?$AAv?$AA?$AA@ 00000001800d3a30     LIBCMTD:nlsdata.obj
 0002:0000ba38       ??_C@_17EGKACKIF@?$AAD?$AAe?$AAc?$AA?$AA@ 00000001800d3a38     LIBCMTD:nlsdata.obj
 0002:0000ba40       ??_C@_1BA@EFMEIEBA@?$AAJ?$AAa?$AAn?$AAu?$AAa?$AAr?$AAy?$AA?$AA@ 00000001800d3a40     LIBCMTD:nlsdata.obj
 0002:0000ba50       ??_C@_1BC@JGDDFFAM@?$AAF?$AAe?$AAb?$AAr?$AAu?$AAa?$AAr?$AAy?$AA?$AA@ 00000001800d3a50     LIBCMTD:nlsdata.obj
 0002:0000ba68       ??_C@_1M@IKEENEDF@?$AAM?$AAa?$AAr?$AAc?$AAh?$AA?$AA@ 00000001800d3a68     LIBCMTD:nlsdata.obj
 0002:0000ba78       ??_C@_1M@GJNLMHFD@?$AAA?$AAp?$AAr?$AAi?$AAl?$AA?$AA@ 00000001800d3a78     LIBCMTD:nlsdata.obj
 0002:0000ba88       ??_C@_19EPFLPGAP@?$AAJ?$AAu?$AAn?$AAe?$AA?$AA@ 00000001800d3a88     LIBCMTD:nlsdata.obj
 0002:0000ba98       ??_C@_19BIFMLPCD@?$AAJ?$AAu?$AAl?$AAy?$AA?$AA@ 00000001800d3a98     LIBCMTD:nlsdata.obj
 0002:0000baa8       ??_C@_1O@PAHLKOAC@?$AAA?$AAu?$AAg?$AAu?$AAs?$AAt?$AA?$AA@ 00000001800d3aa8     LIBCMTD:nlsdata.obj
 0002:0000bab8       ??_C@_1BE@DKAAMBJL@?$AAS?$AAe?$AAp?$AAt?$AAe?$AAm?$AAb?$AAe?$AAr?$AA?$AA@ 00000001800d3ab8     LIBCMTD:nlsdata.obj
 0002:0000bad0       ??_C@_1BA@EPANDLNG@?$AAO?$AAc?$AAt?$AAo?$AAb?$AAe?$AAr?$AA?$AA@ 00000001800d3ad0     LIBCMTD:nlsdata.obj
 0002:0000bae0       ??_C@_1BC@BGLIFPF@?$AAN?$AAo?$AAv?$AAe?$AAm?$AAb?$AAe?$AAr?$AA?$AA@ 00000001800d3ae0     LIBCMTD:nlsdata.obj
 0002:0000baf8       ??_C@_1BC@FEMKIFH@?$AAD?$AAe?$AAc?$AAe?$AAm?$AAb?$AAe?$AAr?$AA?$AA@ 00000001800d3af8     LIBCMTD:nlsdata.obj
 0002:0000bb0c       ??_C@_15ODEHAHHF@?$AAA?$AAM?$AA?$AA@ 00000001800d3b0c     LIBCMTD:nlsdata.obj
 0002:0000bb14       ??_C@_15CLMNNGEL@?$AAP?$AAM?$AA?$AA@ 00000001800d3b14     LIBCMTD:nlsdata.obj
 0002:0000bb20       ??_C@_1BC@IEBCMHCM@?$AAM?$AAM?$AA?1?$AAd?$AAd?$AA?1?$AAy?$AAy?$AA?$AA@ 00000001800d3b20     LIBCMTD:nlsdata.obj
 0002:0000bb38       ??_C@_1CI@KNAKOEBC@?$AAd?$AAd?$AAd?$AAd?$AA?0?$AA?5?$AAM?$AAM?$AAM?$AAM?$AA?5?$AAd?$AAd?$AA?0?$AA?5?$AAy?$AAy?$AAy?$AAy?$AA?$AA@ 00000001800d3b38     LIBCMTD:nlsdata.obj
 0002:0000bb60       ??_C@_1BC@GDGBMEMK@?$AAH?$AAH?$AA?3?$AAm?$AAm?$AA?3?$AAs?$AAs?$AA?$AA@ 00000001800d3b60     LIBCMTD:nlsdata.obj
 0002:0000bb78       ??_C@_1M@BMHNFIME@?$AAe?$AAn?$AA?9?$AAU?$AAS?$AA?$AA@ 00000001800d3b78     LIBCMTD:nlsdata.obj
 0002:0000bb90       ??_C@_1EM@EGEEBJLG@?$AA?$CI?$AAo?$AAp?$AAt?$AAi?$AAo?$AAn?$AAs?$AA?5?$AA?$CG?$AA?5?$AA?$HO?$AA_?$AAT?$AAW?$AAO?$AA_?$AAD?$AAI?$AAG?$AAI?$AAT?$AA_?$AAE?$AAX?$AAP?$AAO?$AAN?$AAE?$AAN?$AAT?$AA?$CJ@ 00000001800d3b90     LIBCMTD:outputformat.obj
 0002:0000bbe0       ??_C@_1FM@FBHCILLE@?$AAf?$AA?3?$AA?2?$AAd?$AAd?$AA?2?$AAv?$AAc?$AAt?$AAo?$AAo?$AAl?$AAs?$AA?2?$AAc?$AAr?$AAt?$AA?2?$AAc?$AAr?$AAt?$AAw?$AA3?$AA2?$AA?2?$AAs?$AAt?$AAd?$AAi?$AAo?$AA?2?$AAo@ 00000001800d3be0     LIBCMTD:outputformat.obj
 0002:0000bc40       ??_C@_1CG@EBJECAJM@?$AA_?$AAs?$AAe?$AAt?$AA_?$AAo?$AAu?$AAt?$AAp?$AAu?$AAt?$AA_?$AAf?$AAo?$AAr?$AAm?$AAa?$AAt?$AA?$AA@ 00000001800d3c40     LIBCMTD:outputformat.obj
 0002:0000bc70       ??_7exception@std@@6B@     00000001800d3c70     LIBCMTD:stdexcpt.obj
 0002:0000bc80       ??_C@_0BC@EOODALEL@Unknown?5exception?$AA@ 00000001800d3c80     LIBCMTD:stdexcpt.obj
 0002:0000bca0       ??_7bad_cast@std@@6B@      00000001800d3ca0     LIBCMTD:stdexcpt.obj
 0002:0000bcb8       ??_7bad_typeid@std@@6B@    00000001800d3cb8     LIBCMTD:stdexcpt.obj
 0002:0000bcd0       ??_7__non_rtti_object@std@@6B@ 00000001800d3cd0     LIBCMTD:stdexcpt.obj
 0002:0000bce0       ??_C@_1BC@JLLICHIC@?$AAp?$AAn?$AAh?$AA?5?$AA?$DN?$AA?$DN?$AA?5?$AA0?$AA?$AA@ 00000001800d3ce0     LIBCMTD:handler.obj
 0002:0000bd00       ??_C@_1FE@HELBPGKC@?$AAf?$AA?3?$AA?2?$AAd?$AAd?$AA?2?$AAv?$AAc?$AAt?$AAo?$AAo?$AAl?$AAs?$AA?2?$AAc?$AAr?$AAt?$AA?2?$AAc?$AAr?$AAt?$AAw?$AA3?$AA2?$AA?2?$AAh?$AAe?$AAa?$AAp?$AA?2?$AAh?$AAa@ 00000001800d3d00     LIBCMTD:handler.obj
 0002:0000c0c8       ??_C@_08EHJDFFNH@__based?$CI?$AA@ 00000001800d40c8     LIBCMTD:undname.obj
 0002:0000c0d8       ??_C@_07KOLFKCDI@__cdecl?$AA@ 00000001800d40d8     LIBCMTD:undname.obj
 0002:0000c0e0       ??_C@_08GHMPAG@__pascal?$AA@ 00000001800d40e0     LIBCMTD:undname.obj
 0002:0000c0f0       ??_C@_09IFJBGAPI@__stdcall?$AA@ 00000001800d40f0     LIBCMTD:undname.obj
 0002:0000c100       ??_C@_0L@NPHFGOKO@__thiscall?$AA@ 00000001800d4100     LIBCMTD:undname.obj
 0002:0000c110       ??_C@_0L@JMKHOMEK@__fastcall?$AA@ 00000001800d4110     LIBCMTD:undname.obj
 0002:0000c120       ??_C@_0N@BCKKPABJ@__vectorcall?$AA@ 00000001800d4120     LIBCMTD:undname.obj
 0002:0000c130       ??_C@_09HIJEGCPM@__clrcall?$AA@ 00000001800d4130     LIBCMTD:undname.obj
 0002:0000c13c       ??_C@_06GHPCKEAG@__eabi?$AA@ 00000001800d413c     LIBCMTD:undname.obj
 0002:0000c148       ??_C@_07JOMMBBKO@__ptr64?$AA@ 00000001800d4148     LIBCMTD:undname.obj
 0002:0000c150       ??_C@_0L@PILCLIHE@__restrict?$AA@ 00000001800d4150     LIBCMTD:undname.obj
 0002:0000c160       ??_C@_0M@GFIIJFMG@__unaligned?$AA@ 00000001800d4160     LIBCMTD:undname.obj
 0002:0000c170       ??_C@_09DHDLOLLB@restrict?$CI?$AA@ 00000001800d4170     LIBCMTD:undname.obj
 0002:0000c17c       ??_C@_04NIHEBCM@?5new?$AA@ 00000001800d417c     LIBCMTD:undname.obj
 0002:0000c188       ??_C@_07FPCDHGMM@?5delete?$AA@ 00000001800d4188     LIBCMTD:undname.obj
 0002:0000c190       ??_C@_01NEMOKFLO@?$DN?$AA@ 00000001800d4190     LIBCMTD:undname.obj
 0002:0000c194       ??_C@_02GPIOPFAK@?$DO?$DO?$AA@ 00000001800d4194     LIBCMTD:undname.obj
 0002:0000c198       ??_C@_02FODMEDOG@?$DM?$DM?$AA@ 00000001800d4198     LIBCMTD:undname.obj
 0002:0000c19c       ??_C@_01DCLJPIOD@?$CB?$AA@ 00000001800d419c     LIBCMTD:undname.obj
 0002:0000c1a0       ??_C@_02EGOFBIJA@?$DN?$DN?$AA@ 00000001800d41a0     LIBCMTD:undname.obj
 0002:0000c1a4       ??_C@_02FDNJECIE@?$CB?$DN?$AA@ 00000001800d41a4     LIBCMTD:undname.obj
 0002:0000c1a8       ??_C@_02GPECMEKF@?$FL?$FN?$AA@ 00000001800d41a8     LIBCMTD:undname.obj
 0002:0000c1b0       ??_C@_08LHJFAFGD@operator?$AA@ 00000001800d41b0     LIBCMTD:undname.obj
 0002:0000c1bc       ??_C@_02HBOOOICD@?9?$DO?$AA@ 00000001800d41bc     LIBCMTD:undname.obj
 0002:0000c1c0       ??_C@_01NBENCBCI@?$CK?$AA@ 00000001800d41c0     LIBCMTD:undname.obj
 0002:0000c1c4       ??_C@_02ECNGHCIF@?$CL?$CL?$AA@ 00000001800d41c4     LIBCMTD:undname.obj
 0002:0000c1c8       ??_C@_02BAABKJLB@?9?9?$AA@ 00000001800d41c8     LIBCMTD:undname.obj
 0002:0000c1cc       ??_C@_01JOAMLHOP@?9?$AA@   00000001800d41cc     LIBCMTD:undname.obj
 0002:0000c1d0       ??_C@_01MIFGBAGJ@?$CL?$AA@ 00000001800d41d0     LIBCMTD:undname.obj
 0002:0000c1d4       ??_C@_01HNPIGOCE@?$CG?$AA@ 00000001800d41d4     LIBCMTD:undname.obj
 0002:0000c1d8       ??_C@_03MNHNFDLC@?9?$DO?$CK?$AA@ 00000001800d41d8     LIBCMTD:undname.obj
 0002:0000c1dc       ??_C@_01KMDKNFGN@?1?$AA@   00000001800d41dc     LIBCMTD:undname.obj
 0002:0000c1e0       ??_C@_01FGNFDNOH@?$CF?$AA@ 00000001800d41e0     LIBCMTD:undname.obj
 0002:0000c1e4       ??_C@_01MNNFJEPP@?$DM?$AA@ 00000001800d41e4     LIBCMTD:undname.obj
 0002:0000c1e8       ??_C@_02EHCHHCKH@?$DM?$DN?$AA@ 00000001800d41e8     LIBCMTD:undname.obj
 0002:0000c1ec       ??_C@_01PPODPGHN@?$DO?$AA@ 00000001800d41ec     LIBCMTD:undname.obj
 0002:0000c1f0       ??_C@_02EEKDKGMJ@?$DO?$DN?$AA@ 00000001800d41f0     LIBCMTD:undname.obj
 0002:0000c1f4       ??_C@_01IHBHIGKO@?0?$AA@   00000001800d41f4     LIBCMTD:undname.obj
 0002:0000c1f8       ??_C@_02HCKGKOFO@?$CI?$CJ?$AA@ 00000001800d41f8     LIBCMTD:undname.obj
 0002:0000c1fc       ??_C@_01PJKLJHI@?$HO?$AA@  00000001800d41fc     LIBCMTD:undname.obj
 0002:0000c200       ??_C@_01JKBOJNNK@?$FO?$AA@ 00000001800d4200     LIBCMTD:undname.obj
 0002:0000c204       ??_C@_01DNKMNLPK@?$HM?$AA@ 00000001800d4204     LIBCMTD:undname.obj
 0002:0000c208       ??_C@_02PPKAJPJL@?$CG?$CG?$AA@ 00000001800d4208     LIBCMTD:undname.obj
 0002:0000c20c       ??_C@_02NONPIBCD@?$HM?$HM?$AA@ 00000001800d420c     LIBCMTD:undname.obj
 0002:0000c210       ??_C@_02FPIMKNGF@?$CK?$DN?$AA@ 00000001800d4210     LIBCMTD:undname.obj
 0002:0000c214       ??_C@_02FOEOMHFC@?$CL?$DN?$AA@ 00000001800d4214     LIBCMTD:undname.obj
 0002:0000c218       ??_C@_02FKMDLLOA@?9?$DN?$AA@ 00000001800d4218     LIBCMTD:undname.obj
 0002:0000c21c       ??_C@_02FJEHGPIO@?1?$DN?$AA@ 00000001800d421c     LIBCMTD:undname.obj
 0002:0000c220       ??_C@_02FENAOKFI@?$CF?$DN?$AA@ 00000001800d4220     LIBCMTD:undname.obj
 0002:0000c224       ??_C@_03IKFCCPFF@?$DO?$DO?$DN?$AA@ 00000001800d4224     LIBCMTD:undname.obj
 0002:0000c228       ??_C@_03CDNPDDLA@?$DM?$DM?$DN?$AA@ 00000001800d4228     LIBCMTD:undname.obj
 0002:0000c22c       ??_C@_02FGJGFEAB@?$CG?$DN?$AA@ 00000001800d422c     LIBCMTD:undname.obj
 0002:0000c230       ??_C@_02DHLNPPGH@?$HM?$DN?$AA@ 00000001800d4230     LIBCMTD:undname.obj
 0002:0000c234       ??_C@_02MHEGNOJ@?$FO?$DN?$AA@ 00000001800d4234     LIBCMTD:undname.obj
 0002:0000c238       ??_C@_09IFPLHPGF@?$GAvftable?8?$AA@ 00000001800d4238     LIBCMTD:undname.obj
 0002:0000c248       ??_C@_09BLBHBJP@?$GAvbtable?8?$AA@ 00000001800d4248     LIBCMTD:undname.obj
 0002:0000c258       ??_C@_07FEEIOKP@?$GAvcall?8?$AA@ 00000001800d4258     LIBCMTD:undname.obj
 0002:0000c260       ??_C@_08LLFFHHDJ@?$GAtypeof?8?$AA@ 00000001800d4260     LIBCMTD:undname.obj
 0002:0000c270       ??_C@_0BF@KDPPACIK@?$GAlocal?5static?5guard?8?$AA@ 00000001800d4270     LIBCMTD:undname.obj
 0002:0000c288       ??_C@_08OBABFOLI@?$GAstring?8?$AA@ 00000001800d4288     LIBCMTD:undname.obj
 0002:0000c298       ??_C@_0BD@JDLKDPAB@?$GAvbase?5destructor?8?$AA@ 00000001800d4298     LIBCMTD:undname.obj
 0002:0000c2b0       ??_C@_0BN@DEGPLNFK@?$GAvector?5deleting?5destructor?8?$AA@ 00000001800d42b0     LIBCMTD:undname.obj
 0002:0000c2d0       ??_C@_0BO@OBMKPJIG@?$GAdefault?5constructor?5closure?8?$AA@ 00000001800d42d0     LIBCMTD:undname.obj
 0002:0000c2f0       ??_C@_0BN@IMDCHIKM@?$GAscalar?5deleting?5destructor?8?$AA@ 00000001800d42f0     LIBCMTD:undname.obj
 0002:0000c310       ??_C@_0BO@PFGOCPJJ@?$GAvector?5constructor?5iterator?8?$AA@ 00000001800d4310     LIBCMTD:undname.obj
 0002:0000c330       ??_C@_0BN@LFPFMEDL@?$GAvector?5destructor?5iterator?8?$AA@ 00000001800d4330     LIBCMTD:undname.obj
 0002:0000c350       ??_C@_0CE@IKBNEHA@?$GAvector?5vbase?5constructor?5iterat@ 00000001800d4350     LIBCMTD:undname.obj
 0002:0000c378       ??_C@_0BL@NILFHHPC@?$GAvirtual?5displacement?5map?8?$AA@ 00000001800d4378     LIBCMTD:undname.obj
 0002:0000c398       ??_C@_0CB@JONCMFFK@?$GAeh?5vector?5constructor?5iterator?8@ 00000001800d4398     LIBCMTD:undname.obj
 0002:0000c3c0       ??_C@_0CA@GCEOPDGL@?$GAeh?5vector?5destructor?5iterator?8?$AA@ 00000001800d43c0     LIBCMTD:undname.obj
 0002:0000c3e0       ??_C@_0CH@OOJPLCPH@?$GAeh?5vector?5vbase?5constructor?5ite@ 00000001800d43e0     LIBCMTD:undname.obj
 0002:0000c408       ??_C@_0BL@LLKPOHJI@?$GAcopy?5constructor?5closure?8?$AA@ 00000001800d4408     LIBCMTD:undname.obj
 0002:0000c428       ??_C@_0BA@KBCDOMBN@?$GAudt?5returning?8?$AA@ 00000001800d4428     LIBCMTD:undname.obj
 0002:0000c438       ??_C@_03KLGMFNMG@?$GAEH?$AA@ 00000001800d4438     LIBCMTD:undname.obj
 0002:0000c43c       ??_C@_05KHLCHHI@?$GARTTI?$AA@ 00000001800d443c     LIBCMTD:undname.obj
 0002:0000c448       ??_C@_0BA@KKLDJDLB@?$GAlocal?5vftable?8?$AA@ 00000001800d4448     LIBCMTD:undname.obj
 0002:0000c458       ??_C@_0CE@IIHCMGGL@?$GAlocal?5vftable?5constructor?5closu@ 00000001800d4458     LIBCMTD:undname.obj
 0002:0000c47c       ??_C@_06FHBGPFGH@?5new?$FL?$FN?$AA@ 00000001800d447c     LIBCMTD:undname.obj
 0002:0000c488       ??_C@_09LBNFPBCA@?5delete?$FL?$FN?$AA@ 00000001800d4488     LIBCMTD:undname.obj
 0002:0000c498       ??_C@_0P@HJKNJFNN@?$GAomni?5callsig?8?$AA@ 00000001800d4498     LIBCMTD:undname.obj
 0002:0000c4a8       ??_C@_0BL@CNOONJFP@?$GAplacement?5delete?5closure?8?$AA@ 00000001800d44a8     LIBCMTD:undname.obj
 0002:0000c4c8       ??_C@_0BN@CKNJLHMB@?$GAplacement?5delete?$FL?$FN?5closure?8?$AA@ 00000001800d44c8     LIBCMTD:undname.obj
 0002:0000c4e8       ??_C@_0CG@CFDHKGGD@?$GAmanaged?5vector?5constructor?5iter@ 00000001800d44e8     LIBCMTD:undname.obj
 0002:0000c510       ??_C@_0CF@IMGKMJNO@?$GAmanaged?5vector?5destructor?5itera@ 00000001800d4510     LIBCMTD:undname.obj
 0002:0000c538       ??_C@_0CG@HLDDJMAG@?$GAeh?5vector?5copy?5constructor?5iter@ 00000001800d4538     LIBCMTD:undname.obj
 0002:0000c560       ??_C@_0CM@FCBBDIGB@?$GAeh?5vector?5vbase?5copy?5constructo@ 00000001800d4560     LIBCMTD:undname.obj
 0002:0000c590       ??_C@_0BL@CLIPGLGB@?$GAdynamic?5initializer?5for?5?8?$AA@ 00000001800d4590     LIBCMTD:undname.obj
 0002:0000c5b0       ??_C@_0CB@PDBIFEP@?$GAdynamic?5atexit?5destructor?5for?5?8@ 00000001800d45b0     LIBCMTD:undname.obj
 0002:0000c5d8       ??_C@_0CD@CGAJBKEJ@?$GAvector?5copy?5constructor?5iterato@ 00000001800d45d8     LIBCMTD:undname.obj
 0002:0000c600       ??_C@_0CJ@GJELGAMM@?$GAvector?5vbase?5copy?5constructor?5i@ 00000001800d4600     LIBCMTD:undname.obj
 0002:0000c630       ??_C@_0CL@FGIJHLCE@?$GAmanaged?5vector?5copy?5constructor@ 00000001800d4630     LIBCMTD:undname.obj
 0002:0000c660       ??_C@_0BM@PMGGMLDN@?$GAlocal?5static?5thread?5guard?8?$AA@ 00000001800d4660     LIBCMTD:undname.obj
 0002:0000c680       ??_C@_0BC@DAFEJGAK@?5Type?5Descriptor?8?$AA@ 00000001800d4680     LIBCMTD:undname.obj
 0002:0000c698       ??_C@_0BM@LDKODKLH@?5Base?5Class?5Descriptor?5at?5?$CI?$AA@ 00000001800d4698     LIBCMTD:undname.obj
 0002:0000c6b8       ??_C@_0BD@LGICGFMM@?5Base?5Class?5Array?8?$AA@ 00000001800d46b8     LIBCMTD:undname.obj
 0002:0000c6d0       ??_C@_0BN@MECKDCOJ@?5Class?5Hierarchy?5Descriptor?8?$AA@ 00000001800d46d0     LIBCMTD:undname.obj
 0002:0000c6f0       ??_C@_0BK@CFCOFLF@?5Complete?5Object?5Locator?8?$AA@ 00000001800d46f0     LIBCMTD:undname.obj
 0002:0000c738       ??_C@_04HEJADOOB@CV?3?5?$AA@ 00000001800d4738     LIBCMTD:undname.obj
 0002:0000c740       ??_C@_02MOLJINC@?3?3?$AA@  00000001800d4740     LIBCMTD:undname.obj
 0002:0000c748       ??_C@_0BE@JAEOCHPE@template?9parameter?9?$AA@ 00000001800d4748     LIBCMTD:undname.obj
 0002:0000c760       ??_C@_0O@KHGCOMHP@generic?9type?9?$AA@ 00000001800d4760     LIBCMTD:undname.obj
 0002:0000c770       ??_C@_01NLNLIGKH@?$GA?$AA@ 00000001800d4770     LIBCMTD:undname.obj
 0002:0000c774       ??_C@_01GEODFPGF@?8?$AA@   00000001800d4774     LIBCMTD:undname.obj
 0002:0000c778       ??_C@_0BG@JNJLAMPM@?$GAanonymous?5namespace?8?$AA@ 00000001800d4778     LIBCMTD:undname.obj
 0002:0000c790       ??_C@_02OHHJMEON@?8?8?$AA@ 00000001800d4790     LIBCMTD:undname.obj
 0002:0000c798       ??_C@_0BN@IBLMMFAP@?$GAnon?9type?9template?9parameter?$AA@ 00000001800d4798     LIBCMTD:undname.obj
 0002:0000c7b8       ??_C@_04GKJNKENE@void?$AA@ 00000001800d47b8     LIBCMTD:undname.obj
 0002:0000c7c0       ??_C@_0BE@EODMJLIF@?$GAtemplate?9parameter?$AA@ 00000001800d47c0     LIBCMTD:undname.obj
 0002:0000c7d4       ??_C@_04HIBGFPH@NULL?$AA@  00000001800d47d4     LIBCMTD:undname.obj
 0002:0000c7dc       ??_C@_03OPGICMGF@?$HN?8?5?$AA@ 00000001800d47dc     LIBCMTD:undname.obj
 0002:0000c7e0       ??_C@_02IGFCGPIL@?$HN?8?$AA@ 00000001800d47e0     LIBCMTD:undname.obj
 0002:0000c7e4       ??_C@_01CLKCMJKC@?5?$AA@   00000001800d47e4     LIBCMTD:undname.obj
 0002:0000c7e8       ??_C@_0N@CBHHHENL@?$GAvtordispex?$HL?$AA@ 00000001800d47e8     LIBCMTD:undname.obj
 0002:0000c7f8       ??_C@_0L@GHPFDFH@?$GAvtordisp?$HL?$AA@ 00000001800d47f8     LIBCMTD:undname.obj
 0002:0000c808       ??_C@_0L@HNGCOGAE@?$GAadjustor?$HL?$AA@ 00000001800d4808     LIBCMTD:undname.obj
 0002:0000c818       ??_C@_0CB@KJDOOODE@?$GAlocal?5static?5destructor?5helper?8@ 00000001800d4818     LIBCMTD:undname.obj
 0002:0000c840       ??_C@_0DB@ILEFOCIJ@?$GAtemplate?5static?5data?5member?5con@ 00000001800d4840     LIBCMTD:undname.obj
 0002:0000c878       ??_C@_0DA@HGFJFBBE@?$GAtemplate?5static?5data?5member?5des@ 00000001800d4878     LIBCMTD:undname.obj
 0002:0000c8a8       ??_C@_07PGOEDBHP@static?5?$AA@ 00000001800d48a8     LIBCMTD:undname.obj
 0002:0000c8b0       ??_C@_08NIEOINHE@virtual?5?$AA@ 00000001800d48b0     LIBCMTD:undname.obj
 0002:0000c8c0       ??_C@_09LAPHOOG@private?3?5?$AA@ 00000001800d48c0     LIBCMTD:undname.obj
 0002:0000c8d0       ??_C@_0M@GAIFPFIP@protected?3?5?$AA@ 00000001800d48d0     LIBCMTD:undname.obj
 0002:0000c8e0       ??_C@_08GPDDCMKI@public?3?5?$AA@ 00000001800d48e0     LIBCMTD:undname.obj
 0002:0000c8f0       ??_C@_08KJLFOPNE@?$FLthunk?$FN?3?$AA@ 00000001800d48f0     LIBCMTD:undname.obj
 0002:0000c900       ??_C@_0M@DHNBOJMP@extern?5?$CCC?$CC?5?$AA@ 00000001800d4900     LIBCMTD:undname.obj
 0002:0000c90c       ??_C@_02KCKGHPCA@?$CJ?5?$AA@ 00000001800d490c     LIBCMTD:undname.obj
 0002:0000c910       ??_C@_05CIHEBHNO@char?5?$AA@ 00000001800d4910     LIBCMTD:undname.obj
 0002:0000c918       ??_C@_06EHJMALKF@short?5?$AA@ 00000001800d4918     LIBCMTD:undname.obj
 0002:0000c920       ??_C@_04LAHKHJMA@int?5?$AA@ 00000001800d4920     LIBCMTD:undname.obj
 0002:0000c928       ??_C@_05CJIMAING@long?5?$AA@ 00000001800d4928     LIBCMTD:undname.obj
 0002:0000c930       ??_C@_09EBBEKKIH@unsigned?5?$AA@ 00000001800d4930     LIBCMTD:undname.obj
 0002:0000c93c       ??_C@_05BEFAKPML@void?5?$AA@ 00000001800d493c     LIBCMTD:undname.obj
 0002:0000c948       ??_C@_08PABEKFH@volatile?$AA@ 00000001800d4948     LIBCMTD:undname.obj
 0002:0000c958       ??_C@_0P@GCOCNKDM@std?3?3nullptr_t?$AA@ 00000001800d4958     LIBCMTD:undname.obj
 0002:0000c968       ??_C@_0L@EGPHHEKN@?$DMellipsis?$DO?$AA@ 00000001800d4968     LIBCMTD:undname.obj
 0002:0000c974       ??_C@_04EENFHACM@?0?4?4?4?$AA@ 00000001800d4974     LIBCMTD:undname.obj
 0002:0000c980       ??_C@_0M@ELJOJFFH@?0?$DMellipsis?$DO?$AA@ 00000001800d4980     LIBCMTD:undname.obj
 0002:0000c990       ??_C@_07HDJPLPEK@?5throw?$CI?$AA@ 00000001800d4990     LIBCMTD:undname.obj
 0002:0000c998       ??_C@_03PBJBJNON@cpu?$AA@  00000001800d4998     LIBCMTD:undname.obj
 0002:0000c99c       ??_C@_03DCBBJBAA@amp?$AA@  00000001800d499c     LIBCMTD:undname.obj
 0002:0000c9a0       ??_C@_02KEGNLNML@?0?5?$AA@ 00000001800d49a0     LIBCMTD:undname.obj
 0002:0000c9a4       ??_C@_04ENMBGAPA@char?$AA@ 00000001800d49a4     LIBCMTD:undname.obj
 0002:0000c9ac       ??_C@_05BFKKPKCG@short?$AA@ 00000001800d49ac     LIBCMTD:undname.obj
 0002:0000c9b4       ??_C@_04GOKPGOLB@long?$AA@ 00000001800d49b4     LIBCMTD:undname.obj
 0002:0000c9bc       ??_C@_06BNJCAIGJ@double?$AA@ 00000001800d49bc     LIBCMTD:undname.obj
 0002:0000c9c4       ??_C@_06EBGKOKIG@__int8?$AA@ 00000001800d49c4     LIBCMTD:undname.obj
 0002:0000c9d0       ??_C@_07ICFHOGAF@__int16?$AA@ 00000001800d49d0     LIBCMTD:undname.obj
 0002:0000c9d8       ??_C@_07OFLPPHGP@__int32?$AA@ 00000001800d49d8     LIBCMTD:undname.obj
 0002:0000c9e0       ??_C@_07LFCOJCAC@__int64?$AA@ 00000001800d49e0     LIBCMTD:undname.obj
 0002:0000c9e8       ??_C@_08GAHOLHEO@__int128?$AA@ 00000001800d49e8     LIBCMTD:undname.obj
 0002:0000c9f8       ??_C@_09EEKGDCPH@?$DMunknown?$DO?$AA@ 00000001800d49f8     LIBCMTD:undname.obj
 0002:0000ca08       ??_C@_07CLGGIAMF@wchar_t?$AA@ 00000001800d4a08     LIBCMTD:undname.obj
 0002:0000ca10       ??_C@_06GCICPBLB@__w64?5?$AA@ 00000001800d4a10     LIBCMTD:undname.obj
 0002:0000ca18       ??_C@_07NFANNNEC@UNKNOWN?$AA@ 00000001800d4a18     LIBCMTD:undname.obj
 0002:0000ca20       ??_C@_07EDHNAJHC@signed?5?$AA@ 00000001800d4a20     LIBCMTD:undname.obj
 0002:0000ca28       ??_C@_05BNCCCJPP@const?$AA@ 00000001800d4a28     LIBCMTD:undname.obj
 0002:0000ca30       ??_C@_09EFNPDFFP@?5volatile?$AA@ 00000001800d4a30     LIBCMTD:undname.obj
 0002:0000ca40       ??_C@_0P@GCIFDJCJ@?$GAunknown?5ecsu?8?$AA@ 00000001800d4a40     LIBCMTD:undname.obj
 0002:0000ca50       ??_C@_06MOJHIBMG@union?5?$AA@ 00000001800d4a50     LIBCMTD:undname.obj
 0002:0000ca58       ??_C@_07DIBCDNGL@struct?5?$AA@ 00000001800d4a58     LIBCMTD:undname.obj
 0002:0000ca60       ??_C@_06LJBABKPM@class?5?$AA@ 00000001800d4a60     LIBCMTD:undname.obj
 0002:0000ca68       ??_C@_08KOFANOFK@coclass?5?$AA@ 00000001800d4a68     LIBCMTD:undname.obj
 0002:0000ca78       ??_C@_0N@DLIEFKNA@cointerface?5?$AA@ 00000001800d4a78     LIBCMTD:undname.obj
 0002:0000ca88       ??_C@_05LJGMCFOG@enum?5?$AA@ 00000001800d4a88     LIBCMTD:undname.obj
 0002:0000ca90       ??_C@_09GAIEOBLP@volatile?5?$AA@ 00000001800d4a90     LIBCMTD:undname.obj
 0002:0000ca9c       ??_C@_06LIJLOJAG@const?5?$AA@ 00000001800d4a9c     LIBCMTD:undname.obj
 0002:0000caa8       ??_C@_0M@EALIELKG@cli?3?3array?$DM?$AA@ 00000001800d4aa8     LIBCMTD:undname.obj
 0002:0000cab8       ??_C@_0O@GKABPPIF@cli?3?3pin_ptr?$DM?$AA@ 00000001800d4ab8     LIBCMTD:undname.obj
 0002:0000cac8       ??_C@_02GOGNNPBN@?$CJ?$FL?$AA@ 00000001800d4ac8     LIBCMTD:undname.obj
 0002:0000cacc       ??_C@_06EEGAIFAK@?$HLflat?$HN?$AA@ 00000001800d4acc     LIBCMTD:undname.obj
 0002:0000cad4       ??_C@_05JIBOFOHK@?$HLfor?5?$AA@ 00000001800d4ad4     LIBCMTD:undname.obj
 0002:0000cadc       ??_C@_02MDINNEEG@s?5?$AA@  00000001800d4adc     LIBCMTD:undname.obj
 0002:0000cae8       ??_7DNameNode@@6B@         00000001800d4ae8     LIBCMTD:undname.obj
 0002:0000cb08       ??_7charNode@@6B@          00000001800d4b08     LIBCMTD:undname.obj
 0002:0000cb28       ??_7pcharNode@@6B@         00000001800d4b28     LIBCMTD:undname.obj
 0002:0000cb48       ??_7pDNameNode@@6B@        00000001800d4b48     LIBCMTD:undname.obj
 0002:0000cb68       ??_7DNameStatusNode@@6B@   00000001800d4b68     LIBCMTD:undname.obj
 0002:0000cb88       ??_7pairNode@@6B@          00000001800d4b88     LIBCMTD:undname.obj
 0002:0000cba0       ??_C@_04OKOHEJBO@?5?$DP?$DP?5?$AA@ 00000001800d4ba0     LIBCMTD:undname.obj
 0002:0000cbb8       ??_C@_1BI@GKKCBDMD@?$AAd?$AAs?$AAt?$AA?5?$AA?$CB?$AA?$DN?$AA?5?$AAN?$AAU?$AAL?$AAL?$AA?$AA@ 00000001800d4bb8     LIBCMTD:memcpy_s.obj
 0002:0000cbd0       ??_C@_1FG@COJCEIPE@?$AAf?$AA?3?$AA?2?$AAd?$AAd?$AA?2?$AAv?$AAc?$AAt?$AAo?$AAo?$AAl?$AAs?$AA?2?$AAc?$AAr?$AAt?$AA?2?$AAc?$AAr?$AAt?$AAw?$AA3?$AA2?$AA?2?$AAs?$AAt?$AAr?$AAi?$AAn?$AAg?$AA?2@ 00000001800d4bd0     LIBCMTD:memcpy_s.obj
 0002:0000cc28       ??_C@_1BC@GKHDJMGB@?$AAm?$AAe?$AAm?$AAc?$AAp?$AAy?$AA_?$AAs?$AA?$AA@ 00000001800d4c28     LIBCMTD:memcpy_s.obj
 0002:0000cc40       ??_C@_1BI@DCHLDCPP@?$AAs?$AAr?$AAc?$AA?5?$AA?$CB?$AA?$DN?$AA?5?$AAN?$AAU?$AAL?$AAL?$AA?$AA@ 00000001800d4c40     LIBCMTD:memcpy_s.obj
 0002:0000cc58       ??_C@_1CK@DDKKOLAN@?$AAs?$AAi?$AAz?$AAe?$AAI?$AAn?$AAB?$AAy?$AAt?$AAe?$AAs?$AA?5?$AA?$DO?$AA?$DN?$AA?5?$AAc?$AAo?$AAu?$AAn?$AAt?$AA?$AA@ 00000001800d4c58     LIBCMTD:memcpy_s.obj
 0002:0000cc90       ??_C@_1FC@PFMLEHKI@?$AA?$CI?$AA?$CI?$AA_?$AAD?$AAs?$AAt?$AA?$CJ?$AA?$CJ?$AA?5?$AA?$CB?$AA?$DN?$AA?5?$AAN?$AAU?$AAL?$AAL?$AA?5?$AA?$CG?$AA?$CG?$AA?5?$AA?$CI?$AA?$CI?$AA_?$AAS?$AAi?$AAz?$AAe?$AAI?$AAn?$AAW?$AAo?$AAr@ 00000001800d4c90     LIBCMTD:wcscpy_s.obj
 0002:0000cce8       ??_C@_1BC@KIONAFPO@?$AAw?$AAc?$AAs?$AAc?$AAp?$AAy?$AA_?$AAs?$AA?$AA@ 00000001800d4ce8     LIBCMTD:wcscpy_s.obj
 0002:0000cd00       ??_C@_1FE@HMGHELF@?$AAf?$AA?3?$AA?2?$AAd?$AAd?$AA?2?$AAv?$AAc?$AAt?$AAo?$AAo?$AAl?$AAs?$AA?2?$AAc?$AAr?$AAt?$AA?2?$AAc?$AAr?$AAt?$AAw?$AA3?$AA2?$AA?2?$AAs?$AAt?$AAd?$AAi?$AAo?$AA?2?$AAs@ 00000001800d4d00     LIBCMTD:swprintf.obj
 0002:0000cd58       ??_C@_1BE@BMIJMLDD@?$AA_?$AAs?$AAw?$AAp?$AAr?$AAi?$AAn?$AAt?$AAf?$AA?$AA@ 00000001800d4d58     LIBCMTD:swprintf.obj
 0002:0000cd70       ??_C@_1CC@OLIJCKA@?$AA?$CI?$AAs?$AAt?$AAr?$AAi?$AAn?$AAg?$AA?5?$AA?$CB?$AA?$DN?$AA?5?$AAN?$AAU?$AAL?$AAL?$AA?$CJ?$AA?$AA@ 00000001800d4d70     LIBCMTD:swprintf.obj
 0002:0000cd98       ??_C@_0CH@KINPIPGE@f?3?2dd?2vctools?2crt?2crtw32?2misc?2wi@ 00000001800d4d98     LIBCMTD:winsig.obj
 0002:0000cdc0       ??_C@_1DO@MLNEDKGB@?$AA?$CI?$AA?$CC?$AAI?$AAn?$AAv?$AAa?$AAl?$AAi?$AAd?$AA?5?$AAs?$AAi?$AAg?$AAn?$AAa?$AAl?$AA?5?$AAo?$AAr?$AA?5?$AAe?$AAr?$AAr?$AAo?$AAr?$AA?$CC?$AA?0?$AA?5?$AA0?$AA?$CJ?$AA?$AA@ 00000001800d4dc0     LIBCMTD:winsig.obj
 0002:0000ce00       ??_C@_1EO@BCKLPCCI@?$AAf?$AA?3?$AA?2?$AAd?$AAd?$AA?2?$AAv?$AAc?$AAt?$AAo?$AAo?$AAl?$AAs?$AA?2?$AAc?$AAr?$AAt?$AA?2?$AAc?$AAr?$AAt?$AAw?$AA3?$AA2?$AA?2?$AAm?$AAi?$AAs?$AAc?$AA?2?$AAw?$AAi@ 00000001800d4e00     LIBCMTD:winsig.obj
 0002:0000ce50       ??_C@_1O@EJLDHPPL@?$AAs?$AAi?$AAg?$AAn?$AAa?$AAl?$AA?$AA@ 00000001800d4e50     LIBCMTD:winsig.obj
 0002:0000ce60       ??_C@_1M@DMJEIKHL@?$AAr?$AAa?$AAi?$AAs?$AAe?$AA?$AA@ 00000001800d4e60     LIBCMTD:winsig.obj
 0002:0000ce70       ??_C@_1BG@GOEBHBDC@?$AAU?$AAS?$AAE?$AAR?$AA3?$AA2?$AA?4?$AAD?$AAL?$AAL?$AA?$AA@ 00000001800d4e70     LIBCMTD:crtmboxw.obj
 0002:0000ce88       ??_C@_0M@DLDCCGNP@MessageBoxW?$AA@ 00000001800d4e88     LIBCMTD:crtmboxw.obj
 0002:0000ce98       ??_C@_0BA@HNOPNCHB@GetActiveWindow?$AA@ 00000001800d4e98     LIBCMTD:crtmboxw.obj
 0002:0000cea8       ??_C@_0BD@HHGDFDBJ@GetLastActivePopup?$AA@ 00000001800d4ea8     LIBCMTD:crtmboxw.obj
 0002:0000cec0       ??_C@_0BK@DEKFELLI@GetUserObjectInformationW?$AA@ 00000001800d4ec0     LIBCMTD:crtmboxw.obj
 0002:0000cee0       ??_C@_0BI@DFKBFLJE@GetProcessWindowStation?$AA@ 00000001800d4ee0     LIBCMTD:crtmboxw.obj
 0002:0000cf00       ??_C@_1FA@IFFFOLDJ@?$AAn?$AAR?$AAp?$AAt?$AAT?$AAy?$AAp?$AAe?$AA?5?$AA?$DO?$AA?$DN?$AA?5?$AA0?$AA?5?$AA?$CG?$AA?$CG?$AA?5?$AAn?$AAR?$AAp?$AAt?$AAT?$AAy?$AAp?$AAe?$AA?5?$AA?$DM?$AA?5?$AA_?$AAC?$AAR?$AAT@ 00000001800d4f00     LIBCMTD:dbgrptt.obj
 0002:0000cf50       ??_C@_1FA@PPLJBGMP@?$AAf?$AA?3?$AA?2?$AAd?$AAd?$AA?2?$AAv?$AAc?$AAt?$AAo?$AAo?$AAl?$AAs?$AA?2?$AAc?$AAr?$AAt?$AA?2?$AAc?$AAr?$AAt?$AAw?$AA3?$AA2?$AA?2?$AAm?$AAi?$AAs?$AAc?$AA?2?$AAd?$AAb@ 00000001800d4f50     LIBCMTD:dbgrptt.obj
 0002:0000cfa0       ??_C@_1CE@FIHIECNJ@?$AA_?$AAC?$AAr?$AAt?$AAS?$AAe?$AAt?$AAR?$AAe?$AAp?$AAo?$AAr?$AAt?$AAM?$AAo?$AAd?$AAe?$AA?$AA@ 00000001800d4fa0     LIBCMTD:dbgrptt.obj
 0002:0000cfd0       ??_C@_1NK@LOFHIHFC@?$AAf?$AAM?$AAo?$AAd?$AAe?$AA?5?$AA?$DN?$AA?$DN?$AA?5?$AA_?$AAC?$AAR?$AAT?$AAD?$AAB?$AAG?$AA_?$AAR?$AAE?$AAP?$AAO?$AAR?$AAT?$AA_?$AAM?$AAO?$AAD?$AAE?$AA?5?$AA?$HM?$AA?$HM?$AA?5@ 00000001800d4fd0     LIBCMTD:dbgrptt.obj
 0002:0000d0b0       ??_C@_1CE@IKKEDCME@?$AA_?$AAC?$AAr?$AAt?$AAS?$AAe?$AAt?$AAR?$AAe?$AAp?$AAo?$AAr?$AAt?$AAF?$AAi?$AAl?$AAe?$AA?$AA@ 00000001800d50b0     LIBCMTD:dbgrptt.obj
 0002:0000d0d8       ??_C@_1CA@KHJHLKA@?$AA_?$AAV?$AAC?$AAr?$AAt?$AAD?$AAb?$AAg?$AAR?$AAe?$AAp?$AAo?$AAr?$AAt?$AAA?$AA?$AA@ 00000001800d50d8     LIBCMTD:dbgrptt.obj
 0002:0000d100       ??_C@_1FA@JPHJBHEM@?$AA_?$AAi?$AAt?$AAo?$AAa?$AA_?$AAs?$AA?$CI?$AAn?$AAL?$AAi?$AAn?$AAe?$AA?0?$AA?5?$AAs?$AAz?$AAL?$AAi?$AAn?$AAe?$AAM?$AAe?$AAs?$AAs?$AAa?$AAg?$AAe?$AA?0?$AA?5?$AA4?$AA0@ 00000001800d5100     LIBCMTD:dbgrptt.obj
 0002:0000d150       ??_C@_0CG@BNGLOCEO@Second?5Chance?5Assertion?5Failed?3?5@ 00000001800d5150     LIBCMTD:dbgrptt.obj
 0002:0000d178       ??_C@_0P@DFJNDPOP@?$DMfile?5unknown?$DO?$AA@ 00000001800d5178     LIBCMTD:dbgrptt.obj
 0002:0000d188       ??_C@_07BHGABMGB@?0?5Line?5?$AA@ 00000001800d5188     LIBCMTD:dbgrptt.obj
 0002:0000d190       ??_C@_1JI@GAALPGBM@?$AAs?$AAt?$AAr?$AAc?$AAp?$AAy?$AA_?$AAs?$AA?$CI?$AAs?$AAz?$AAU?$AAs?$AAe?$AAr?$AAM?$AAe?$AAs?$AAs?$AAa?$AAg?$AAe?$AA?0?$AA?5?$AA4?$AA0?$AA9?$AA6?$AA?0?$AA?5?$AA?$CC?$AA_@ 00000001800d5190     LIBCMTD:dbgrptt.obj
 0002:0000d228       ??_C@_0CL@EACFGMNB@_CrtDbgReport?3?5String?5too?5long?5o@ 00000001800d5228     LIBCMTD:dbgrptt.obj
 0002:0000d260       ??_C@_1KK@GIGAEDMO@?$AAs?$AAt?$AAr?$AAc?$AAp?$AAy?$AA_?$AAs?$AA?$CI?$AAs?$AAz?$AAL?$AAi?$AAn?$AAe?$AAM?$AAe?$AAs?$AAs?$AAa?$AAg?$AAe?$AA?0?$AA?5?$AA4?$AA0?$AA9?$AA6?$AA?0?$AA?5?$AAs?$AAz@ 00000001800d5260     LIBCMTD:dbgrptt.obj
 0002:0000d310       ??_C@_0BD@CAENFOHP@Assertion?5failed?3?5?$AA@ 00000001800d5310     LIBCMTD:dbgrptt.obj
 0002:0000d328       ??_C@_0BC@LAIDCHCH@Assertion?5failed?$CB?$AA@ 00000001800d5328     LIBCMTD:dbgrptt.obj
 0002:0000d340       ??_C@_1FK@NPGBPOFO@?$AAs?$AAt?$AAr?$AAc?$AAa?$AAt?$AA_?$AAs?$AA?$CI?$AAs?$AAz?$AAL?$AAi?$AAn?$AAe?$AAM?$AAe?$AAs?$AAs?$AAa?$AAg?$AAe?$AA?0?$AA?5?$AA4?$AA0?$AA9?$AA6?$AA?0?$AA?5?$AAs?$AAz@ 00000001800d5340     LIBCMTD:dbgrptt.obj
 0002:0000d3a0       ??_C@_1EI@CACDLAFK@?$AAs?$AAt?$AAr?$AAc?$AAa?$AAt?$AA_?$AAs?$AA?$CI?$AAs?$AAz?$AAL?$AAi?$AAn?$AAe?$AAM?$AAe?$AAs?$AAs?$AAa?$AAg?$AAe?$AA?0?$AA?5?$AA4?$AA0?$AA9?$AA6?$AA?0?$AA?5?$AA?$CC?$AA?2@ 00000001800d53a0     LIBCMTD:dbgrptt.obj
 0002:0000d3e8       ??_C@_01LIIJDEN@?$AN?$AA@  00000001800d53e8     LIBCMTD:dbgrptt.obj
 0002:0000d3f0       ??_C@_1EI@LDHJEDO@?$AAs?$AAt?$AAr?$AAc?$AAa?$AAt?$AA_?$AAs?$AA?$CI?$AAs?$AAz?$AAL?$AAi?$AAn?$AAe?$AAM?$AAe?$AAs?$AAs?$AAa?$AAg?$AAe?$AA?0?$AA?5?$AA4?$AA0?$AA9?$AA6?$AA?0?$AA?5?$AA?$CC?$AA?2@ 00000001800d53f0     LIBCMTD:dbgrptt.obj
 0002:0000d438       ??_C@_0M@IPILFDFN@?$CFs?$CI?$CFd?$CJ?5?3?5?$CFs?$AA@ 00000001800d5438     LIBCMTD:dbgrptt.obj
 0002:0000d450       ??_C@_1JG@CPKCIOEE@?$AAs?$AAt?$AAr?$AAc?$AAp?$AAy?$AA_?$AAs?$AA?$CI?$AAs?$AAz?$AAO?$AAu?$AAt?$AAM?$AAe?$AAs?$AAs?$AAa?$AAg?$AAe?$AA?0?$AA?5?$AA4?$AA0?$AA9?$AA6?$AA?0?$AA?5?$AA?$CC?$AA_?$AAC@ 00000001800d5450     LIBCMTD:dbgrptt.obj
 0002:0000d4f0       ??_C@_1FI@IBIOIHEG@?$AAs?$AAt?$AAr?$AAc?$AAp?$AAy?$AA_?$AAs?$AA?$CI?$AAs?$AAz?$AAO?$AAu?$AAt?$AAM?$AAe?$AAs?$AAs?$AAa?$AAg?$AAe?$AA?0?$AA?5?$AA4?$AA0?$AA9?$AA6?$AA?0?$AA?5?$AAs?$AAz?$AAL@ 00000001800d54f0     LIBCMTD:dbgrptt.obj
 0002:0000d550       ??_C@_1IM@OOKIFKOH@?$AAe?$AA?5?$AA?$DN?$AA?5?$AAm?$AAb?$AAs?$AAt?$AAo?$AAw?$AAc?$AAs?$AA_?$AAs?$AA?$CI?$AA?$CG?$AAr?$AAe?$AAt?$AA?0?$AA?5?$AAs?$AAz?$AAO?$AAu?$AAt?$AAM?$AAe?$AAs?$AAs?$AAa?$AAg@ 00000001800d5550     LIBCMTD:dbgrptt.obj
 0002:0000d5e0       ??_C@_1MC@IGEECMDB@?$AAw?$AAc?$AAs?$AAc?$AAp?$AAy?$AA_?$AAs?$AA?$CI?$AAs?$AAz?$AAO?$AAu?$AAt?$AAM?$AAe?$AAs?$AAs?$AAa?$AAg?$AAe?$AA2?$AA?0?$AA?5?$AA4?$AA0?$AA9?$AA6?$AA?0?$AA?5?$AAL?$AA?$CC@ 00000001800d55e0     LIBCMTD:dbgrptt.obj
 0002:0000d6b0       ??_C@_1HO@PJOFIKFE@?$AA_?$AAC?$AAr?$AAt?$AAD?$AAb?$AAg?$AAR?$AAe?$AAp?$AAo?$AAr?$AAt?$AA?3?$AA?5?$AAS?$AAt?$AAr?$AAi?$AAn?$AAg?$AA?5?$AAt?$AAo?$AAo?$AA?5?$AAl?$AAo?$AAn?$AAg?$AA?5?$AAo@ 00000001800d56b0     LIBCMTD:dbgrptt.obj
 0002:0000d730       ??_C@_1CA@HPALHDOD@?$AA_?$AAV?$AAC?$AAr?$AAt?$AAD?$AAb?$AAg?$AAR?$AAe?$AAp?$AAo?$AAr?$AAt?$AAW?$AA?$AA@ 00000001800d5730     LIBCMTD:dbgrptt.obj
 0002:0000d750       ??_C@_1FA@CNLLOMHI@?$AA_?$AAi?$AAt?$AAo?$AAw?$AA_?$AAs?$AA?$CI?$AAn?$AAL?$AAi?$AAn?$AAe?$AA?0?$AA?5?$AAs?$AAz?$AAL?$AAi?$AAn?$AAe?$AAM?$AAe?$AAs?$AAs?$AAa?$AAg?$AAe?$AA?0?$AA?5?$AA4?$AA0@ 00000001800d5750     LIBCMTD:dbgrptt.obj
 0002:0000d7a0       ??_C@_1EM@MJFLEDMB@?$AAS?$AAe?$AAc?$AAo?$AAn?$AAd?$AA?5?$AAC?$AAh?$AAa?$AAn?$AAc?$AAe?$AA?5?$AAA?$AAs?$AAs?$AAe?$AAr?$AAt?$AAi?$AAo?$AAn?$AA?5?$AAF?$AAa?$AAi?$AAl?$AAe?$AAd?$AA?3?$AA?5@ 00000001800d57a0     LIBCMTD:dbgrptt.obj
 0002:0000d7f0       ??_C@_1BO@OCHMLCAG@?$AA?$DM?$AAf?$AAi?$AAl?$AAe?$AA?5?$AAu?$AAn?$AAk?$AAn?$AAo?$AAw?$AAn?$AA?$DO?$AA?$AA@ 00000001800d57f0     LIBCMTD:dbgrptt.obj
 0002:0000d810       ??_C@_1BA@ELMMDCFC@?$AA?0?$AA?5?$AAL?$AAi?$AAn?$AAe?$AA?5?$AA?$AA@ 00000001800d5810     LIBCMTD:dbgrptt.obj
 0002:0000d820       ??_C@_13LBAGMAIH@?$AA?6?$AA?$AA@ 00000001800d5820     LIBCMTD:dbgrptt.obj
 0002:0000d830       ??_C@_1JK@KHFABAEO@?$AAw?$AAc?$AAs?$AAc?$AAp?$AAy?$AA_?$AAs?$AA?$CI?$AAs?$AAz?$AAU?$AAs?$AAe?$AAr?$AAM?$AAe?$AAs?$AAs?$AAa?$AAg?$AAe?$AA?0?$AA?5?$AA4?$AA0?$AA9?$AA6?$AA?0?$AA?5?$AAL?$AA?$CC@ 00000001800d5830     LIBCMTD:dbgrptt.obj
 0002:0000d8d0       ??_C@_1KO@DGAHENCH@?$AAw?$AAc?$AAs?$AAc?$AAp?$AAy?$AA_?$AAs?$AA?$CI?$AAs?$AAz?$AAL?$AAi?$AAn?$AAe?$AAM?$AAe?$AAs?$AAs?$AAa?$AAg?$AAe?$AA?0?$AA?5?$AA4?$AA0?$AA9?$AA6?$AA?0?$AA?5?$AAs?$AAz@ 00000001800d58d0     LIBCMTD:dbgrptt.obj
 0002:0000d980       ??_C@_1CG@FFFGGODN@?$AAA?$AAs?$AAs?$AAe?$AAr?$AAt?$AAi?$AAo?$AAn?$AA?5?$AAf?$AAa?$AAi?$AAl?$AAe?$AAd?$AA?3?$AA?5?$AA?$AA@ 00000001800d5980     LIBCMTD:dbgrptt.obj
 0002:0000d9a8       ??_C@_1CE@OJBNHDMO@?$AAA?$AAs?$AAs?$AAe?$AAr?$AAt?$AAi?$AAo?$AAn?$AA?5?$AAf?$AAa?$AAi?$AAl?$AAe?$AAd?$AA?$CB?$AA?$AA@ 00000001800d59a8     LIBCMTD:dbgrptt.obj
 0002:0000d9d0       ??_C@_1FK@HPADHBBD@?$AAw?$AAc?$AAs?$AAc?$AAa?$AAt?$AA_?$AAs?$AA?$CI?$AAs?$AAz?$AAL?$AAi?$AAn?$AAe?$AAM?$AAe?$AAs?$AAs?$AAa?$AAg?$AAe?$AA?0?$AA?5?$AA4?$AA0?$AA9?$AA6?$AA?0?$AA?5?$AAs?$AAz@ 00000001800d59d0     LIBCMTD:dbgrptt.obj
 0002:0000da30       ??_C@_1EK@NMDFGHMF@?$AAw?$AAc?$AAs?$AAc?$AAa?$AAt?$AA_?$AAs?$AA?$CI?$AAs?$AAz?$AAL?$AAi?$AAn?$AAe?$AAM?$AAe?$AAs?$AAs?$AAa?$AAg?$AAe?$AA?0?$AA?5?$AA4?$AA0?$AA9?$AA6?$AA?0?$AA?5?$AAL?$AA?$CC@ 00000001800d5a30     LIBCMTD:dbgrptt.obj
 0002:0000da7c       ??_C@_13CMNBPIDO@?$AA?$AN?$AA?$AA@ 00000001800d5a7c     LIBCMTD:dbgrptt.obj
 0002:0000da80       ??_C@_1EK@PHCBEDKB@?$AAw?$AAc?$AAs?$AAc?$AAa?$AAt?$AA_?$AAs?$AA?$CI?$AAs?$AAz?$AAL?$AAi?$AAn?$AAe?$AAM?$AAe?$AAs?$AAs?$AAa?$AAg?$AAe?$AA?0?$AA?5?$AA4?$AA0?$AA9?$AA6?$AA?0?$AA?5?$AAL?$AA?$CC@ 00000001800d5a80     LIBCMTD:dbgrptt.obj
 0002:0000dad0       ??_C@_1BI@JIDBEPIG@?$AA?$CF?$AAs?$AA?$CI?$AA?$CF?$AAd?$AA?$CJ?$AA?5?$AA?3?$AA?5?$AA?$CF?$AAs?$AA?$AA@ 00000001800d5ad0     LIBCMTD:dbgrptt.obj
 0002:0000daf0       ??_C@_1FI@DBAIJPJE@?$AAw?$AAc?$AAs?$AAc?$AAp?$AAy?$AA_?$AAs?$AA?$CI?$AAs?$AAz?$AAO?$AAu?$AAt?$AAM?$AAe?$AAs?$AAs?$AAa?$AAg?$AAe?$AA?0?$AA?5?$AA4?$AA0?$AA9?$AA6?$AA?0?$AA?5?$AAs?$AAz?$AAL@ 00000001800d5af0     LIBCMTD:dbgrptt.obj
 0002:0000db50       ??_C@_1JC@EOAPFDLN@?$AAw?$AAc?$AAs?$AAt?$AAo?$AAm?$AAb?$AAs?$AA_?$AAs?$AA?$CI?$AA?$CI?$AA?$CI?$AAv?$AAo?$AAi?$AAd?$AA?5?$AA?$CK?$AA?$CJ?$AA0?$AA?$CJ?$AA?0?$AA?5?$AAs?$AAz?$AAO?$AAu?$AAt?$AAM?$AAe?$AAs@ 00000001800d5b50     LIBCMTD:dbgrptt.obj
 0002:0000dbf0       ??_C@_1MA@LBAMNNOB@?$AAs?$AAt?$AAr?$AAc?$AAp?$AAy?$AA_?$AAs?$AA?$CI?$AAs?$AAz?$AAO?$AAu?$AAt?$AAM?$AAe?$AAs?$AAs?$AAa?$AAg?$AAe?$AA2?$AA?0?$AA?5?$AA4?$AA0?$AA9?$AA6?$AA?0?$AA?5?$AA?$CC?$AA_@ 00000001800d5bf0     LIBCMTD:dbgrptt.obj
 0002:0000dcb0       ??_C@_0DP@GNPEPHJD@_CrtDbgReport?3?5String?5too?5long?5o@ 00000001800d5cb0     LIBCMTD:dbgrptt.obj
 0002:0000dcf0       ??_C@_1IE@CPGKIAGP@?$AAw?$AAc?$AAs?$AAt?$AAo?$AAm?$AAb?$AAs?$AA_?$AAs?$AA?$CI?$AA?$CG?$AAr?$AAe?$AAt?$AA?0?$AA?5?$AAs?$AAz?$AAa?$AAO?$AAu?$AAt?$AAM?$AAe?$AAs?$AAs?$AAa?$AAg?$AAe?$AA?0?$AA?5@ 00000001800d5cf0     LIBCMTD:dbgrptt.obj
 0002:0000dd78       ??_C@_1CI@JELMFMDH@?$AAc?$AA?5?$AA?$DO?$AA?$DN?$AA?5?$AA?9?$AA1?$AA?5?$AA?$CG?$AA?$CG?$AA?5?$AAc?$AA?5?$AA?$DM?$AA?$DN?$AA?5?$AA2?$AA5?$AA5?$AA?$AA@ 00000001800d5d78     LIBCMTD:isctype.obj
 0002:0000dda0       ??_C@_1FG@IBFIOCOE@?$AAf?$AA?3?$AA?2?$AAd?$AAd?$AA?2?$AAv?$AAc?$AAt?$AAo?$AAo?$AAl?$AAs?$AA?2?$AAc?$AAr?$AAt?$AA?2?$AAc?$AAr?$AAt?$AAw?$AA3?$AA2?$AA?2?$AAc?$AAo?$AAn?$AAv?$AAe?$AAr?$AAt@ 00000001800d5da0     LIBCMTD:isctype.obj
 0002:0000ddf8       ??_C@_1BO@KFIJIAEA@?$AAp?$AAB?$AAl?$AAo?$AAc?$AAk?$AA?5?$AA?$CB?$AA?$DN?$AA?5?$AAN?$AAU?$AAL?$AAL?$AA?$AA@ 00000001800d5df8     LIBCMTD:expand.obj
 0002:0000de20       ??_C@_1EO@BOMKIKJB@?$AAf?$AA?3?$AA?2?$AAd?$AAd?$AA?2?$AAv?$AAc?$AAt?$AAo?$AAo?$AAl?$AAs?$AA?2?$AAc?$AAr?$AAt?$AA?2?$AAc?$AAr?$AAt?$AAw?$AA3?$AA2?$AA?2?$AAh?$AAe?$AAa?$AAp?$AA?2?$AAe?$AAx@ 00000001800d5e20     LIBCMTD:expand.obj
 0002:0000de70       ??_C@_1BK@JMCGJOCC@?$AA_?$AAe?$AAx?$AAp?$AAa?$AAn?$AAd?$AA_?$AAb?$AAa?$AAs?$AAe?$AA?$AA@ 00000001800d5e70     LIBCMTD:expand.obj
 0002:0000de90       ??_C@_1FC@JALKILNE@?$AAf?$AA?3?$AA?2?$AAd?$AAd?$AA?2?$AAv?$AAc?$AAt?$AAo?$AAo?$AAl?$AAs?$AA?2?$AAc?$AAr?$AAt?$AA?2?$AAc?$AAr?$AAt?$AAw?$AA3?$AA2?$AA?2?$AAs?$AAt?$AAd?$AAi?$AAo?$AA?2?$AAs@ 00000001800d5e90     LIBCMTD:sprintf.obj
 0002:0000dee8       ??_C@_1BA@KBJJGFFE@?$AAs?$AAp?$AAr?$AAi?$AAn?$AAt?$AAf?$AA?$AA@ 00000001800d5ee8     LIBCMTD:sprintf.obj
 0002:0000df00       __lookuptable_s            00000001800d5f00     LIBCMTD:outputs.obj
 0002:0000df60       ??_C@_1BI@COFBLHCG@?$AA_?$AAo?$AAu?$AAt?$AAp?$AAu?$AAt?$AA_?$AAs?$AA_?$AAl?$AA?$AA@ 00000001800d5f60     LIBCMTD:outputs.obj
 0002:0000df80       ??_C@_1EE@DMAIGNBG@?$AA?$CI?$AA?$CC?$AAI?$AAn?$AAc?$AAo?$AAr?$AAr?$AAe?$AAc?$AAt?$AA?5?$AAf?$AAo?$AAr?$AAm?$AAa?$AAt?$AA?5?$AAs?$AAp?$AAe?$AAc?$AAi?$AAf?$AAi?$AAe?$AAr?$AA?$CC?$AA?0?$AA?5?$AA0@ 00000001800d5f80     LIBCMTD:outputs.obj
 0002:0000dfd0       ??_C@_1FK@LNCFKALM@?$AA?$CI?$AA?$CI?$AAs?$AAt?$AAa?$AAt?$AAe?$AA?5?$AA?$DN?$AA?$DN?$AA?5?$AAS?$AAT?$AA_?$AAN?$AAO?$AAR?$AAM?$AAA?$AAL?$AA?$CJ?$AA?5?$AA?$HM?$AA?$HM?$AA?5?$AA?$CI?$AAs?$AAt?$AAa?$AAt?$AAe?$AA?5@ 00000001800d5fd0     LIBCMTD:outputs.obj
 0002:0000e030       ??_C@_1BI@KANOLAMF@?$AA_?$AAo?$AAu?$AAt?$AAp?$AAu?$AAt?$AA_?$AAp?$AA_?$AAl?$AA?$AA@ 00000001800d6030     LIBCMTD:outputp.obj
 0002:0000e050       ??_C@_1JC@PFJNKEIO@?$AA?$CI?$AA?$CI?$AAt?$AAy?$AAp?$AAe?$AA_?$AAp?$AAo?$AAs?$AA?5?$AA?$DO?$AA?$DN?$AA?5?$AA0?$AA?$CJ?$AA?5?$AA?$CG?$AA?$CG?$AA?5?$AA?$CI?$AA?$CK?$AAe?$AAn?$AAd?$AA_?$AAp?$AAo?$AAs?$AA?5?$AA?$DN?$AA?$DN@ 00000001800d6050     LIBCMTD:outputp.obj
 0002:0000e0f0       ??_C@_1JE@NMBHOLFI@?$AA?$CI?$AA?$CI?$AAw?$AAi?$AAd?$AAt?$AAh?$AA_?$AAp?$AAo?$AAs?$AA?5?$AA?$DO?$AA?$DN?$AA?5?$AA0?$AA?$CJ?$AA?5?$AA?$CG?$AA?$CG?$AA?5?$AA?$CI?$AA?$CK?$AAe?$AAn?$AAd?$AA_?$AAp?$AAo?$AAs?$AA?5?$AA?$DN@ 00000001800d60f0     LIBCMTD:outputp.obj
 0002:0000e190       ??_C@_1II@PIPIMLPF@?$AA_?$AAt?$AAv?$AAa?$AAl?$AAi?$AAd?$AAa?$AAt?$AAe?$AA_?$AAp?$AAa?$AAr?$AAa?$AAm?$AA_?$AAr?$AAe?$AAu?$AAs?$AAe?$AA?$CI?$AA?$CG?$AAp?$AAo?$AAs?$AA_?$AAv?$AAa?$AAl?$AAu@ 00000001800d6190     LIBCMTD:outputp.obj
 0002:0000e220       ??_C@_1JG@JBJBOCFB@?$AA?$CI?$AA?$CI?$AAp?$AAr?$AAe?$AAc?$AAi?$AAs?$AA_?$AAp?$AAo?$AAs?$AA?5?$AA?$DO?$AA?$DN?$AA?5?$AA0?$AA?$CJ?$AA?5?$AA?$CG?$AA?$CG?$AA?5?$AA?$CI?$AA?$CK?$AAe?$AAn?$AAd?$AA_?$AAp?$AAo?$AAs?$AA?5@ 00000001800d6220     LIBCMTD:outputp.obj
 0002:0000e2c0       ??_C@_1IK@EIEPDKHJ@?$AA_?$AAt?$AAv?$AAa?$AAl?$AAi?$AAd?$AAa?$AAt?$AAe?$AA_?$AAp?$AAa?$AAr?$AAa?$AAm?$AA_?$AAr?$AAe?$AAu?$AAs?$AAe?$AA?$CI?$AA?$CG?$AAp?$AAo?$AAs?$AA_?$AAv?$AAa?$AAl?$AAu@ 00000001800d62c0     LIBCMTD:outputp.obj
 0002:0000e350       ??_C@_1EM@BNPHBBIA@?$AA?$CI?$AA?$CI?$AAt?$AAy?$AAp?$AAe?$AA_?$AAp?$AAo?$AAs?$AA?$DO?$AA?$DN?$AA0?$AA?$CJ?$AA?5?$AA?$CG?$AA?$CG?$AA?5?$AA?$CI?$AAt?$AAy?$AAp?$AAe?$AA_?$AAp?$AAo?$AAs?$AA?$DM?$AA_?$AAA?$AAR?$AAG@ 00000001800d6350     LIBCMTD:outputp.obj
 0002:0000e3a0       ??_C@_1IK@MHEDJAMK@?$AA_?$AAt?$AAv?$AAa?$AAl?$AAi?$AAd?$AAa?$AAt?$AAe?$AA_?$AAp?$AAa?$AAr?$AAa?$AAm?$AA_?$AAr?$AAe?$AAu?$AAs?$AAe?$AA?$CI?$AA?$CG?$AAp?$AAo?$AAs?$AA_?$AAv?$AAa?$AAl?$AAu@ 00000001800d63a0     LIBCMTD:outputp.obj
 0002:0000e430       ??_C@_1IG@FDCPLALG@?$AA_?$AAt?$AAv?$AAa?$AAl?$AAi?$AAd?$AAa?$AAt?$AAe?$AA_?$AAp?$AAa?$AAr?$AAa?$AAm?$AA_?$AAr?$AAe?$AAu?$AAs?$AAe?$AA?$CI?$AA?$CG?$AAp?$AAo?$AAs?$AA_?$AAv?$AAa?$AAl?$AAu@ 00000001800d6430     LIBCMTD:outputp.obj
 0002:0000e4c0       ??_C@_1IG@HJIMKDHC@?$AA_?$AAt?$AAv?$AAa?$AAl?$AAi?$AAd?$AAa?$AAt?$AAe?$AA_?$AAp?$AAa?$AAr?$AAa?$AAm?$AA_?$AAr?$AAe?$AAu?$AAs?$AAe?$AA?$CI?$AA?$CG?$AAp?$AAo?$AAs?$AA_?$AAv?$AAa?$AAl?$AAu@ 00000001800d64c0     LIBCMTD:outputp.obj
 0002:0000e550       ??_C@_1IM@DNGHAPLB@?$AA_?$AAt?$AAv?$AAa?$AAl?$AAi?$AAd?$AAa?$AAt?$AAe?$AA_?$AAp?$AAa?$AAr?$AAa?$AAm?$AA_?$AAr?$AAe?$AAu?$AAs?$AAe?$AA?$CI?$AA?$CG?$AAp?$AAo?$AAs?$AA_?$AAv?$AAa?$AAl?$AAu@ 00000001800d6550     LIBCMTD:outputp.obj
 0002:0000e5e0       ??_C@_1DG@GOHGNKHE@?$AAp?$AAa?$AAs?$AAs?$AA?5?$AA?$DN?$AA?$DN?$AA?5?$AAF?$AAO?$AAR?$AAM?$AAA?$AAT?$AA_?$AAO?$AAU?$AAT?$AAP?$AAU?$AAT?$AA_?$AAP?$AAA?$AAS?$AAS?$AA?$AA@ 00000001800d65e0     LIBCMTD:outputp.obj
 0002:0000e620       ??_C@_1IK@NBGDDCBN@?$AA_?$AAt?$AAv?$AAa?$AAl?$AAi?$AAd?$AAa?$AAt?$AAe?$AA_?$AAp?$AAa?$AAr?$AAa?$AAm?$AA_?$AAr?$AAe?$AAu?$AAs?$AAe?$AA?$CI?$AA?$CG?$AAp?$AAo?$AAs?$AA_?$AAv?$AAa?$AAl?$AAu@ 00000001800d6620     LIBCMTD:outputp.obj
 0002:0000e6b0       ??_C@_1JC@OACKELNN@?$AA_?$AAt?$AAv?$AAa?$AAl?$AAi?$AAd?$AAa?$AAt?$AAe?$AA_?$AAp?$AAa?$AAr?$AAa?$AAm?$AA_?$AAr?$AAe?$AAu?$AAs?$AAe?$AA?$CI?$AA?$CG?$AAp?$AAo?$AAs?$AA_?$AAv?$AAa?$AAl?$AAu@ 00000001800d66b0     LIBCMTD:outputp.obj
 0002:0000e750       ??_C@_1FK@BCPANIEK@?$AA?$CI?$AA?$CC?$AAM?$AAi?$AAs?$AAs?$AAi?$AAn?$AAg?$AA?5?$AAp?$AAo?$AAs?$AAi?$AAt?$AAi?$AAo?$AAn?$AA?5?$AAi?$AAn?$AA?5?$AAt?$AAh?$AAe?$AA?5?$AAf?$AAo?$AAr?$AAm?$AAa?$AAt@ 00000001800d6750     LIBCMTD:outputp.obj
 0002:0000e7b0       ??_C@_1FA@CKEACION@?$AAf?$AA?3?$AA?2?$AAd?$AAd?$AA?2?$AAv?$AAc?$AAt?$AAo?$AAo?$AAl?$AAs?$AA?2?$AAc?$AAr?$AAt?$AA?2?$AAc?$AAr?$AAt?$AAw?$AA3?$AA2?$AA?2?$AAs?$AAt?$AAd?$AAi?$AAo?$AA?2?$AAf@ 00000001800d67b0     LIBCMTD:fileno.obj
 0002:0000e800       ??_C@_1BA@JGHIEKKM@?$AA_?$AAf?$AAi?$AAl?$AAe?$AAn?$AAo?$AA?$AA@ 00000001800d6800     LIBCMTD:fileno.obj
 0002:0000e810       ??_C@_1FO@LPCLHKGE@?$AA?$CI?$AAf?$AAh?$AA?5?$AA?$DO?$AA?$DN?$AA?5?$AA0?$AA?5?$AA?$CG?$AA?$CG?$AA?5?$AA?$CI?$AAu?$AAn?$AAs?$AAi?$AAg?$AAn?$AAe?$AAd?$AA?$CJ?$AAf?$AAh?$AA?5?$AA?$DM?$AA?5?$AA?$CI?$AAu?$AAn?$AAs?$AAi@ 00000001800d6810     LIBCMTD:isatty.obj
 0002:0000e870       ??_C@_1FA@NFCHPDNG@?$AAf?$AA?3?$AA?2?$AAd?$AAd?$AA?2?$AAv?$AAc?$AAt?$AAo?$AAo?$AAl?$AAs?$AA?2?$AAc?$AAr?$AAt?$AA?2?$AAc?$AAr?$AAt?$AAw?$AA3?$AA2?$AA?2?$AAl?$AAo?$AAw?$AAi?$AAo?$AA?2?$AAi@ 00000001800d6870     LIBCMTD:isatty.obj
 0002:0000e8c0       ??_C@_1BA@LEBDGIHM@?$AA_?$AAi?$AAs?$AAa?$AAt?$AAt?$AAy?$AA?$AA@ 00000001800d68c0     LIBCMTD:isatty.obj
 0002:0000e8d0       ??_C@_1FC@OBEHAONE@?$AAf?$AA?3?$AA?2?$AAd?$AAd?$AA?2?$AAv?$AAc?$AAt?$AAo?$AAo?$AAl?$AAs?$AA?2?$AAc?$AAr?$AAt?$AA?2?$AAc?$AAr?$AAt?$AAw?$AA3?$AA2?$AA?2?$AAs?$AAt?$AAd?$AAi?$AAo?$AA?2?$AA_@ 00000001800d68d0     LIBCMTD:_flsbuf.obj
 0002:0000e930       ??_C@_1HO@MLMGPAFH@?$AA?$CI?$AA?$CC?$AAi?$AAn?$AAc?$AAo?$AAn?$AAs?$AAi?$AAs?$AAt?$AAe?$AAn?$AAt?$AA?5?$AAI?$AAO?$AAB?$AA?5?$AAf?$AAi?$AAe?$AAl?$AAd?$AAs?$AA?$CC?$AA?0?$AA?5?$AAs?$AAt?$AAr?$AAe@ 00000001800d6930     LIBCMTD:_flsbuf.obj
 0002:0000e9b0       ??_C@_1CO@HFMIILNF@?$AAs?$AAi?$AAz?$AAe?$AAI?$AAn?$AAB?$AAy?$AAt?$AAe?$AAs?$AA?5?$AA?$DM?$AA?$DN?$AA?5?$AAI?$AAN?$AAT?$AA_?$AAM?$AAA?$AAX?$AA?$AA@ 00000001800d69b0     LIBCMTD:wctomb.obj
 0002:0000e9e0       ??_C@_1FE@GKMDCPPB@?$AAf?$AA?3?$AA?2?$AAd?$AAd?$AA?2?$AAv?$AAc?$AAt?$AAo?$AAo?$AAl?$AAs?$AA?2?$AAc?$AAr?$AAt?$AA?2?$AAc?$AAr?$AAt?$AAw?$AA3?$AA2?$AA?2?$AAc?$AAo?$AAn?$AAv?$AAe?$AAr?$AAt@ 00000001800d69e0     LIBCMTD:wctomb.obj
 0002:0000ea38       ??_C@_1BI@IEADNOHF@?$AA_?$AAw?$AAc?$AAt?$AAo?$AAm?$AAb?$AA_?$AAs?$AA_?$AAl?$AA?$AA@ 00000001800d6a38     LIBCMTD:wctomb.obj
 0002:0000ea50       ??_C@_1DA@HPBFKMEB@?$AA?$CI?$AA?$CC?$AAB?$AAu?$AAf?$AAf?$AAe?$AAr?$AA?5?$AAt?$AAo?$AAo?$AA?5?$AAs?$AAm?$AAa?$AAl?$AAl?$AA?$CC?$AA?0?$AA?5?$AA0?$AA?$CJ?$AA?$AA@ 00000001800d6a50     LIBCMTD:wctomb.obj
 0002:0000ea80       ??_C@_1FA@EDIAPAPE@?$AAf?$AA?3?$AA?2?$AAd?$AAd?$AA?2?$AAv?$AAc?$AAt?$AAo?$AAo?$AAl?$AAs?$AA?2?$AAc?$AAr?$AAt?$AA?2?$AAc?$AAr?$AAt?$AAw?$AA3?$AA2?$AA?2?$AAh?$AA?2?$AAt?$AAc?$AAs?$AAc?$AAa@ 00000001800d6a80     LIBCMTD:wcscat_s.obj
 0002:0000ead0       ??_C@_1BC@PLIEPKPJ@?$AAw?$AAc?$AAs?$AAc?$AAa?$AAt?$AA_?$AAs?$AA?$AA@ 00000001800d6ad0     LIBCMTD:wcscat_s.obj
 0002:0000eae8       ??_C@_1DM@FHLMIEG@?$AAS?$AAt?$AAr?$AAi?$AAn?$AAg?$AA?5?$AAi?$AAs?$AA?5?$AAn?$AAo?$AAt?$AA?5?$AAn?$AAu?$AAl?$AAl?$AA?5?$AAt?$AAe?$AAr?$AAm?$AAi?$AAn?$AAa?$AAt?$AAe?$AAd?$AA?$AA@ 00000001800d6ae8     LIBCMTD:wcscat_s.obj
 0002:0000eb30       ??_C@_1FA@MJKDNFFB@?$AA?$CI?$AAL?$AA?$CC?$AAS?$AAt?$AAr?$AAi?$AAn?$AAg?$AA?5?$AAi?$AAs?$AA?5?$AAn?$AAo?$AAt?$AA?5?$AAn?$AAu?$AAl?$AAl?$AA?5?$AAt?$AAe?$AAr?$AAm?$AAi?$AAn?$AAa?$AAt?$AAe?$AAd@ 00000001800d6b30     LIBCMTD:wcscat_s.obj
 0002:0000eb80       ??_C@_1FC@LFLBLJJB@?$AAf?$AA?3?$AA?2?$AAd?$AAd?$AA?2?$AAv?$AAc?$AAt?$AAo?$AAo?$AAl?$AAs?$AA?2?$AAc?$AAr?$AAt?$AA?2?$AAc?$AAr?$AAt?$AAw?$AA3?$AA2?$AA?2?$AAh?$AA?2?$AAt?$AAc?$AAs?$AAn?$AAc@ 00000001800d6b80     LIBCMTD:wcsncpy_s.obj
 0002:0000ebd8       ??_C@_1BE@PMMBFFCC@?$AAw?$AAc?$AAs?$AAn?$AAc?$AAp?$AAy?$AA_?$AAs?$AA?$AA@ 00000001800d6bd8     LIBCMTD:wcsncpy_s.obj
 0002:0000ebf0       ??_C@_1DE@BCNCAIK@?$AA?$CI?$AA?$CC?$AAI?$AAn?$AAv?$AAa?$AAl?$AAi?$AAd?$AA?5?$AAe?$AAr?$AAr?$AAo?$AAr?$AA_?$AAm?$AAo?$AAd?$AAe?$AA?$CC?$AA?0?$AA?5?$AA0?$AA?$CJ?$AA?$AA@ 00000001800d6bf0     LIBCMTD:errmode.obj
 0002:0000ec30       ??_C@_1FA@PBBGNIFD@?$AAf?$AA?3?$AA?2?$AAd?$AAd?$AA?2?$AAv?$AAc?$AAt?$AAo?$AAo?$AAl?$AAs?$AA?2?$AAc?$AAr?$AAt?$AA?2?$AAc?$AAr?$AAt?$AAw?$AA3?$AA2?$AA?2?$AAm?$AAi?$AAs?$AAc?$AA?2?$AAe?$AAr@ 00000001800d6c30     LIBCMTD:errmode.obj
 0002:0000ec80       ??_C@_1CA@LFDHAMEM@?$AA_?$AAs?$AAe?$AAt?$AA_?$AAe?$AAr?$AAr?$AAo?$AAr?$AA_?$AAm?$AAo?$AAd?$AAe?$AA?$AA@ 00000001800d6c80     LIBCMTD:errmode.obj
 0002:0000eca0       ??_C@_1BE@NDMJHJJG@?$AAs?$AAt?$AAr?$AAn?$AAc?$AAp?$AAy?$AA_?$AAs?$AA?$AA@ 00000001800d6ca0     LIBCMTD:strncpy_s.obj
 0002:0000ecc0       ??_C@_1FE@KNPCCODH@?$AA?$CI?$AA?$CC?$AAC?$AAo?$AAr?$AAr?$AAu?$AAp?$AAt?$AAe?$AAd?$AA?5?$AAp?$AAo?$AAi?$AAn?$AAt?$AAe?$AAr?$AA?5?$AAp?$AAa?$AAs?$AAs?$AAe?$AAd?$AA?5?$AAt?$AAo?$AA?5?$AA_?$AAf@ 00000001800d6cc0     LIBCMTD:a_loc.obj
 0002:0000ed20       ??_C@_1EI@DKDOCKPJ@?$AAf?$AA?3?$AA?2?$AAd?$AAd?$AA?2?$AAv?$AAc?$AAt?$AAo?$AAo?$AAl?$AAs?$AA?2?$AAc?$AAr?$AAt?$AA?2?$AAc?$AAr?$AAt?$AAw?$AA3?$AA2?$AA?2?$AAh?$AA?2?$AAm?$AAa?$AAl?$AAl?$AAo@ 00000001800d6d20     LIBCMTD:a_loc.obj
 0002:0000ed70       LcidToLocaleNameTable      00000001800d6d70     LIBCMTD:winapinls.obj
 0002:0000fbb0       LocaleNameToIndexTable     00000001800d7bb0     LIBCMTD:winapinls.obj
 0002:000109f0       ??_C@_15EMKDOKLE@?$AAa?$AAr?$AA?$AA@ 00000001800d89f0     LIBCMTD:winapinls.obj
 0002:000109f8       ??_C@_15KNPADPLH@?$AAb?$AAg?$AA?$AA@ 00000001800d89f8     LIBCMTD:winapinls.obj
 0002:00010a00       ??_C@_15EDMHLDMO@?$AAc?$AAa?$AA?$AA@ 00000001800d8a00     LIBCMTD:winapinls.obj
 0002:00010a08       ??_C@_1O@BPEAJADD@?$AAz?$AAh?$AA?9?$AAC?$AAH?$AAS?$AA?$AA@ 00000001800d8a08     LIBCMTD:winapinls.obj
 0002:00010a18       ??_C@_15LJNHCMNK@?$AAc?$AAs?$AA?$AA@ 00000001800d8a18     LIBCMTD:winapinls.obj
 0002:00010a20       ??_C@_15FOMCIDHG@?$AAd?$AAa?$AA?$AA@ 00000001800d8a20     LIBCMTD:winapinls.obj
 0002:00010a28       ??_C@_15NBKABECB@?$AAd?$AAe?$AA?$AA@ 00000001800d8a28     LIBCMTD:winapinls.obj
 0002:00010a30       ??_C@_15GHPEIIAO@?$AAe?$AAl?$AA?$AA@ 00000001800d8a30     LIBCMTD:winapinls.obj
 0002:00010a38       ??_C@_15MNPNEAIF@?$AAe?$AAn?$AA?$AA@ 00000001800d8a38     LIBCMTD:winapinls.obj
 0002:00010a40       ??_C@_15GPIOMPMH@?$AAe?$AAs?$AA?$AA@ 00000001800d8a40     LIBCMTD:winapinls.obj
 0002:00010a48       ??_C@_15NGLOAKJC@?$AAf?$AAi?$AA?$AA@ 00000001800d8a48     LIBCMTD:winapinls.obj
 0002:00010a50       ??_C@_15FBKGNKAM@?$AAf?$AAr?$AA?$AA@ 00000001800d8a50     LIBCMTD:winapinls.obj
 0002:00010a58       ??_C@_15KGGCNEFK@?$AAh?$AAe?$AA?$AA@ 00000001800d8a58     LIBCMTD:winapinls.obj
 0002:00010a60       ??_C@_15PGHLIDMF@?$AAh?$AAu?$AA?$AA@ 00000001800d8a60     LIBCMTD:winapinls.obj
 0002:00010a68       ??_C@_15BIEMAPLM@?$AAi?$AAs?$AA?$AA@ 00000001800d8a68     LIBCMTD:winapinls.obj
 0002:00010a70       ??_C@_15IFJLDHAF@?$AAi?$AAt?$AA?$AA@ 00000001800d8a70     LIBCMTD:winapinls.obj
 0002:00010a78       ??_C@_15GEMIOCAG@?$AAj?$AAa?$AA?$AA@ 00000001800d8a78     LIBCMTD:winapinls.obj
 0002:00010a80       ??_C@_15EPELEGJA@?$AAk?$AAo?$AA?$AA@ 00000001800d8a80     LIBCMTD:winapinls.obj
 0002:00010a88       ??_C@_15NDDHIMN@?$AAn?$AAl?$AA?$AA@ 00000001800d8a88     LIBCMTD:winapinls.obj
 0002:00010a90       ??_C@_15BPIGNHCD@?$AAn?$AAo?$AA?$AA@ 00000001800d8a90     LIBCMTD:winapinls.obj
 0002:00010a98       ??_C@_15DEOPBLCG@?$AAp?$AAl?$AA?$AA@ 00000001800d8a98     LIBCMTD:winapinls.obj
 0002:00010aa0       ??_C@_15KBECGEFG@?$AAp?$AAt?$AA?$AA@ 00000001800d8aa0     LIBCMTD:winapinls.obj
 0002:00010aa8       ??_C@_15GLJCBFMD@?$AAr?$AAo?$AA?$AA@ 00000001800d8aa8     LIBCMTD:winapinls.obj
 0002:00010ab0       ??_C@_15FEDGKCDI@?$AAr?$AAu?$AA?$AA@ 00000001800d8ab0     LIBCMTD:winapinls.obj
 0002:00010ab8       ??_C@_15GLKMLLHM@?$AAh?$AAr?$AA?$AA@ 00000001800d8ab8     LIBCMTD:winapinls.obj
 0002:00010ac0       ??_C@_15CPKMFBDB@?$AAs?$AAk?$AA?$AA@ 00000001800d8ac0     LIBCMTD:winapinls.obj
 0002:00010ac8       ??_C@_15BAAIOGMK@?$AAs?$AAq?$AA?$AA@ 00000001800d8ac8     LIBCMTD:winapinls.obj
 0002:00010ad0       ??_C@_15INNPNOHD@?$AAs?$AAv?$AA?$AA@ 00000001800d8ad0     LIBCMTD:winapinls.obj
 0002:00010ad8       ??_C@_15CABMMOGH@?$AAt?$AAh?$AA?$AA@ 00000001800d8ad8     LIBCMTD:winapinls.obj
 0002:00010ae0       ??_C@_15BPLIHJJM@?$AAt?$AAr?$AA?$AA@ 00000001800d8ae0     LIBCMTD:winapinls.obj
 0002:00010ae8       ??_C@_15NEOEKKDJ@?$AAu?$AAr?$AA?$AA@ 00000001800d8ae8     LIBCMTD:winapinls.obj
 0002:00010af0       ??_C@_15NFICGAJK@?$AAi?$AAd?$AA?$AA@ 00000001800d8af0     LIBCMTD:winapinls.obj
 0002:00010af8       ??_C@_15PJPFLCCM@?$AAu?$AAk?$AA?$AA@ 00000001800d8af8     LIBCMTD:winapinls.obj
 0002:00010b00       ??_C@_15HPJPHDM@?$AAb?$AAe?$AA?$AA@ 00000001800d8b00     LIBCMTD:winapinls.obj
 0002:00010b08       ??_C@_15LCHLGJII@?$AAs?$AAl?$AA?$AA@ 00000001800d8b08     LIBCMTD:winapinls.obj
 0002:00010b10       ??_C@_15PCFJPHHO@?$AAe?$AAt?$AA?$AA@ 00000001800d8b10     LIBCMTD:winapinls.obj
 0002:00010b18       ??_C@_15HPFPGODN@?$AAl?$AAv?$AA?$AA@ 00000001800d8b18     LIBCMTD:winapinls.obj
 0002:00010b20       ??_C@_15NFFGKGLG@?$AAl?$AAt?$AA?$AA@ 00000001800d8b20     LIBCMTD:winapinls.obj
 0002:00010b28       ??_C@_15BDAKCCHN@?$AAf?$AAa?$AA?$AA@ 00000001800d8b28     LIBCMTD:winapinls.obj
 0002:00010b30       ??_C@_15NFGIAIAJ@?$AAv?$AAi?$AA?$AA@ 00000001800d8b30     LIBCMTD:winapinls.obj
 0002:00010b38       ??_C@_15LMKNDMHN@?$AAh?$AAy?$AA?$AA@ 00000001800d8b38     LIBCMTD:winapinls.obj
 0002:00010b40       ??_C@_15IJBHMCFL@?$AAa?$AAz?$AA?$AA@ 00000001800d8b40     LIBCMTD:winapinls.obj
 0002:00010b48       ??_C@_15EKOFJABL@?$AAe?$AAu?$AA?$AA@ 00000001800d8b48     LIBCMTD:winapinls.obj
 0002:00010b50       ??_C@_15BGHADCNK@?$AAm?$AAk?$AA?$AA@ 00000001800d8b50     LIBCMTD:winapinls.obj
 0002:00010b58       ??_C@_15JDNICKHM@?$AAa?$AAf?$AA?$AA@ 00000001800d8b58     LIBCMTD:winapinls.obj
 0002:00010b60       ??_C@_15KPJEDBKD@?$AAk?$AAa?$AA?$AA@ 00000001800d8b60     LIBCMTD:winapinls.obj
 0002:00010b68       ??_C@_15PDNFFFEO@?$AAf?$AAo?$AA?$AA@ 00000001800d8b68     LIBCMTD:winapinls.obj
 0002:00010b70       ??_C@_15OMLEGLOC@?$AAh?$AAi?$AA?$AA@ 00000001800d8b70     LIBCMTD:winapinls.obj
 0002:00010b78       ??_C@_15IDNNENKK@?$AAm?$AAs?$AA?$AA@ 00000001800d8b78     LIBCMTD:winapinls.obj
 0002:00010b80       ??_C@_15MACJNBMH@?$AAk?$AAk?$AA?$AA@ 00000001800d8b80     LIBCMTD:winapinls.obj
 0002:00010b88       ??_C@_15DKDJEOND@?$AAk?$AAy?$AA?$AA@ 00000001800d8b88     LIBCMTD:winapinls.obj
 0002:00010b90       ??_C@_15DFGDLJBG@?$AAs?$AAw?$AA?$AA@ 00000001800d8b90     LIBCMTD:winapinls.obj
 0002:00010b98       ??_C@_15BBFAICNG@?$AAu?$AAz?$AA?$AA@ 00000001800d8b98     LIBCMTD:winapinls.obj
 0002:00010ba0       ??_C@_15DKNDCGEA@?$AAt?$AAt?$AA?$AA@ 00000001800d8ba0     LIBCMTD:winapinls.obj
 0002:00010ba8       ??_C@_15MGIFMDPL@?$AAp?$AAa?$AA?$AA@ 00000001800d8ba8     LIBCMTD:winapinls.obj
 0002:00010bb0       ??_C@_15HCNDBBA@?$AAg?$AAu?$AA?$AA@ 00000001800d8bb0     LIBCMTD:winapinls.obj
 0002:00010bb8       ??_C@_15FNBEIBON@?$AAt?$AAa?$AA?$AA@ 00000001800d8bb8     LIBCMTD:winapinls.obj
 0002:00010bc0       ??_C@_15NCHGBGLK@?$AAt?$AAe?$AA?$AA@ 00000001800d8bc0     LIBCMTD:winapinls.obj
 0002:00010bc8       ??_C@_15PHPHCBPF@?$AAk?$AAn?$AA?$AA@ 00000001800d8bc8     LIBCMTD:winapinls.obj
 0002:00010bd0       ??_C@_15DLGBCKMP@?$AAm?$AAr?$AA?$AA@ 00000001800d8bd0     LIBCMTD:winapinls.obj
 0002:00010bd8       ??_C@_15EABBLBFF@?$AAs?$AAa?$AA?$AA@ 00000001800d8bd8     LIBCMTD:winapinls.obj
 0002:00010be0       ??_C@_15CBKOMCOI@?$AAm?$AAn?$AA?$AA@ 00000001800d8be0     LIBCMTD:winapinls.obj
 0002:00010be8       ??_C@_15CKDMCJAF@?$AAg?$AAl?$AA?$AA@ 00000001800d8be8     LIBCMTD:winapinls.obj
 0002:00010bf0       ??_C@_17CNJFBPG@?$AAk?$AAo?$AAk?$AA?$AA@ 00000001800d8bf0     LIBCMTD:winapinls.obj
 0002:00010bf8       ??_C@_17FFBJICPL@?$AAs?$AAy?$AAr?$AA?$AA@ 00000001800d8bf8     LIBCMTD:winapinls.obj
 0002:00010c00       ??_C@_17KPNDCPAF@?$AAd?$AAi?$AAv?$AA?$AA@ 00000001800d8c00     LIBCMTD:winapinls.obj
 0002:00010c08       ??_C@_1M@OKAHONE@?$AAa?$AAr?$AA?9?$AAS?$AAA?$AA?$AA@ 00000001800d8c08     LIBCMTD:winapinls.obj
 0002:00010c18       ??_C@_1M@FFFIGIGK@?$AAb?$AAg?$AA?9?$AAB?$AAG?$AA?$AA@ 00000001800d8c18     LIBCMTD:winapinls.obj
 0002:00010c28       ??_C@_1M@BJNKEDC@?$AAc?$AAa?$AA?9?$AAE?$AAS?$AA?$AA@ 00000001800d8c28     LIBCMTD:winapinls.obj
 0002:00010c38       ??_C@_1M@IJJHFJHA@?$AAc?$AAs?$AA?9?$AAC?$AAZ?$AA?$AA@ 00000001800d8c38     LIBCMTD:winapinls.obj
 0002:00010c48       ??_C@_1M@CLPEOBGI@?$AAd?$AAa?$AA?9?$AAD?$AAK?$AA?$AA@ 00000001800d8c48     LIBCMTD:winapinls.obj
 0002:00010c58       ??_C@_1M@MCMADGCB@?$AAd?$AAe?$AA?9?$AAD?$AAE?$AA?$AA@ 00000001800d8c58     LIBCMTD:winapinls.obj
 0002:00010c68       ??_C@_1M@OOCKEMAM@?$AAe?$AAl?$AA?9?$AAG?$AAR?$AA?$AA@ 00000001800d8c68     LIBCMTD:winapinls.obj
 0002:00010c78       ??_C@_1M@DDNJFGID@?$AAf?$AAi?$AA?9?$AAF?$AAI?$AA?$AA@ 00000001800d8c78     LIBCMTD:winapinls.obj
 0002:00010c88       ??_C@_1M@GLIPPMAC@?$AAf?$AAr?$AA?9?$AAF?$AAR?$AA?$AA@ 00000001800d8c88     LIBCMTD:winapinls.obj
 0002:00010c98       ??_C@_1M@GFMCHPE@?$AAh?$AAe?$AA?9?$AAI?$AAL?$AA?$AA@ 00000001800d8c98     LIBCMTD:winapinls.obj
 0002:00010ca8       ??_C@_1M@MHLPGNKM@?$AAh?$AAu?$AA?9?$AAH?$AAU?$AA?$AA@ 00000001800d8ca8     LIBCMTD:winapinls.obj
 0002:00010cb8       ??_C@_1M@LPDDNNPN@?$AAi?$AAs?$AA?9?$AAI?$AAS?$AA?$AA@ 00000001800d8cb8     LIBCMTD:winapinls.obj
 0002:00010cc8       ??_C@_1M@MADIPODN@?$AAi?$AAt?$AA?9?$AAI?$AAT?$AA?$AA@ 00000001800d8cc8     LIBCMTD:winapinls.obj
 0002:00010cd8       ??_C@_1M@IHBJJGG@?$AAn?$AAl?$AA?9?$AAN?$AAL?$AA?$AA@ 00000001800d8cd8     LIBCMTD:winapinls.obj
 0002:00010ce8       ??_C@_1M@EANAGDL@?$AAn?$AAb?$AA?9?$AAN?$AAO?$AA?$AA@ 00000001800d8ce8     LIBCMTD:winapinls.obj
 0002:00010cf8       ??_C@_1M@NEIEMEGP@?$AAp?$AAl?$AA?9?$AAP?$AAL?$AA?$AA@ 00000001800d8cf8     LIBCMTD:winapinls.obj
 0002:00010d08       ??_C@_1M@BOCFIGEP@?$AAp?$AAt?$AA?9?$AAB?$AAR?$AA?$AA@ 00000001800d8d08     LIBCMTD:winapinls.obj
 0002:00010d18       ??_C@_1M@IMPFOPBG@?$AAr?$AAo?$AA?9?$AAR?$AAO?$AA?$AA@ 00000001800d8d18     LIBCMTD:winapinls.obj
 0002:00010d28       ??_C@_1M@IDNNEJMM@?$AAr?$AAu?$AA?9?$AAR?$AAU?$AA?$AA@ 00000001800d8d28     LIBCMTD:winapinls.obj
 0002:00010d38       ??_C@_1M@LILEEOGM@?$AAh?$AAr?$AA?9?$AAH?$AAR?$AA?$AA@ 00000001800d8d38     LIBCMTD:winapinls.obj
 0002:00010d48       ??_C@_1M@FKIFEHPB@?$AAs?$AAk?$AA?9?$AAS?$AAK?$AA?$AA@ 00000001800d8d48     LIBCMTD:winapinls.obj
 0002:00010d58       ??_C@_1M@LJMAMNPJ@?$AAs?$AAq?$AA?9?$AAA?$AAL?$AA?$AA@ 00000001800d8d58     LIBCMTD:winapinls.obj
 0002:00010d68       ??_C@_1M@GIAKDKJK@?$AAs?$AAv?$AA?9?$AAS?$AAE?$AA?$AA@ 00000001800d8d68     LIBCMTD:winapinls.obj
 0002:00010d78       ??_C@_1M@MKJKIKCL@?$AAt?$AAh?$AA?9?$AAT?$AAH?$AA?$AA@ 00000001800d8d78     LIBCMTD:winapinls.obj
 0002:00010d88       ??_C@_1M@MFLCCMPB@?$AAt?$AAr?$AA?9?$AAT?$AAR?$AA?$AA@ 00000001800d8d88     LIBCMTD:winapinls.obj
 0002:00010d98       ??_C@_1M@OIJHDKJN@?$AAu?$AAr?$AA?9?$AAP?$AAK?$AA?$AA@ 00000001800d8d98     LIBCMTD:winapinls.obj
 0002:00010da8       ??_C@_1M@LHIPCIEK@?$AAi?$AAd?$AA?9?$AAI?$AAD?$AA?$AA@ 00000001800d8da8     LIBCMTD:winapinls.obj
 0002:00010db8       ??_C@_1M@MFMOBGI@?$AAu?$AAk?$AA?9?$AAU?$AAA?$AA?$AA@ 00000001800d8db8     LIBCMTD:winapinls.obj
 0002:00010dc8       ??_C@_1M@OBGLJIPL@?$AAb?$AAe?$AA?9?$AAB?$AAY?$AA?$AA@ 00000001800d8dc8     LIBCMTD:winapinls.obj
 0002:00010dd8       ??_C@_1M@BCFAJEAD@?$AAs?$AAl?$AA?9?$AAS?$AAI?$AA?$AA@ 00000001800d8dd8     LIBCMTD:winapinls.obj
 0002:00010de8       ??_C@_1M@FKFFEDDN@?$AAe?$AAt?$AA?9?$AAE?$AAE?$AA?$AA@ 00000001800d8de8     LIBCMTD:winapinls.obj
 0002:00010df8       ??_C@_1M@KGKKAACI@?$AAl?$AAv?$AA?9?$AAL?$AAV?$AA?$AA@ 00000001800d8df8     LIBCMTD:winapinls.obj
 0002:00010e08       ??_C@_1M@IFGBIJO@?$AAl?$AAt?$AA?9?$AAL?$AAT?$AA?$AA@ 00000001800d8e08     LIBCMTD:winapinls.obj
 0002:00010e18       ??_C@_1M@FGEAHEDM@?$AAf?$AAa?$AA?9?$AAI?$AAR?$AA?$AA@ 00000001800d8e18     LIBCMTD:winapinls.obj
 0002:00010e28       ??_C@_1M@KBMAIBFN@?$AAv?$AAi?$AA?9?$AAV?$AAN?$AA?$AA@ 00000001800d8e28     LIBCMTD:winapinls.obj
 0002:00010e38       ??_C@_1M@GPCBKDJK@?$AAh?$AAy?$AA?9?$AAA?$AAM?$AA?$AA@ 00000001800d8e38     LIBCMTD:winapinls.obj
 0002:00010e48       ??_C@_1BG@BECMDDJB@?$AAa?$AAz?$AA?9?$AAA?$AAZ?$AA?9?$AAL?$AAa?$AAt?$AAn?$AA?$AA@ 00000001800d8e48     LIBCMTD:winapinls.obj
 0002:00010e60       ??_C@_1M@MAOFCAEA@?$AAe?$AAu?$AA?9?$AAE?$AAS?$AA?$AA@ 00000001800d8e60     LIBCMTD:winapinls.obj
 0002:00010e70       ??_C@_1M@IGHABKPI@?$AAm?$AAk?$AA?9?$AAM?$AAK?$AA?$AA@ 00000001800d8e70     LIBCMTD:winapinls.obj
 0002:00010e80       ??_C@_1M@IAIGNEJG@?$AAt?$AAn?$AA?9?$AAZ?$AAA?$AA?$AA@ 00000001800d8e80     LIBCMTD:winapinls.obj
 0002:00010e90       ??_C@_1M@IIJCOJFA@?$AAx?$AAh?$AA?9?$AAZ?$AAA?$AA?$AA@ 00000001800d8e90     LIBCMTD:winapinls.obj
 0002:00010ea0       ??_C@_1M@LGPJHNJH@?$AAz?$AAu?$AA?9?$AAZ?$AAA?$AA?$AA@ 00000001800d8ea0     LIBCMTD:winapinls.obj
 0002:00010eb0       ??_C@_1M@HOKAOIO@?$AAa?$AAf?$AA?9?$AAZ?$AAA?$AA?$AA@ 00000001800d8eb0     LIBCMTD:winapinls.obj
 0002:00010ec0       ??_C@_1M@DPCLHLIE@?$AAk?$AAa?$AA?9?$AAG?$AAE?$AA?$AA@ 00000001800d8ec0     LIBCMTD:winapinls.obj
 0002:00010ed0       ??_C@_1M@BLKMHJBI@?$AAf?$AAo?$AA?9?$AAF?$AAO?$AA?$AA@ 00000001800d8ed0     LIBCMTD:winapinls.obj
 0002:00010ee0       ??_C@_1M@LGGJAPPB@?$AAh?$AAi?$AA?9?$AAI?$AAN?$AA?$AA@ 00000001800d8ee0     LIBCMTD:winapinls.obj
 0002:00010ef0       ??_C@_1M@FIKPIHFE@?$AAm?$AAt?$AA?9?$AAM?$AAT?$AA?$AA@ 00000001800d8ef0     LIBCMTD:winapinls.obj
 0002:00010f00       ??_C@_1M@HEGGPBFA@?$AAs?$AAe?$AA?9?$AAN?$AAO?$AA?$AA@ 00000001800d8f00     LIBCMTD:winapinls.obj
 0002:00010f10       ??_C@_1M@EIBJEEPA@?$AAm?$AAs?$AA?9?$AAM?$AAY?$AA?$AA@ 00000001800d8f10     LIBCMTD:winapinls.obj
 0002:00010f20       ??_C@_1M@FHLBGMPP@?$AAk?$AAk?$AA?9?$AAK?$AAZ?$AA?$AA@ 00000001800d8f20     LIBCMTD:winapinls.obj
 0002:00010f30       ??_C@_1M@NGJJLCGI@?$AAk?$AAy?$AA?9?$AAK?$AAG?$AA?$AA@ 00000001800d8f30     LIBCMTD:winapinls.obj
 0002:00010f40       ??_C@_1M@GIENNBFC@?$AAs?$AAw?$AA?9?$AAK?$AAE?$AA?$AA@ 00000001800d8f40     LIBCMTD:winapinls.obj
 0002:00010f50       ??_C@_1BG@NDGMJIMJ@?$AAu?$AAz?$AA?9?$AAU?$AAZ?$AA?9?$AAL?$AAa?$AAt?$AAn?$AA?$AA@ 00000001800d8f50     LIBCMTD:winapinls.obj
 0002:00010f68       ??_C@_1M@IDCCIHBC@?$AAt?$AAt?$AA?9?$AAR?$AAU?$AA?$AA@ 00000001800d8f68     LIBCMTD:winapinls.obj
 0002:00010f78       ??_C@_1M@LOICPMOJ@?$AAb?$AAn?$AA?9?$AAI?$AAN?$AA?$AA@ 00000001800d8f78     LIBCMTD:winapinls.obj
 0002:00010f88       ??_C@_1M@KPKKNEAH@?$AAp?$AAa?$AA?9?$AAI?$AAN?$AA?$AA@ 00000001800d8f88     LIBCMTD:winapinls.obj
 0002:00010f98       ??_C@_1M@PJGPPBOG@?$AAg?$AAu?$AA?9?$AAI?$AAN?$AA?$AA@ 00000001800d8f98     LIBCMTD:winapinls.obj
 0002:00010fa8       ??_C@_1M@KMKMOPHI@?$AAt?$AAa?$AA?9?$AAI?$AAN?$AA?$AA@ 00000001800d8fa8     LIBCMTD:winapinls.obj
 0002:00010fb8       ??_C@_1M@KFEHEPAC@?$AAt?$AAe?$AA?9?$AAI?$AAN?$AA?$AA@ 00000001800d8fb8     LIBCMTD:winapinls.obj
 0002:00010fc8       ??_C@_1M@CDCLMGHI@?$AAk?$AAn?$AA?9?$AAI?$AAN?$AA?$AA@ 00000001800d8fc8     LIBCMTD:winapinls.obj
 0002:00010fd8       ??_C@_1M@MIODLDKF@?$AAm?$AAl?$AA?9?$AAI?$AAN?$AA?$AA@ 00000001800d8fd8     LIBCMTD:winapinls.obj
 0002:00010fe8       ??_C@_1M@PBIEACPO@?$AAm?$AAr?$AA?9?$AAI?$AAN?$AA?$AA@ 00000001800d8fe8     LIBCMTD:winapinls.obj
 0002:00010ff8       ??_C@_1M@NIDEAGPH@?$AAs?$AAa?$AA?9?$AAI?$AAN?$AA?$AA@ 00000001800d8ff8     LIBCMTD:winapinls.obj
 0002:00011008       ??_C@_1M@FHIHCBIO@?$AAm?$AAn?$AA?9?$AAM?$AAN?$AA?$AA@ 00000001800d9008     LIBCMTD:winapinls.obj
 0002:00011018       ??_C@_1M@JAIJPENP@?$AAc?$AAy?$AA?9?$AAG?$AAB?$AA?$AA@ 00000001800d9018     LIBCMTD:winapinls.obj
 0002:00011028       ??_C@_1M@PHGFBEPN@?$AAg?$AAl?$AA?9?$AAE?$AAS?$AA?$AA@ 00000001800d9028     LIBCMTD:winapinls.obj
 0002:00011038       ??_C@_1O@KPIPDNCP@?$AAk?$AAo?$AAk?$AA?9?$AAI?$AAN?$AA?$AA@ 00000001800d9038     LIBCMTD:winapinls.obj
 0002:00011048       ??_C@_1O@KNHJLDJA@?$AAs?$AAy?$AAr?$AA?9?$AAS?$AAY?$AA?$AA@ 00000001800d9048     LIBCMTD:winapinls.obj
 0002:00011058       ??_C@_1O@MKEKBLAH@?$AAd?$AAi?$AAv?$AA?9?$AAM?$AAV?$AA?$AA@ 00000001800d9058     LIBCMTD:winapinls.obj
 0002:00011068       ??_C@_1O@OHDCKDDF@?$AAq?$AAu?$AAz?$AA?9?$AAB?$AAO?$AA?$AA@ 00000001800d9068     LIBCMTD:winapinls.obj
 0002:00011078       ??_C@_1M@LEPJNLFD@?$AAn?$AAs?$AA?9?$AAZ?$AAA?$AA?$AA@ 00000001800d9078     LIBCMTD:winapinls.obj
 0002:00011088       ??_C@_1M@OMLEIIJB@?$AAm?$AAi?$AA?9?$AAN?$AAZ?$AA?$AA@ 00000001800d9088     LIBCMTD:winapinls.obj
 0002:00011098       ??_C@_1M@PMPEAILG@?$AAa?$AAr?$AA?9?$AAI?$AAQ?$AA?$AA@ 00000001800d9098     LIBCMTD:winapinls.obj
 0002:000110a8       ??_C@_1M@CNKPNOEE@?$AAd?$AAe?$AA?9?$AAC?$AAH?$AA?$AA@ 00000001800d90a8     LIBCMTD:winapinls.obj
 0002:000110b8       ??_C@_1M@LKMGMLKO@?$AAe?$AAn?$AA?9?$AAG?$AAB?$AA?$AA@ 00000001800d90b8     LIBCMTD:winapinls.obj
 0002:000110c8       ??_C@_1M@PGKJFFGL@?$AAe?$AAs?$AA?9?$AAM?$AAX?$AA?$AA@ 00000001800d90c8     LIBCMTD:winapinls.obj
 0002:000110d8       ??_C@_1M@DNNANBDC@?$AAf?$AAr?$AA?9?$AAB?$AAE?$AA?$AA@ 00000001800d90d8     LIBCMTD:winapinls.obj
 0002:000110e8       ??_C@_1M@HLGMDFHM@?$AAi?$AAt?$AA?9?$AAC?$AAH?$AA?$AA@ 00000001800d90e8     LIBCMTD:winapinls.obj
 0002:000110f8       ??_C@_1M@CLLBGJH@?$AAn?$AAl?$AA?9?$AAB?$AAE?$AA?$AA@ 00000001800d90f8     LIBCMTD:winapinls.obj
 0002:00011108       ??_C@_1M@BODBOGLF@?$AAn?$AAn?$AA?9?$AAN?$AAO?$AA?$AA@ 00000001800d9108     LIBCMTD:winapinls.obj
 0002:00011118       ??_C@_1M@HFFAHKAD@?$AAp?$AAt?$AA?9?$AAP?$AAT?$AA?$AA@ 00000001800d9118     LIBCMTD:winapinls.obj
 0002:00011128       ??_C@_1BG@LNOAKHIE@?$AAs?$AAr?$AA?9?$AAS?$AAP?$AA?9?$AAL?$AAa?$AAt?$AAn?$AA?$AA@ 00000001800d9128     LIBCMTD:winapinls.obj
 0002:00011140       ??_C@_1M@HBMHBGAK@?$AAs?$AAv?$AA?9?$AAF?$AAI?$AA?$AA@ 00000001800d9140     LIBCMTD:winapinls.obj
 0002:00011150       ??_C@_1BG@DGCJGJBE@?$AAa?$AAz?$AA?9?$AAA?$AAZ?$AA?9?$AAC?$AAy?$AAr?$AAl?$AA?$AA@ 00000001800d9150     LIBCMTD:winapinls.obj
 0002:00011168       ??_C@_1M@KEJDAAHB@?$AAs?$AAe?$AA?9?$AAS?$AAE?$AA?$AA@ 00000001800d9168     LIBCMTD:winapinls.obj
 0002:00011178       ??_C@_1M@HEIBJJAD@?$AAm?$AAs?$AA?9?$AAB?$AAN?$AA?$AA@ 00000001800d9178     LIBCMTD:winapinls.obj
 0002:00011188       ??_C@_1BG@PBGJMCEM@?$AAu?$AAz?$AA?9?$AAU?$AAZ?$AA?9?$AAC?$AAy?$AAr?$AAl?$AA?$AA@ 00000001800d9188     LIBCMTD:winapinls.obj
 0002:000111a0       ??_C@_1O@LAOBCMDF@?$AAq?$AAu?$AAz?$AA?9?$AAE?$AAC?$AA?$AA@ 00000001800d91a0     LIBCMTD:winapinls.obj
 0002:000111b0       ??_C@_1M@POEEMAIO@?$AAa?$AAr?$AA?9?$AAE?$AAG?$AA?$AA@ 00000001800d91b0     LIBCMTD:winapinls.obj
 0002:000111c0       ??_C@_1M@EFAKDEDL@?$AAz?$AAh?$AA?9?$AAH?$AAK?$AA?$AA@ 00000001800d91c0     LIBCMTD:winapinls.obj
 0002:000111d0       ??_C@_1M@HKKIJHGI@?$AAd?$AAe?$AA?9?$AAA?$AAT?$AA?$AA@ 00000001800d91d0     LIBCMTD:winapinls.obj
 0002:000111e0       ??_C@_1M@KBFBEHJF@?$AAe?$AAn?$AA?9?$AAA?$AAU?$AA?$AA@ 00000001800d91e0     LIBCMTD:winapinls.obj
 0002:000111f0       ??_C@_1M@MNPLFAAH@?$AAe?$AAs?$AA?9?$AAE?$AAS?$AA?$AA@ 00000001800d91f0     LIBCMTD:winapinls.obj
 0002:00011200       ??_C@_1M@HJOOJFMA@?$AAf?$AAr?$AA?9?$AAC?$AAA?$AA?$AA@ 00000001800d9200     LIBCMTD:winapinls.obj
 0002:00011210       ??_C@_1BG@JPOFPNAB@?$AAs?$AAr?$AA?9?$AAS?$AAP?$AA?9?$AAC?$AAy?$AAr?$AAl?$AA?$AA@ 00000001800d9210     LIBCMTD:winapinls.obj
 0002:00011228       ??_C@_1M@LNFOCMOB@?$AAs?$AAe?$AA?9?$AAF?$AAI?$AA?$AA@ 00000001800d9228     LIBCMTD:winapinls.obj
 0002:00011238       ??_C@_1O@MGJBOAMB@?$AAq?$AAu?$AAz?$AA?9?$AAP?$AAE?$AA?$AA@ 00000001800d9238     LIBCMTD:winapinls.obj
 0002:00011248       ??_C@_1M@GJINLBOK@?$AAa?$AAr?$AA?9?$AAL?$AAY?$AA?$AA@ 00000001800d9248     LIBCMTD:winapinls.obj
 0002:00011258       ??_C@_1M@GGMNHJNL@?$AAz?$AAh?$AA?9?$AAS?$AAG?$AA?$AA@ 00000001800d9258     LIBCMTD:winapinls.obj
 0002:00011268       ??_C@_1M@HOIKODND@?$AAd?$AAe?$AA?9?$AAL?$AAU?$AA?$AA@ 00000001800d9268     LIBCMTD:winapinls.obj
 0002:00011278       ??_C@_1M@DDOCCGFG@?$AAe?$AAn?$AA?9?$AAC?$AAA?$AA?$AA@ 00000001800d9278     LIBCMTD:winapinls.obj
 0002:00011288       ??_C@_1M@BNOEMJLF@?$AAe?$AAs?$AA?9?$AAG?$AAT?$AA?$AA@ 00000001800d9288     LIBCMTD:winapinls.obj
 0002:00011298       ??_C@_1M@EOGNKEK@?$AAf?$AAr?$AA?9?$AAC?$AAH?$AA?$AA@ 00000001800d9298     LIBCMTD:winapinls.obj
 0002:000112a8       ??_C@_1M@FLIDJFHL@?$AAh?$AAr?$AA?9?$AAB?$AAA?$AA?$AA@ 00000001800d92a8     LIBCMTD:winapinls.obj
 0002:000112b8       ??_C@_1O@FMCELNAJ@?$AAs?$AAm?$AAj?$AA?9?$AAN?$AAO?$AA?$AA@ 00000001800d92b8     LIBCMTD:winapinls.obj
 0002:000112c8       ??_C@_1M@JHGLJMGJ@?$AAa?$AAr?$AA?9?$AAD?$AAZ?$AA?$AA@ 00000001800d92c8     LIBCMTD:winapinls.obj
 0002:000112d8       ??_C@_1M@JKKFDCNP@?$AAz?$AAh?$AA?9?$AAM?$AAO?$AA?$AA@ 00000001800d92d8     LIBCMTD:winapinls.obj
 0002:000112e8       ??_C@_1M@GEEFALPE@?$AAd?$AAe?$AA?9?$AAL?$AAI?$AA?$AA@ 00000001800d92e8     LIBCMTD:winapinls.obj
 0002:000112f8       ??_C@_1M@IGEOFBG@?$AAe?$AAn?$AA?9?$AAN?$AAZ?$AA?$AA@ 00000001800d92f8     LIBCMTD:winapinls.obj
 0002:00011308       ??_C@_1M@KDBONEHP@?$AAe?$AAs?$AA?9?$AAC?$AAR?$AA?$AA@ 00000001800d9308     LIBCMTD:winapinls.obj
 0002:00011318       ??_C@_1M@FHMDOHNN@?$AAf?$AAr?$AA?9?$AAL?$AAU?$AA?$AA@ 00000001800d9318     LIBCMTD:winapinls.obj
 0002:00011328       ??_C@_1BG@NFKKMAFG@?$AAb?$AAs?$AA?9?$AAB?$AAA?$AA?9?$AAL?$AAa?$AAt?$AAn?$AA?$AA@ 00000001800d9328     LIBCMTD:winapinls.obj
 0002:00011340       ??_C@_1O@IMNBEMCI@?$AAs?$AAm?$AAj?$AA?9?$AAS?$AAE?$AA?$AA@ 00000001800d9340     LIBCMTD:winapinls.obj
 0002:00011350       ??_C@_1M@DHHMBNDP@?$AAa?$AAr?$AA?9?$AAM?$AAA?$AA?$AA@ 00000001800d9350     LIBCMTD:winapinls.obj
 0002:00011360       ??_C@_1M@BNBLJCGH@?$AAe?$AAn?$AA?9?$AAI?$AAE?$AA?$AA@ 00000001800d9360     LIBCMTD:winapinls.obj
 0002:00011370       ??_C@_1M@GEPAFMDL@?$AAe?$AAs?$AA?9?$AAP?$AAA?$AA?$AA@ 00000001800d9370     LIBCMTD:winapinls.obj
 0002:00011380       ??_C@_1M@OJONDMDL@?$AAf?$AAr?$AA?9?$AAM?$AAC?$AA?$AA@ 00000001800d9380     LIBCMTD:winapinls.obj
 0002:00011390       ??_C@_1BG@OBCNFJB@?$AAs?$AAr?$AA?9?$AAB?$AAA?$AA?9?$AAL?$AAa?$AAt?$AAn?$AA?$AA@ 00000001800d9390     LIBCMTD:winapinls.obj
 0002:000113a8       ??_C@_1O@KEMEEGPO@?$AAs?$AAm?$AAa?$AA?9?$AAN?$AAO?$AA?$AA@ 00000001800d93a8     LIBCMTD:winapinls.obj
 0002:000113b8       ??_C@_1M@ELMGFODK@?$AAa?$AAr?$AA?9?$AAT?$AAN?$AA?$AA@ 00000001800d93b8     LIBCMTD:winapinls.obj
 0002:000113c8       ??_C@_1M@BHDLHFAF@?$AAe?$AAn?$AA?9?$AAZ?$AAA?$AA?$AA@ 00000001800d93c8     LIBCMTD:winapinls.obj
 0002:000113d8       ??_C@_1M@BMGIGLIF@?$AAe?$AAs?$AA?9?$AAD?$AAO?$AA?$AA@ 00000001800d93d8     LIBCMTD:winapinls.obj
 0002:000113e8       ??_C@_1BG@CMBHIPBE@?$AAs?$AAr?$AA?9?$AAB?$AAA?$AA?9?$AAC?$AAy?$AAr?$AAl?$AA?$AA@ 00000001800d93e8     LIBCMTD:winapinls.obj
 0002:00011400       ??_C@_1O@HEDBLHNP@?$AAs?$AAm?$AAa?$AA?9?$AAS?$AAE?$AA?$AA@ 00000001800d9400     LIBCMTD:winapinls.obj
 0002:00011410       ??_C@_1M@DAGCADIM@?$AAa?$AAr?$AA?9?$AAO?$AAM?$AA?$AA@ 00000001800d9410     LIBCMTD:winapinls.obj
 0002:00011420       ??_C@_1M@FODLMICG@?$AAe?$AAn?$AA?9?$AAJ?$AAM?$AA?$AA@ 00000001800d9420     LIBCMTD:winapinls.obj
 0002:00011430       ??_C@_1M@DNMLCIHB@?$AAe?$AAs?$AA?9?$AAV?$AAE?$AA?$AA@ 00000001800d9430     LIBCMTD:winapinls.obj
 0002:00011440       ??_C@_1O@EOKHMKJK@?$AAs?$AAm?$AAs?$AA?9?$AAF?$AAI?$AA?$AA@ 00000001800d9440     LIBCMTD:winapinls.obj
 0002:00011450       ??_C@_1M@CAFJMKOF@?$AAa?$AAr?$AA?9?$AAY?$AAE?$AA?$AA@ 00000001800d9450     LIBCMTD:winapinls.obj
 0002:00011460       ??_C@_1M@CBFHIJLI@?$AAe?$AAn?$AA?9?$AAC?$AAB?$AA?$AA@ 00000001800d9460     LIBCMTD:winapinls.obj
 0002:00011470       ??_C@_1M@BGNFLDN@?$AAe?$AAs?$AA?9?$AAC?$AAO?$AA?$AA@ 00000001800d9470     LIBCMTD:winapinls.obj
 0002:00011480       ??_C@_1O@JMPHMAMC@?$AAs?$AAm?$AAn?$AA?9?$AAF?$AAI?$AA?$AA@ 00000001800d9480     LIBCMTD:winapinls.obj
 0002:00011490       ??_C@_1M@JLANABKE@?$AAa?$AAr?$AA?9?$AAS?$AAY?$AA?$AA@ 00000001800d9490     LIBCMTD:winapinls.obj
 0002:000114a0       ??_C@_1M@HPKGCFGN@?$AAe?$AAn?$AA?9?$AAB?$AAZ?$AA?$AA@ 00000001800d94a0     LIBCMTD:winapinls.obj
 0002:000114b0       ??_C@_1M@OLJCMLGM@?$AAe?$AAs?$AA?9?$AAP?$AAE?$AA?$AA@ 00000001800d94b0     LIBCMTD:winapinls.obj
 0002:000114c0       ??_C@_1M@MKKGFKLE@?$AAa?$AAr?$AA?9?$AAJ?$AAO?$AA?$AA@ 00000001800d94c0     LIBCMTD:winapinls.obj
 0002:000114d0       ??_C@_1M@EKPGLDNI@?$AAe?$AAn?$AA?9?$AAT?$AAT?$AA?$AA@ 00000001800d94d0     LIBCMTD:winapinls.obj
 0002:000114e0       ??_C@_1M@OONGHFHE@?$AAe?$AAs?$AA?9?$AAA?$AAR?$AA?$AA@ 00000001800d94e0     LIBCMTD:winapinls.obj
 0002:000114f0       ??_C@_1M@OOJFGBHE@?$AAa?$AAr?$AA?9?$AAL?$AAB?$AA?$AA@ 00000001800d94f0     LIBCMTD:winapinls.obj
 0002:00011500       ??_C@_1M@GCEJHNEG@?$AAe?$AAn?$AA?9?$AAZ?$AAW?$AA?$AA@ 00000001800d9500     LIBCMTD:winapinls.obj
 0002:00011510       ??_C@_1M@JNOCAHJI@?$AAe?$AAs?$AA?9?$AAE?$AAC?$AA?$AA@ 00000001800d9510     LIBCMTD:winapinls.obj
 0002:00011520       ??_C@_1M@JEFHPGGB@?$AAa?$AAr?$AA?9?$AAK?$AAW?$AA?$AA@ 00000001800d9520     LIBCMTD:winapinls.obj
 0002:00011530       ??_C@_1M@MLKIBJOJ@?$AAe?$AAn?$AA?9?$AAP?$AAH?$AA?$AA@ 00000001800d9530     LIBCMTD:winapinls.obj
 0002:00011540       ??_C@_1M@BDNIPEND@?$AAe?$AAs?$AA?9?$AAC?$AAL?$AA?$AA@ 00000001800d9540     LIBCMTD:winapinls.obj
 0002:00011550       ??_C@_1M@MPNMEKBD@?$AAa?$AAr?$AA?9?$AAA?$AAE?$AA?$AA@ 00000001800d9550     LIBCMTD:winapinls.obj
 0002:00011560       ??_C@_1M@KBJALCPI@?$AAe?$AAs?$AA?9?$AAU?$AAY?$AA?$AA@ 00000001800d9560     LIBCMTD:winapinls.obj
 0002:00011570       ??_C@_1M@LLCCOAGA@?$AAa?$AAr?$AA?9?$AAB?$AAH?$AA?$AA@ 00000001800d9570     LIBCMTD:winapinls.obj
 0002:00011580       ??_C@_1M@PBFNCDEL@?$AAe?$AAs?$AA?9?$AAP?$AAY?$AA?$AA@ 00000001800d9580     LIBCMTD:winapinls.obj
 0002:00011590       ??_C@_1M@EDGINPNP@?$AAa?$AAr?$AA?9?$AAQ?$AAA?$AA?$AA@ 00000001800d9590     LIBCMTD:winapinls.obj
 0002:000115a0       ??_C@_1M@MKDBIIJI@?$AAe?$AAs?$AA?9?$AAB?$AAO?$AA?$AA@ 00000001800d95a0     LIBCMTD:winapinls.obj
 0002:000115b0       ??_C@_1M@CPKKEBLD@?$AAe?$AAs?$AA?9?$AAS?$AAV?$AA?$AA@ 00000001800d95b0     LIBCMTD:winapinls.obj
 0002:000115c0       ??_C@_1M@NDBGMMJL@?$AAe?$AAs?$AA?9?$AAH?$AAN?$AA?$AA@ 00000001800d95c0     LIBCMTD:winapinls.obj
 0002:000115d0       ??_C@_1M@JIJIBHDP@?$AAe?$AAs?$AA?9?$AAN?$AAI?$AA?$AA@ 00000001800d95d0     LIBCMTD:winapinls.obj
 0002:000115e0       ??_C@_1M@CGFMKEEK@?$AAe?$AAs?$AA?9?$AAP?$AAR?$AA?$AA@ 00000001800d95e0     LIBCMTD:winapinls.obj
 0002:000115f0       ??_C@_1O@ICJHKIIK@?$AAz?$AAh?$AA?9?$AAC?$AAH?$AAT?$AA?$AA@ 00000001800d95f0     LIBCMTD:winapinls.obj
 0002:00011600       ??_C@_15CLNEJCE@?$AAs?$AAr?$AA?$AA@ 00000001800d9600     LIBCMTD:winapinls.obj
 0002:00011608       ??_C@_1M@KAHEKEIG@?$AAa?$AAf?$AA?9?$AAz?$AAa?$AA?$AA@ 00000001800d9608     LIBCMTD:winapinls.obj
 0002:00011618       ??_C@_1M@GIECOABL@?$AAa?$AAr?$AA?9?$AAa?$AAe?$AA?$AA@ 00000001800d9618     LIBCMTD:winapinls.obj
 0002:00011628       ??_C@_1M@BMLMEKGI@?$AAa?$AAr?$AA?9?$AAb?$AAh?$AA?$AA@ 00000001800d9628     LIBCMTD:winapinls.obj
 0002:00011638       ??_C@_1M@DAPFDGGB@?$AAa?$AAr?$AA?9?$AAd?$AAz?$AA?$AA@ 00000001800d9638     LIBCMTD:winapinls.obj
 0002:00011648       ??_C@_1M@FJNKGKIG@?$AAa?$AAr?$AA?9?$AAe?$AAg?$AA?$AA@ 00000001800d9648     LIBCMTD:winapinls.obj
 0002:00011658       ??_C@_1M@FLGKKCLO@?$AAa?$AAr?$AA?9?$AAi?$AAq?$AA?$AA@ 00000001800d9658     LIBCMTD:winapinls.obj
 0002:00011668       ??_C@_1M@GNDIPALM@?$AAa?$AAr?$AA?9?$AAj?$AAo?$AA?$AA@ 00000001800d9668     LIBCMTD:winapinls.obj
 0002:00011678       ??_C@_1M@DDMJFMGJ@?$AAa?$AAr?$AA?9?$AAk?$AAw?$AA?$AA@ 00000001800d9678     LIBCMTD:winapinls.obj
 0002:00011688       ??_C@_1M@EJALMLHM@?$AAa?$AAr?$AA?9?$AAl?$AAb?$AA?$AA@ 00000001800d9688     LIBCMTD:winapinls.obj
 0002:00011698       ??_C@_1M@MOBDBLOC@?$AAa?$AAr?$AA?9?$AAl?$AAy?$AA?$AA@ 00000001800d9698     LIBCMTD:winapinls.obj
 0002:000116a8       ??_C@_1M@JAOCLHDH@?$AAa?$AAr?$AA?9?$AAm?$AAa?$AA?$AA@ 00000001800d96a8     LIBCMTD:winapinls.obj
 0002:000116b8       ??_C@_1M@JHPMKJIE@?$AAa?$AAr?$AA?9?$AAo?$AAm?$AA?$AA@ 00000001800d96b8     LIBCMTD:winapinls.obj
 0002:000116c8       ??_C@_1M@OEPGHFNH@?$AAa?$AAr?$AA?9?$AAq?$AAa?$AA?$AA@ 00000001800d96c8     LIBCMTD:winapinls.obj
 0002:000116d8       ??_C@_1M@KJDONENM@?$AAa?$AAr?$AA?9?$AAs?$AAa?$AA?$AA@ 00000001800d96d8     LIBCMTD:winapinls.obj
 0002:000116e8       ??_C@_1M@DMJDKLKM@?$AAa?$AAr?$AA?9?$AAs?$AAy?$AA?$AA@ 00000001800d96e8     LIBCMTD:winapinls.obj
 0002:000116f8       ??_C@_1M@OMFIPEDC@?$AAa?$AAr?$AA?9?$AAt?$AAn?$AA?$AA@ 00000001800d96f8     LIBCMTD:winapinls.obj
 0002:00011708       ??_C@_1M@IHMHGAON@?$AAa?$AAr?$AA?9?$AAy?$AAe?$AA?$AA@ 00000001800d9708     LIBCMTD:winapinls.obj
 0002:00011718       ??_C@_1BG@KDCPGJGB@?$AAa?$AAz?$AA?9?$AAa?$AAz?$AA?9?$AAc?$AAy?$AAr?$AAl?$AA?$AA@ 00000001800d9718     LIBCMTD:winapinls.obj
 0002:00011730       ??_C@_1BG@IBCKDDOE@?$AAa?$AAz?$AA?9?$AAa?$AAz?$AA?9?$AAl?$AAa?$AAt?$AAn?$AA?$AA@ 00000001800d9730     LIBCMTD:winapinls.obj
 0002:00011748       ??_C@_1M@EGPFDCPD@?$AAb?$AAe?$AA?9?$AAb?$AAy?$AA?$AA@ 00000001800d9748     LIBCMTD:winapinls.obj
 0002:00011758       ??_C@_1M@PCMGMCGC@?$AAb?$AAg?$AA?9?$AAb?$AAg?$AA?$AA@ 00000001800d9758     LIBCMTD:winapinls.obj
 0002:00011768       ??_C@_1M@BJBMFGOB@?$AAb?$AAn?$AA?9?$AAi?$AAn?$AA?$AA@ 00000001800d9768     LIBCMTD:winapinls.obj
 0002:00011778       ??_C@_1BG@EAKMMACD@?$AAb?$AAs?$AA?9?$AAb?$AAa?$AA?9?$AAl?$AAa?$AAt?$AAn?$AA?$AA@ 00000001800d9778     LIBCMTD:winapinls.obj
 0002:00011790       ??_C@_1M@KGADAODK@?$AAc?$AAa?$AA?9?$AAe?$AAs?$AA?$AA@ 00000001800d9790     LIBCMTD:winapinls.obj
 0002:000117a0       ??_C@_1M@COAJPDHI@?$AAc?$AAs?$AA?9?$AAc?$AAz?$AA?$AA@ 00000001800d97a0     LIBCMTD:winapinls.obj
 0002:000117b0       ??_C@_1M@DHBHFONH@?$AAc?$AAy?$AA?9?$AAg?$AAb?$AA?$AA@ 00000001800d97b0     LIBCMTD:winapinls.obj
 0002:000117c0       ??_C@_1M@IMGKELGA@?$AAd?$AAa?$AA?9?$AAd?$AAk?$AA?$AA@ 00000001800d97c0     LIBCMTD:winapinls.obj
 0002:000117d0       ??_C@_1M@NNDGDNGA@?$AAd?$AAe?$AA?9?$AAa?$AAt?$AA?$AA@ 00000001800d97d0     LIBCMTD:winapinls.obj
 0002:000117e0       ??_C@_1M@IKDBHEEM@?$AAd?$AAe?$AA?9?$AAc?$AAh?$AA?$AA@ 00000001800d97e0     LIBCMTD:winapinls.obj
 0002:000117f0       ??_C@_1M@GFFOJMCJ@?$AAd?$AAe?$AA?9?$AAd?$AAe?$AA?$AA@ 00000001800d97f0     LIBCMTD:winapinls.obj
 0002:00011800       ??_C@_1M@MDNLKBPM@?$AAd?$AAe?$AA?9?$AAl?$AAi?$AA?$AA@ 00000001800d9800     LIBCMTD:winapinls.obj
 0002:00011810       ??_C@_1M@NJBEEJNL@?$AAd?$AAe?$AA?9?$AAl?$AAu?$AA?$AA@ 00000001800d9810     LIBCMTD:winapinls.obj
 0002:00011820       ??_C@_1O@GNNELBAP@?$AAd?$AAi?$AAv?$AA?9?$AAm?$AAv?$AA?$AA@ 00000001800d9820     LIBCMTD:winapinls.obj
 0002:00011830       ??_C@_1M@EJLEOGAE@?$AAe?$AAl?$AA?9?$AAg?$AAr?$AA?$AA@ 00000001800d9830     LIBCMTD:winapinls.obj
 0002:00011840       ??_C@_1M@GMPONJN@?$AAe?$AAn?$AA?9?$AAa?$AAu?$AA?$AA@ 00000001800d9840     LIBCMTD:winapinls.obj
 0002:00011850       ??_C@_1M@NIDIIPGF@?$AAe?$AAn?$AA?9?$AAb?$AAz?$AA?$AA@ 00000001800d9850     LIBCMTD:winapinls.obj
 0002:00011860       ??_C@_1M@JEHMIMFO@?$AAe?$AAn?$AA?9?$AAc?$AAa?$AA?$AA@ 00000001800d9860     LIBCMTD:winapinls.obj
 0002:00011870       ??_C@_1M@IGMJCDLA@?$AAe?$AAn?$AA?9?$AAc?$AAb?$AA?$AA@ 00000001800d9870     LIBCMTD:winapinls.obj
 0002:00011880       ??_C@_1M@BNFIGBKG@?$AAe?$AAn?$AA?9?$AAg?$AAb?$AA?$AA@ 00000001800d9880     LIBCMTD:winapinls.obj
 0002:00011890       ??_C@_1M@LKIFDIGP@?$AAe?$AAn?$AA?9?$AAi?$AAe?$AA?$AA@ 00000001800d9890     LIBCMTD:winapinls.obj
 0002:000118a0       ??_C@_1M@PJKFGCCO@?$AAe?$AAn?$AA?9?$AAj?$AAm?$AA?$AA@ 00000001800d98a0     LIBCMTD:winapinls.obj
 0002:000118b0       ??_C@_1M@KPPKEPBO@?$AAe?$AAn?$AA?9?$AAn?$AAz?$AA?$AA@ 00000001800d98b0     LIBCMTD:winapinls.obj
 0002:000118c0       ??_C@_1M@GMDGLDOB@?$AAe?$AAn?$AA?9?$AAp?$AAh?$AA?$AA@ 00000001800d98c0     LIBCMTD:winapinls.obj
 0002:000118d0       ??_C@_1M@ONGIBJNA@?$AAe?$AAn?$AA?9?$AAt?$AAt?$AA?$AA@ 00000001800d98d0     LIBCMTD:winapinls.obj
 0002:000118e0       ??_C@_1M@LLODPCMM@?$AAe?$AAn?$AA?9?$AAu?$AAs?$AA?$AA@ 00000001800d98e0     LIBCMTD:winapinls.obj
 0002:000118f0       ??_C@_1M@LAKFNPAN@?$AAe?$AAn?$AA?9?$AAz?$AAa?$AA?$AA@ 00000001800d98f0     LIBCMTD:winapinls.obj
 0002:00011900       ??_C@_1M@MFNHNHEO@?$AAe?$AAn?$AA?9?$AAz?$AAw?$AA?$AA@ 00000001800d9900     LIBCMTD:winapinls.obj
 0002:00011910       ??_C@_1M@EJEINPHM@?$AAe?$AAs?$AA?9?$AAa?$AAr?$AA?$AA@ 00000001800d9910     LIBCMTD:winapinls.obj
 0002:00011920       ??_C@_1M@GNKPCCJA@?$AAe?$AAs?$AA?9?$AAb?$AAo?$AA?$AA@ 00000001800d9920     LIBCMTD:winapinls.obj
 0002:00011930       ??_C@_1M@LEEGFONL@?$AAe?$AAs?$AA?9?$AAc?$AAl?$AA?$AA@ 00000001800d9930     LIBCMTD:winapinls.obj
 0002:00011940       ??_C@_1M@KGPDPBDF@?$AAe?$AAs?$AA?9?$AAc?$AAo?$AA?$AA@ 00000001800d9940     LIBCMTD:winapinls.obj
 0002:00011950       ??_C@_1M@EIAHOHH@?$AAe?$AAs?$AA?9?$AAc?$AAr?$AA?$AA@ 00000001800d9950     LIBCMTD:winapinls.obj
 0002:00011960       ??_C@_1M@LLPGMBIN@?$AAe?$AAs?$AA?9?$AAd?$AAo?$AA?$AA@ 00000001800d9960     LIBCMTD:winapinls.obj
 0002:00011970       ??_C@_1M@DKHMKNJA@?$AAe?$AAs?$AA?9?$AAe?$AAc?$AA?$AA@ 00000001800d9970     LIBCMTD:winapinls.obj
 0002:00011980       ??_C@_1M@GKGFPKAP@?$AAe?$AAs?$AA?9?$AAe?$AAs?$AA?$AA@ 00000001800d9980     LIBCMTD:winapinls.obj
 0002:00011990       ??_C@_1M@LKHKGDLN@?$AAe?$AAs?$AA?9?$AAg?$AAt?$AA?$AA@ 00000001800d9990     LIBCMTD:winapinls.obj
 0002:000119a0       ??_C@_1M@HEIIGGJD@?$AAe?$AAs?$AA?9?$AAh?$AAn?$AA?$AA@ 00000001800d99a0     LIBCMTD:winapinls.obj
 0002:000119b0       ??_C@_1M@FBDHPPGD@?$AAe?$AAs?$AA?9?$AAm?$AAx?$AA?$AA@ 00000001800d99b0     LIBCMTD:winapinls.obj
 0002:000119c0       ??_C@_1M@DPAGLNDH@?$AAe?$AAs?$AA?9?$AAn?$AAi?$AA?$AA@ 00000001800d99c0     LIBCMTD:winapinls.obj
 0002:000119d0       ??_C@_1M@MDGOPGDD@?$AAe?$AAs?$AA?9?$AAp?$AAa?$AA?$AA@ 00000001800d99d0     LIBCMTD:winapinls.obj
 0002:000119e0       ??_C@_1M@EMAMGBGE@?$AAe?$AAs?$AA?9?$AAp?$AAe?$AA?$AA@ 00000001800d99e0     LIBCMTD:winapinls.obj
 0002:000119f0       ??_C@_1M@IBMCAOEC@?$AAe?$AAs?$AA?9?$AAp?$AAr?$AA?$AA@ 00000001800d99f0     LIBCMTD:winapinls.obj
 0002:00011a00       ??_C@_1M@FGMDIJED@?$AAe?$AAs?$AA?9?$AAp?$AAy?$AA?$AA@ 00000001800d9a00     LIBCMTD:winapinls.obj
 0002:00011a10       ??_C@_1M@IIDEOLLL@?$AAe?$AAs?$AA?9?$AAs?$AAv?$AA?$AA@ 00000001800d9a10     LIBCMTD:winapinls.obj
 0002:00011a20       ??_C@_1M@GAOBIPA@?$AAe?$AAs?$AA?9?$AAu?$AAy?$AA?$AA@ 00000001800d9a20     LIBCMTD:winapinls.obj
 0002:00011a30       ??_C@_1M@JKFFICHJ@?$AAe?$AAs?$AA?9?$AAv?$AAe?$AA?$AA@ 00000001800d9a30     LIBCMTD:winapinls.obj
 0002:00011a40       ??_C@_1M@PNMLOJDF@?$AAe?$AAt?$AA?9?$AAe?$AAe?$AA?$AA@ 00000001800d9a40     LIBCMTD:winapinls.obj
 0002:00011a50       ??_C@_1M@GHHLIKEI@?$AAe?$AAu?$AA?9?$AAe?$AAs?$AA?$AA@ 00000001800d9a50     LIBCMTD:winapinls.obj
 0002:00011a60       ??_C@_1M@PBNONODE@?$AAf?$AAa?$AA?9?$AAi?$AAr?$AA?$AA@ 00000001800d9a60     LIBCMTD:winapinls.obj
 0002:00011a70       ??_C@_1M@JEEHPMIL@?$AAf?$AAi?$AA?9?$AAf?$AAi?$AA?$AA@ 00000001800d9a70     LIBCMTD:winapinls.obj
 0002:00011a80       ??_C@_1M@LMDCNDBA@?$AAf?$AAo?$AA?9?$AAf?$AAo?$AA?$AA@ 00000001800d9a80     LIBCMTD:winapinls.obj
 0002:00011a90       ??_C@_1M@JKEOHLDK@?$AAf?$AAr?$AA?9?$AAb?$AAe?$AA?$AA@ 00000001800d9a90     LIBCMTD:winapinls.obj
 0002:00011aa0       ??_C@_1M@NOHADPMI@?$AAf?$AAr?$AA?9?$AAc?$AAa?$AA?$AA@ 00000001800d9aa0     LIBCMTD:winapinls.obj
 0002:00011ab0       ??_C@_1M@KDHIHAEC@?$AAf?$AAr?$AA?9?$AAc?$AAh?$AA?$AA@ 00000001800d9ab0     LIBCMTD:winapinls.obj
 0002:00011ac0       ??_C@_1M@MMBBFGAK@?$AAf?$AAr?$AA?9?$AAf?$AAr?$AA?$AA@ 00000001800d9ac0     LIBCMTD:winapinls.obj
 0002:00011ad0       ??_C@_1M@PAFNENNF@?$AAf?$AAr?$AA?9?$AAl?$AAu?$AA?$AA@ 00000001800d9ad0     LIBCMTD:winapinls.obj
 0002:00011ae0       ??_C@_1M@EOHDJGDD@?$AAf?$AAr?$AA?9?$AAm?$AAc?$AA?$AA@ 00000001800d9ae0     LIBCMTD:winapinls.obj
 0002:00011af0       ??_C@_1M@FAPLLOPF@?$AAg?$AAl?$AA?9?$AAe?$AAs?$AA?$AA@ 00000001800d9af0     LIBCMTD:winapinls.obj
 0002:00011b00       ??_C@_1M@FOPBFLOO@?$AAg?$AAu?$AA?9?$AAi?$AAn?$AA?$AA@ 00000001800d9b00     LIBCMTD:winapinls.obj
 0002:00011b10       ??_C@_1M@KBMCINPM@?$AAh?$AAe?$AA?9?$AAi?$AAl?$AA?$AA@ 00000001800d9b10     LIBCMTD:winapinls.obj
 0002:00011b20       ??_C@_1M@BBPHKFPJ@?$AAh?$AAi?$AA?9?$AAi?$AAn?$AA?$AA@ 00000001800d9b20     LIBCMTD:winapinls.obj
 0002:00011b30       ??_C@_1M@PMBNDPHD@?$AAh?$AAr?$AA?9?$AAb?$AAa?$AA?$AA@ 00000001800d9b30     LIBCMTD:winapinls.obj
 0002:00011b40       ??_C@_1M@BPCKOEGE@?$AAh?$AAr?$AA?9?$AAh?$AAr?$AA?$AA@ 00000001800d9b40     LIBCMTD:winapinls.obj
 0002:00011b50       ??_C@_1M@GACBMHKE@?$AAh?$AAu?$AA?9?$AAh?$AAu?$AA?$AA@ 00000001800d9b50     LIBCMTD:winapinls.obj
 0002:00011b60       ??_C@_1M@MILPAJJC@?$AAh?$AAy?$AA?9?$AAa?$AAm?$AA?$AA@ 00000001800d9b60     LIBCMTD:winapinls.obj
 0002:00011b70       ??_C@_1M@BABBICEC@?$AAi?$AAd?$AA?9?$AAi?$AAd?$AA?$AA@ 00000001800d9b70     LIBCMTD:winapinls.obj
 0002:00011b80       ??_C@_1M@BIKNHHPF@?$AAi?$AAs?$AA?9?$AAi?$AAs?$AA?$AA@ 00000001800d9b80     LIBCMTD:winapinls.obj
 0002:00011b90       ??_C@_1M@NMPCJPHE@?$AAi?$AAt?$AA?9?$AAc?$AAh?$AA?$AA@ 00000001800d9b90     LIBCMTD:winapinls.obj
 0002:00011ba0       ??_C@_1M@GHKGFEDF@?$AAi?$AAt?$AA?9?$AAi?$AAt?$AA?$AA@ 00000001800d9ba0     LIBCMTD:winapinls.obj
 0002:00011bb0       ??_C@_1M@NIEJCJJA@?$AAj?$AAa?$AA?9?$AAj?$AAp?$AA?$AA@ 00000001800d9bb0     LIBCMTD:winapinls.obj
 0002:00011bc0       ??_C@_1M@JILFNBIM@?$AAk?$AAa?$AA?9?$AAg?$AAe?$AA?$AA@ 00000001800d9bc0     LIBCMTD:winapinls.obj
 0002:00011bd0       ??_C@_1M@PACPMGPH@?$AAk?$AAk?$AA?9?$AAk?$AAz?$AA?$AA@ 00000001800d9bd0     LIBCMTD:winapinls.obj
 0002:00011be0       ??_C@_1M@IELFGMHA@?$AAk?$AAn?$AA?9?$AAi?$AAn?$AA?$AA@ 00000001800d9be0     LIBCMTD:winapinls.obj
 0002:00011bf0       ??_C@_1O@IBBJHCH@?$AAk?$AAo?$AAk?$AA?9?$AAi?$AAn?$AA?$AA@ 00000001800d9bf0     LIBCMTD:winapinls.obj
 0002:00011c00       ??_C@_1M@DMHAEOGC@?$AAk?$AAo?$AA?9?$AAk?$AAr?$AA?$AA@ 00000001800d9c00     LIBCMTD:winapinls.obj
 0002:00011c10       ??_C@_1M@HBAHBIGA@?$AAk?$AAy?$AA?9?$AAk?$AAg?$AA?$AA@ 00000001800d9c10     LIBCMTD:winapinls.obj
 0002:00011c20       ??_C@_1M@KPMILCJG@?$AAl?$AAt?$AA?9?$AAl?$AAt?$AA?$AA@ 00000001800d9c20     LIBCMTD:winapinls.obj
 0002:00011c30       ??_C@_1M@BDEKKCA@?$AAl?$AAv?$AA?9?$AAl?$AAv?$AA?$AA@ 00000001800d9c30     LIBCMTD:winapinls.obj
 0002:00011c40       ??_C@_1M@ELCKCCJJ@?$AAm?$AAi?$AA?9?$AAn?$AAz?$AA?$AA@ 00000001800d9c40     LIBCMTD:winapinls.obj
 0002:00011c50       ??_C@_1M@CBOOLAPA@?$AAm?$AAk?$AA?9?$AAm?$AAk?$AA?$AA@ 00000001800d9c50     LIBCMTD:winapinls.obj
 0002:00011c60       ??_C@_1M@GPHNBJKN@?$AAm?$AAl?$AA?9?$AAi?$AAn?$AA?$AA@ 00000001800d9c60     LIBCMTD:winapinls.obj
 0002:00011c70       ??_C@_1M@PABJILIG@?$AAm?$AAn?$AA?9?$AAm?$AAn?$AA?$AA@ 00000001800d9c70     LIBCMTD:winapinls.obj
 0002:00011c80       ??_C@_1M@FGBKKIPG@?$AAm?$AAr?$AA?9?$AAi?$AAn?$AA?$AA@ 00000001800d9c80     LIBCMTD:winapinls.obj
 0002:00011c90       ??_C@_1M@NDBPDDAL@?$AAm?$AAs?$AA?9?$AAb?$AAn?$AA?$AA@ 00000001800d9c90     LIBCMTD:winapinls.obj
 0002:00011ca0       ??_C@_1M@OPIHOOPI@?$AAm?$AAs?$AA?9?$AAm?$AAy?$AA?$AA@ 00000001800d9ca0     LIBCMTD:winapinls.obj
 0002:00011cb0       ??_C@_1M@PPDBCNFM@?$AAm?$AAt?$AA?9?$AAm?$AAt?$AA?$AA@ 00000001800d9cb0     LIBCMTD:winapinls.obj
 0002:00011cc0       ??_C@_1M@KDJDKMDD@?$AAn?$AAb?$AA?9?$AAn?$AAo?$AA?$AA@ 00000001800d9cc0     LIBCMTD:winapinls.obj
 0002:00011cd0       ??_C@_1M@KFCFLMJP@?$AAn?$AAl?$AA?9?$AAb?$AAe?$AA?$AA@ 00000001800d9cd0     LIBCMTD:winapinls.obj
 0002:00011ce0       ??_C@_1M@KPOPDDGO@?$AAn?$AAl?$AA?9?$AAn?$AAl?$AA?$AA@ 00000001800d9ce0     LIBCMTD:winapinls.obj
 0002:00011cf0       ??_C@_1M@LJKPEMLN@?$AAn?$AAn?$AA?9?$AAn?$AAo?$AA?$AA@ 00000001800d9cf0     LIBCMTD:winapinls.obj
 0002:00011d00       ??_C@_1M@BDGHHBFL@?$AAn?$AAs?$AA?9?$AAz?$AAa?$AA?$AA@ 00000001800d9d00     LIBCMTD:winapinls.obj
 0002:00011d10       ??_C@_1M@IDEHOAP@?$AAp?$AAa?$AA?9?$AAi?$AAn?$AA?$AA@ 00000001800d9d10     LIBCMTD:winapinls.obj
 0002:00011d20       ??_C@_1M@HDBKGOGH@?$AAp?$AAl?$AA?9?$AAp?$AAl?$AA?$AA@ 00000001800d9d20     LIBCMTD:winapinls.obj
 0002:00011d30       ??_C@_1M@LJLLCMEH@?$AAp?$AAt?$AA?9?$AAb?$AAr?$AA?$AA@ 00000001800d9d30     LIBCMTD:winapinls.obj
 0002:00011d40       ??_C@_1M@NCMONAAL@?$AAp?$AAt?$AA?9?$AAp?$AAt?$AA?$AA@ 00000001800d9d40     LIBCMTD:winapinls.obj
 0002:00011d50       ??_C@_1O@EAKMAJDN@?$AAq?$AAu?$AAz?$AA?9?$AAb?$AAo?$AA?$AA@ 00000001800d9d50     LIBCMTD:winapinls.obj
 0002:00011d60       ??_C@_1O@BHHPIGDN@?$AAq?$AAu?$AAz?$AA?9?$AAe?$AAc?$AA?$AA@ 00000001800d9d60     LIBCMTD:winapinls.obj
 0002:00011d70       ??_C@_1O@GBAPEKMJ@?$AAq?$AAu?$AAz?$AA?9?$AAp?$AAe?$AA?$AA@ 00000001800d9d70     LIBCMTD:winapinls.obj
 0002:00011d80       ??_C@_1M@CLGLEFBO@?$AAr?$AAo?$AA?9?$AAr?$AAo?$AA?$AA@ 00000001800d9d80     LIBCMTD:winapinls.obj
 0002:00011d90       ??_C@_1M@CEEDODME@?$AAr?$AAu?$AA?9?$AAr?$AAu?$AA?$AA@ 00000001800d9d90     LIBCMTD:winapinls.obj
 0002:00011da0       ??_C@_1M@HPKKKMPP@?$AAs?$AAa?$AA?9?$AAi?$AAn?$AA?$AA@ 00000001800d9da0     LIBCMTD:winapinls.obj
 0002:00011db0       ??_C@_1M@BKMAIGOJ@?$AAs?$AAe?$AA?9?$AAf?$AAi?$AA?$AA@ 00000001800d9db0     LIBCMTD:winapinls.obj
 0002:00011dc0       ??_C@_1M@NDPIFLFI@?$AAs?$AAe?$AA?9?$AAn?$AAo?$AA?$AA@ 00000001800d9dc0     LIBCMTD:winapinls.obj
 0002:00011dd0       ??_C@_1M@DANKKHJ@?$AAs?$AAe?$AA?9?$AAs?$AAe?$AA?$AA@ 00000001800d9dd0     LIBCMTD:winapinls.obj
 0002:00011de0       ??_C@_1M@PNBLONPJ@?$AAs?$AAk?$AA?9?$AAs?$AAk?$AA?$AA@ 00000001800d9de0     LIBCMTD:winapinls.obj
 0002:00011df0       ??_C@_1M@LFMODOAL@?$AAs?$AAl?$AA?9?$AAs?$AAi?$AA?$AA@ 00000001800d9df0     LIBCMTD:winapinls.obj
 0002:00011e00       ??_C@_1O@DFKOMPG@?$AAs?$AAm?$AAa?$AA?9?$AAn?$AAo?$AA?$AA@ 00000001800d9e00     LIBCMTD:winapinls.obj
 0002:00011e10       ??_C@_1O@NDKPBNNH@?$AAs?$AAm?$AAa?$AA?9?$AAs?$AAe?$AA?$AA@ 00000001800d9e10     LIBCMTD:winapinls.obj
 0002:00011e20       ??_C@_1O@PLLKBHAB@?$AAs?$AAm?$AAj?$AA?9?$AAn?$AAo?$AA?$AA@ 00000001800d9e20     LIBCMTD:winapinls.obj
 0002:00011e30       ??_C@_1O@CLEPOGCA@?$AAs?$AAm?$AAj?$AA?9?$AAs?$AAe?$AA?$AA@ 00000001800d9e30     LIBCMTD:winapinls.obj
 0002:00011e40       ??_C@_1O@DLGJGKMK@?$AAs?$AAm?$AAn?$AA?9?$AAf?$AAi?$AA?$AA@ 00000001800d9e40     LIBCMTD:winapinls.obj
 0002:00011e50       ??_C@_1O@OJDJGAJC@?$AAs?$AAm?$AAs?$AA?9?$AAf?$AAi?$AA?$AA@ 00000001800d9e50     LIBCMTD:winapinls.obj
 0002:00011e60       ??_C@_1M@BOFOGHPB@?$AAs?$AAq?$AA?9?$AAa?$AAl?$AA?$AA@ 00000001800d9e60     LIBCMTD:winapinls.obj
 0002:00011e70       ??_C@_1BG@LJBBIPGB@?$AAs?$AAr?$AA?9?$AAb?$AAa?$AA?9?$AAc?$AAy?$AAr?$AAl?$AA?$AA@ 00000001800d9e70     LIBCMTD:winapinls.obj
 0002:00011e88       ??_C@_1BG@JLBENFOE@?$AAs?$AAr?$AA?9?$AAb?$AAa?$AA?9?$AAl?$AAa?$AAt?$AAn?$AA?$AA@ 00000001800d9e88     LIBCMTD:winapinls.obj
 0002:00011ea0       ??_C@_1BG@KODPNHE@?$AAs?$AAr?$AA?9?$AAs?$AAp?$AA?9?$AAc?$AAy?$AAr?$AAl?$AA?$AA@ 00000001800d9ea0     LIBCMTD:winapinls.obj
 0002:00011eb8       ??_C@_1BG@CIOGKHPB@?$AAs?$AAr?$AA?9?$AAs?$AAp?$AA?9?$AAl?$AAa?$AAt?$AAn?$AA?$AA@ 00000001800d9eb8     LIBCMTD:winapinls.obj
 0002:00011ed0       ??_C@_1M@NGFJLMAC@?$AAs?$AAv?$AA?9?$AAf?$AAi?$AA?$AA@ 00000001800d9ed0     LIBCMTD:winapinls.obj
 0002:00011ee0       ??_C@_1M@MPJEJAJC@?$AAs?$AAv?$AA?9?$AAs?$AAe?$AA?$AA@ 00000001800d9ee0     LIBCMTD:winapinls.obj
 0002:00011ef0       ??_C@_1M@MPNDHLFK@?$AAs?$AAw?$AA?9?$AAk?$AAe?$AA?$AA@ 00000001800d9ef0     LIBCMTD:winapinls.obj
 0002:00011f00       ??_C@_1O@KOHBJJI@?$AAs?$AAy?$AAr?$AA?9?$AAs?$AAy?$AA?$AA@ 00000001800d9f00     LIBCMTD:winapinls.obj
 0002:00011f10       ??_C@_1M@LDCEFHA@?$AAt?$AAa?$AA?9?$AAi?$AAn?$AA?$AA@ 00000001800d9f10     LIBCMTD:winapinls.obj
 0002:00011f20       ??_C@_1M@CNJOFAK@?$AAt?$AAe?$AA?9?$AAi?$AAn?$AA?$AA@ 00000001800d9f20     LIBCMTD:winapinls.obj
 0002:00011f30       ??_C@_1M@GNAECACD@?$AAt?$AAh?$AA?9?$AAt?$AAh?$AA?$AA@ 00000001800d9f30     LIBCMTD:winapinls.obj
 0002:00011f40       ??_C@_1M@CHBIHOJO@?$AAt?$AAn?$AA?9?$AAz?$AAa?$AA?$AA@ 00000001800d9f40     LIBCMTD:winapinls.obj
 0002:00011f50       ??_C@_1M@GCCMIGPJ@?$AAt?$AAr?$AA?9?$AAt?$AAr?$AA?$AA@ 00000001800d9f50     LIBCMTD:winapinls.obj
 0002:00011f60       ??_C@_1M@CELMCNBK@?$AAt?$AAt?$AA?9?$AAr?$AAu?$AA?$AA@ 00000001800d9f60     LIBCMTD:winapinls.obj
 0002:00011f70       ??_C@_1M@KLMCELGA@?$AAu?$AAk?$AA?9?$AAu?$AAa?$AA?$AA@ 00000001800d9f70     LIBCMTD:winapinls.obj
 0002:00011f80       ??_C@_1M@EPAJJAJF@?$AAu?$AAr?$AA?9?$AAp?$AAk?$AA?$AA@ 00000001800d9f80     LIBCMTD:winapinls.obj
 0002:00011f90       ??_C@_1BG@GEGPMCDJ@?$AAu?$AAz?$AA?9?$AAu?$AAz?$AA?9?$AAc?$AAy?$AAr?$AAl?$AA?$AA@ 00000001800d9f90     LIBCMTD:winapinls.obj
 0002:00011fa8       ??_C@_1BG@EGGKJILM@?$AAu?$AAz?$AA?9?$AAu?$AAz?$AA?9?$AAl?$AAa?$AAt?$AAn?$AA?$AA@ 00000001800d9fa8     LIBCMTD:winapinls.obj
 0002:00011fc0       ??_C@_1M@GFOCLFF@?$AAv?$AAi?$AA?9?$AAv?$AAn?$AA?$AA@ 00000001800d9fc0     LIBCMTD:winapinls.obj
 0002:00011fd0       ??_C@_1M@CPAMEDFI@?$AAx?$AAh?$AA?9?$AAz?$AAa?$AA?$AA@ 00000001800d9fd0     LIBCMTD:winapinls.obj
 0002:00011fe0       ??_C@_1O@EBKIFIGN@?$AAz?$AAh?$AA?9?$AAc?$AAh?$AAs?$AA?$AA@ 00000001800d9fe0     LIBCMTD:winapinls.obj
 0002:00011ff0       ??_C@_1O@NMHPGANE@?$AAz?$AAh?$AA?9?$AAc?$AAh?$AAt?$AA?$AA@ 00000001800d9ff0     LIBCMTD:winapinls.obj
 0002:00012000       ??_C@_1M@LPINJOMC@?$AAz?$AAh?$AA?9?$AAc?$AAn?$AA?$AA@ 00000001800da000     LIBCMTD:winapinls.obj
 0002:00012010       ??_C@_1M@OCJEJODD@?$AAz?$AAh?$AA?9?$AAh?$AAk?$AA?$AA@ 00000001800da010     LIBCMTD:winapinls.obj
 0002:00012020       ??_C@_1M@DNDLJINH@?$AAz?$AAh?$AA?9?$AAm?$AAo?$AA?$AA@ 00000001800da020     LIBCMTD:winapinls.obj
 0002:00012030       ??_C@_1M@MBFDNDND@?$AAz?$AAh?$AA?9?$AAs?$AAg?$AA?$AA@ 00000001800da030     LIBCMTD:winapinls.obj
 0002:00012040       ??_C@_1M@IMEPLEPE@?$AAz?$AAh?$AA?9?$AAt?$AAw?$AA?$AA@ 00000001800da040     LIBCMTD:winapinls.obj
 0002:00012050       ??_C@_1M@BBGHNHJP@?$AAz?$AAu?$AA?9?$AAz?$AAa?$AA?$AA@ 00000001800da050     LIBCMTD:winapinls.obj
 0002:00012060       ??_C@_1FE@HAPBHJIC@?$AAf?$AA?3?$AA?2?$AAd?$AAd?$AA?2?$AAv?$AAc?$AAt?$AAo?$AAo?$AAl?$AAs?$AA?2?$AAc?$AAr?$AAt?$AA?2?$AAc?$AAr?$AAt?$AAw?$AA3?$AA2?$AA?2?$AAm?$AAi?$AAs?$AAc?$AA?2?$AAw?$AAi@ 00000001800da060     LIBCMTD:winapinls.obj
 0002:000120b8       ??_C@_1DO@MBHJDOGM@?$AA_?$AA_?$AAc?$AAr?$AAt?$AAD?$AAo?$AAw?$AAn?$AAl?$AAe?$AAv?$AAe?$AAl?$AAL?$AAC?$AAI?$AAD?$AAT?$AAo?$AAL?$AAo?$AAc?$AAa?$AAl?$AAe?$AAN?$AAa?$AAm?$AAe?$AA?$AA@ 00000001800da0b8     LIBCMTD:winapinls.obj
 0002:00012100       ??_C@_1FO@LFACCMJH@?$AAw?$AAc?$AAs?$AAc?$AAp?$AAy?$AA_?$AAs?$AA?$CI?$AAo?$AAu?$AAt?$AAL?$AAo?$AAc?$AAa?$AAl?$AAe?$AAN?$AAa?$AAm?$AAe?$AA?0?$AA?5?$AAc?$AAc?$AAh?$AAL?$AAo?$AAc?$AAa?$AAl@ 00000001800da100     LIBCMTD:winapinls.obj
 0002:00012160       ??_C@_0CH@JPGODKFM@f?3?2dd?2vctools?2crt?2crtw32?2misc?2on@ 00000001800da160     LIBCMTD:onexit.obj
 0002:00012188       ??_C@_1CK@GFDNDKK@?$AA_?$AAR?$AAa?$AAn?$AAd?$AAo?$AAm?$AAV?$AAa?$AAl?$AAu?$AAe?$AA?5?$AA?$CB?$AA?$DN?$AA?5?$AAN?$AAU?$AAL?$AAL?$AA?$AA@ 00000001800da188     LIBCMTD:rand_s.obj
 0002:000121c0       ??_C@_1EO@GANOMFFN@?$AAf?$AA?3?$AA?2?$AAd?$AAd?$AA?2?$AAv?$AAc?$AAt?$AAo?$AAo?$AAl?$AAs?$AA?2?$AAc?$AAr?$AAt?$AA?2?$AAc?$AAr?$AAt?$AAw?$AA3?$AA2?$AA?2?$AAm?$AAi?$AAs?$AAc?$AA?2?$AAr?$AAa@ 00000001800da1c0     LIBCMTD:rand_s.obj
 0002:00012210       ??_C@_1O@IJGPPOGF@?$AAr?$AAa?$AAn?$AAd?$AA_?$AAs?$AA?$AA@ 00000001800da210     LIBCMTD:rand_s.obj
 0002:00012220       ??_C@_1BK@GAEMIDIL@?$AAA?$AAD?$AAV?$AAA?$AAP?$AAI?$AA3?$AA2?$AA?4?$AAD?$AAL?$AAL?$AA?$AA@ 00000001800da220     LIBCMTD:rand_s.obj
 0002:00012240       ??_C@_1GA@EBEDGGGB@?$AA?$CI?$AA?$CC?$AAr?$AAa?$AAn?$AAd?$AA_?$AAs?$AA?5?$AAi?$AAs?$AA?5?$AAn?$AAo?$AAt?$AA?5?$AAa?$AAv?$AAa?$AAi?$AAl?$AAa?$AAb?$AAl?$AAe?$AA?5?$AAo?$AAn?$AA?5?$AAt?$AAh?$AAi@ 00000001800da240     LIBCMTD:rand_s.obj
 0002:000122a0       ??_C@_0BC@JEAENNKH@SystemFunction036?$AA@ 00000001800da2a0     LIBCMTD:rand_s.obj
 0002:000122e0       ?LocalIdBitWidth@CrossScopeId@CodeViewInfo@@2IB 00000001800da2e0     LIBCMTD:pdblkup.obj
 0002:000122e4       ?IdScopeBitWidth@CrossScopeId@CodeViewInfo@@2IB 00000001800da2e4     LIBCMTD:pdblkup.obj
 0002:000122e8       ?StartCrossScopeId@CrossScopeId@CodeViewInfo@@2IB 00000001800da2e8     LIBCMTD:pdblkup.obj
 0002:000122ec       ?LocalIdMask@CrossScopeId@CodeViewInfo@@2IB 00000001800da2ec     LIBCMTD:pdblkup.obj
 0002:000122f0       ?ScopeIdMask@CrossScopeId@CodeViewInfo@@2IB 00000001800da2f0     LIBCMTD:pdblkup.obj
 0002:000122f4       ?MaxLocalId@CrossScopeId@CodeViewInfo@@2IB 00000001800da2f4     LIBCMTD:pdblkup.obj
 0002:000122f8       ?MaxScopeId@CrossScopeId@CodeViewInfo@@2IB 00000001800da2f8     LIBCMTD:pdblkup.obj
 0002:00012350       ??_C@_0O@COHOBMLB@RegOpenKeyExW?$AA@ 00000001800da350     LIBCMTD:pdblkup.obj
 0002:00012360       ??_C@_0BB@GLNAEDBD@RegQueryValueExW?$AA@ 00000001800da360     LIBCMTD:pdblkup.obj
 0002:00012378       ??_C@_0M@HLOHPNFA@RegCloseKey?$AA@ 00000001800da378     LIBCMTD:pdblkup.obj
 0002:00012390       ??_C@_1HE@HOJOLGOA@?$AAS?$AAO?$AAF?$AAT?$AAW?$AAA?$AAR?$AAE?$AA?2?$AAW?$AAo?$AAw?$AA6?$AA4?$AA3?$AA2?$AAN?$AAo?$AAd?$AAe?$AA?2?$AAM?$AAi?$AAc?$AAr?$AAo?$AAs?$AAo?$AAf?$AAt?$AA?2?$AAV@ 00000001800da390     LIBCMTD:pdblkup.obj
 0002:00012408       ??_C@_1BG@EABPBLLF@?$AAP?$AAr?$AAo?$AAd?$AAu?$AAc?$AAt?$AAD?$AAi?$AAr?$AA?$AA@ 00000001800da408     LIBCMTD:pdblkup.obj
 0002:00012440       ??_C@_1BC@EOIMGOME@?$AAM?$AAS?$AAP?$AAD?$AAB?$AA1?$AA2?$AA0?$AA?$AA@ 00000001800da440     LIBCMTD:pdblkup.obj
 0002:00012458       ??_C@_0BB@KCIACLNC@PDBOpenValidate5?$AA@ 00000001800da458     LIBCMTD:pdblkup.obj
 0002:0001246c       ??_C@_01KDCPPGHE@r?$AA@    00000001800da46c     LIBCMTD:pdblkup.obj
 0002:00012470       ??_C@_0CI@NOHEOGNG@f?3?2dd?2vctools?2crt?2crtw32?2misc?2in@ 00000001800da470     LIBCMTD:initmon.obj
 0002:00012498       ??_C@_1DM@GKAPAMDO@?$AAp?$AAl?$AAo?$AAc?$AAi?$AA?9?$AA?$DO?$AAl?$AAc?$AAo?$AAn?$AAv?$AA_?$AAm?$AAo?$AAn?$AA_?$AAr?$AAe?$AAf?$AAc?$AAo?$AAu?$AAn?$AAt?$AA?5?$AA?$DO?$AA?5?$AA0?$AA?$AA@ 00000001800da498     LIBCMTD:initmon.obj
 0002:000124e0       ??_C@_1FA@CNNDGPJL@?$AAf?$AA?3?$AA?2?$AAd?$AAd?$AA?2?$AAv?$AAc?$AAt?$AAo?$AAo?$AAl?$AAs?$AA?2?$AAc?$AAr?$AAt?$AA?2?$AAc?$AAr?$AAt?$AAw?$AA3?$AA2?$AA?2?$AAm?$AAi?$AAs?$AAc?$AA?2?$AAi?$AAn@ 00000001800da4e0     LIBCMTD:initmon.obj
 0002:00012530       ??_C@_0CI@GAAFLELF@f?3?2dd?2vctools?2crt?2crtw32?2misc?2in@ 00000001800da530     LIBCMTD:initnum.obj
 0002:00012558       ??_C@_1DM@IFKAINNE@?$AAp?$AAl?$AAo?$AAc?$AAi?$AA?9?$AA?$DO?$AAl?$AAc?$AAo?$AAn?$AAv?$AA_?$AAn?$AAu?$AAm?$AA_?$AAr?$AAe?$AAf?$AAc?$AAo?$AAu?$AAn?$AAt?$AA?5?$AA?$DO?$AA?5?$AA0?$AA?$AA@ 00000001800da558     LIBCMTD:initnum.obj
 0002:000125a0       ??_C@_1FA@OEEOKLKJ@?$AAf?$AA?3?$AA?2?$AAd?$AAd?$AA?2?$AAv?$AAc?$AAt?$AAo?$AAo?$AAl?$AAs?$AA?2?$AAc?$AAr?$AAt?$AA?2?$AAc?$AAr?$AAt?$AAw?$AA3?$AA2?$AA?2?$AAm?$AAi?$AAs?$AAc?$AA?2?$AAi?$AAn@ 00000001800da5a0     LIBCMTD:initnum.obj
 0002:000125f0       ??_C@_0CJ@HGFGLKBM@f?3?2dd?2vctools?2crt?2crtw32?2misc?2in@ 00000001800da5f0     LIBCMTD:inittime.obj
 0002:00012620       ??_C@_1EE@FDHCFDHN@?$AAp?$AAl?$AAo?$AAc?$AAi?$AA?9?$AA?$DO?$AAl?$AAc?$AA_?$AAt?$AAi?$AAm?$AAe?$AA_?$AAc?$AAu?$AAr?$AAr?$AA?9?$AA?$DO?$AAr?$AAe?$AAf?$AAc?$AAo?$AAu?$AAn?$AAt?$AA?5?$AA?$DO?$AA?5@ 00000001800da620     LIBCMTD:inittime.obj
 0002:00012670       ??_C@_1FC@GNPEEAOA@?$AAf?$AA?3?$AA?2?$AAd?$AAd?$AA?2?$AAv?$AAc?$AAt?$AAo?$AAo?$AAl?$AAs?$AA?2?$AAc?$AAr?$AAt?$AA?2?$AAc?$AAr?$AAt?$AAw?$AA3?$AA2?$AA?2?$AAm?$AAi?$AAs?$AAc?$AA?2?$AAi?$AAn@ 00000001800da670     LIBCMTD:inittime.obj
 0002:00012770       __lc_category              00000001800da770     LIBCMTD:wsetloca.obj
 0002:00012800       ??_C@_1O@GIFLHMA@?$AAL?$AAC?$AA_?$AAA?$AAL?$AAL?$AA?$AA@ 00000001800da800     LIBCMTD:wsetloca.obj
 0002:00012810       ??_C@_1BG@PPOMIBNJ@?$AAL?$AAC?$AA_?$AAC?$AAO?$AAL?$AAL?$AAA?$AAT?$AAE?$AA?$AA@ 00000001800da810     LIBCMTD:wsetloca.obj
 0002:00012828       ??_C@_1BC@FFJGAPJM@?$AAL?$AAC?$AA_?$AAC?$AAT?$AAY?$AAP?$AAE?$AA?$AA@ 00000001800da828     LIBCMTD:wsetloca.obj
 0002:00012840       ??_C@_1BI@PCKFNJFB@?$AAL?$AAC?$AA_?$AAM?$AAO?$AAN?$AAE?$AAT?$AAA?$AAR?$AAY?$AA?$AA@ 00000001800da840     LIBCMTD:wsetloca.obj
 0002:00012858       ??_C@_1BG@ENIEDKID@?$AAL?$AAC?$AA_?$AAN?$AAU?$AAM?$AAE?$AAR?$AAI?$AAC?$AA?$AA@ 00000001800da858     LIBCMTD:wsetloca.obj
 0002:00012870       ??_C@_1BA@HAAOMIIG@?$AAL?$AAC?$AA_?$AAT?$AAI?$AAM?$AAE?$AA?$AA@ 00000001800da870     LIBCMTD:wsetloca.obj
 0002:00012900       ??_C@_1GA@LDEGDKD@?$AA?$CI?$AA?$CC?$AAI?$AAn?$AAv?$AAa?$AAl?$AAi?$AAd?$AA?5?$AAp?$AAa?$AAr?$AAa?$AAm?$AAe?$AAt?$AAe?$AAr?$AA?5?$AAf?$AAo?$AAr?$AA?5?$AA_?$AAc?$AAo?$AAn?$AAf?$AAi?$AAg?$AAt@ 00000001800da900     LIBCMTD:wsetloca.obj
 0002:00012960       ??_C@_1FC@GFIKBLFA@?$AAf?$AA?3?$AA?2?$AAd?$AAd?$AA?2?$AAv?$AAc?$AAt?$AAo?$AAo?$AAl?$AAs?$AA?2?$AAc?$AAr?$AAt?$AA?2?$AAc?$AAr?$AAt?$AAw?$AA3?$AA2?$AA?2?$AAm?$AAi?$AAs?$AAc?$AA?2?$AAw?$AAs@ 00000001800da960     LIBCMTD:wsetloca.obj
 0002:000129b8       ??_C@_1CI@FGIONOJM@?$AA_?$AAc?$AAo?$AAn?$AAf?$AAi?$AAg?$AAt?$AAh?$AAr?$AAe?$AAa?$AAd?$AAl?$AAo?$AAc?$AAa?$AAl?$AAe?$AA?$AA@ 00000001800da9b8     LIBCMTD:wsetloca.obj
 0002:000129e0       ??_C@_0CJ@MIILEBP@f?3?2dd?2vctools?2crt?2crtw32?2misc?2ws@ 00000001800da9e0     LIBCMTD:wsetloca.obj
 0002:00012a10       ??_C@_1FG@OHLFEKMC@?$AAL?$AAC?$AA_?$AAM?$AAI?$AAN?$AA?5?$AA?$DM?$AA?$DN?$AA?5?$AA_?$AAc?$AAa?$AAt?$AAe?$AAg?$AAo?$AAr?$AAy?$AA?5?$AA?$CG?$AA?$CG?$AA?5?$AA_?$AAc?$AAa?$AAt?$AAe?$AAg?$AAo?$AAr?$AAy@ 00000001800daa10     LIBCMTD:wsetloca.obj
 0002:00012a68       ??_C@_1BI@KJNPAEHL@?$AA_?$AAw?$AAs?$AAe?$AAt?$AAl?$AAo?$AAc?$AAa?$AAl?$AAe?$AA?$AA@ 00000001800daa68     LIBCMTD:wsetloca.obj
 0002:00012a80       ??_C@_15NBPDDFIP@?$AA?$DN?$AA?$DL?$AA?$AA@ 00000001800daa80     LIBCMTD:wsetloca.obj
 0002:00012a88       ??_C@_13PJJBFPED@?$AA?$DL?$AA?$AA@ 00000001800daa88     LIBCMTD:wsetloca.obj
 0002:00012a90       ??_C@_1CG@DKJCBBPP@?$AA_?$AAw?$AAs?$AAe?$AAt?$AAl?$AAo?$AAc?$AAa?$AAl?$AAe?$AA_?$AAn?$AAo?$AAl?$AAo?$AAc?$AAk?$AA?$AA@ 00000001800daa90     LIBCMTD:wsetloca.obj
 0002:00012ac0       ??_C@_1IA@DGCOPCLP@?$AAw?$AAc?$AAs?$AAn?$AAc?$AAp?$AAy?$AA_?$AAs?$AA?$CI?$AAl?$AAc?$AAt?$AAe?$AAm?$AAp?$AA?0?$AA?5?$AA?$CI?$AAs?$AAi?$AAz?$AAe?$AAo?$AAf?$AA?$CI?$AAl?$AAc?$AAt?$AAe?$AAm?$AAp@ 00000001800daac0     LIBCMTD:wsetloca.obj
 0002:00012b40       ??_C@_1CI@ODOPEMNJ@?$AA_?$AAw?$AAs?$AAe?$AAt?$AAl?$AAo?$AAc?$AAa?$AAl?$AAe?$AA_?$AAs?$AAe?$AAt?$AA_?$AAc?$AAa?$AAt?$AA?$AA@ 00000001800dab40     LIBCMTD:wsetloca.obj
 0002:00012b70       ??_C@_1EM@MHOCNIAA@?$AAw?$AAc?$AAs?$AAc?$AAp?$AAy?$AA_?$AAs?$AA?$CI?$AAp?$AAc?$AAh?$AA_?$AAc?$AAa?$AAt?$AA_?$AAl?$AAo?$AAc?$AAa?$AAl?$AAe?$AA?0?$AA?5?$AAc?$AAc?$AAh?$AA?0?$AA?5?$AAl?$AAc@ 00000001800dab70     LIBCMTD:wsetloca.obj
 0002:00012bbc       ??_C@_13NMPKAAJP@?$AA?$DN?$AA?$AA@ 00000001800dabbc     LIBCMTD:wsetloca.obj
 0002:00012bc0       ??_C@_1CI@LKOPFFBD@?$AA_?$AAw?$AAs?$AAe?$AAt?$AAl?$AAo?$AAc?$AAa?$AAl?$AAe?$AA_?$AAg?$AAe?$AAt?$AA_?$AAa?$AAl?$AAl?$AA?$AA@ 00000001800dabc0     LIBCMTD:wsetloca.obj
 0002:00012be8       ??_C@_1DC@HMLJMODP@?$AAw?$AAc?$AAs?$AAc?$AAa?$AAt?$AA_?$AAs?$AA?$CI?$AAp?$AAc?$AAh?$AA?0?$AA?5?$AAc?$AAc?$AAh?$AA?0?$AA?5?$AAL?$AA?$CC?$AA?$DL?$AA?$CC?$AA?$CJ?$AA?$AA@ 00000001800dabe8     LIBCMTD:wsetloca.obj
 0002:00012c20       ??_C@_1BM@OIIBLEFG@?$AA_?$AAe?$AAx?$AAp?$AAa?$AAn?$AAd?$AAl?$AAo?$AAc?$AAa?$AAl?$AAe?$AA?$AA@ 00000001800dac20     LIBCMTD:wsetloca.obj
 0002:00012c40       ??_C@_1BFG@FHLOBJGM@?$AAw?$AAc?$AAs?$AAn?$AAc?$AAp?$AAy?$AA_?$AAs?$AA?$CI?$AAl?$AAo?$AAc?$AAa?$AAl?$AAe?$AAN?$AAa?$AAm?$AAe?$AAO?$AAu?$AAt?$AAp?$AAu?$AAt?$AA?0?$AA?5?$AAl?$AAo?$AAc?$AAa@ 00000001800dac40     LIBCMTD:wsetloca.obj
 0002:00012da0       ??_C@_1EI@OCINLCHN@?$AAw?$AAc?$AAs?$AAc?$AAp?$AAy?$AA_?$AAs?$AA?$CI?$AAo?$AAu?$AAt?$AAp?$AAu?$AAt?$AA?0?$AA?5?$AAs?$AAi?$AAz?$AAe?$AAI?$AAn?$AAC?$AAh?$AAa?$AAr?$AAs?$AA?0?$AA?5?$AAL?$AA?$CC@ 00000001800dada0     LIBCMTD:wsetloca.obj
 0002:00012de8       ??_C@_13FHBKNHDA@?$AAC?$AA?$AA@ 00000001800dade8     LIBCMTD:wsetloca.obj
 0002:00012df0       ??_C@_1MO@NNCNEOAP@?$AAw?$AAc?$AAs?$AAn?$AAc?$AAp?$AAy?$AA_?$AAs?$AA?$CI?$AAl?$AAo?$AAc?$AAa?$AAl?$AAe?$AAN?$AAa?$AAm?$AAe?$AAO?$AAu?$AAt?$AAp?$AAu?$AAt?$AA?0?$AA?5?$AAl?$AAo?$AAc?$AAa@ 00000001800dadf0     LIBCMTD:wsetloca.obj
 0002:00012ec0       ??_C@_1IG@MKDIEKFD@?$AAw?$AAc?$AAs?$AAn?$AAc?$AAp?$AAy?$AA_?$AAs?$AA?$CI?$AAc?$AAa?$AAc?$AAh?$AAe?$AAo?$AAu?$AAt?$AA?0?$AA?5?$AAc?$AAa?$AAc?$AAh?$AAe?$AAo?$AAu?$AAt?$AAL?$AAe?$AAn?$AA?0@ 00000001800daec0     LIBCMTD:wsetloca.obj
 0002:00012f50       ??_C@_1KK@KMIFPBBC@?$AAw?$AAc?$AAs?$AAn?$AAc?$AAp?$AAy?$AA_?$AAs?$AA?$CI?$AAl?$AAo?$AAc?$AAa?$AAl?$AAe?$AAN?$AAa?$AAm?$AAe?$AAO?$AAu?$AAt?$AAp?$AAu?$AAt?$AA?0?$AA?5?$AAl?$AAo?$AAc?$AAa@ 00000001800daf50     LIBCMTD:wsetloca.obj
 0002:00013000       ??_C@_1BEK@OJDMMIMP@?$AAw?$AAc?$AAs?$AAn?$AAc?$AAp?$AAy?$AA_?$AAs?$AA?$CI?$AA_?$AAp?$AAs?$AAe?$AAt?$AAl?$AAo?$AAc?$AA_?$AAd?$AAa?$AAt?$AAa?$AA?9?$AA?$DO?$AA_?$AAc?$AAa?$AAc?$AAh?$AAe?$AAL@ 00000001800db000     LIBCMTD:wsetloca.obj
 0002:00013150       ??_C@_1BGG@FCLLNAOE@?$AAw?$AAc?$AAs?$AAn?$AAc?$AAp?$AAy?$AA_?$AAs?$AA?$CI?$AA_?$AAp?$AAs?$AAe?$AAt?$AAl?$AAo?$AAc?$AA_?$AAd?$AAa?$AAt?$AAa?$AA?9?$AA?$DO?$AA_?$AAc?$AAa?$AAc?$AAh?$AAe?$AAL@ 00000001800db150     LIBCMTD:wsetloca.obj
 0002:000132c0       ??_C@_1IC@FCCDBGLL@?$AAw?$AAc?$AAs?$AAn?$AAc?$AAp?$AAy?$AA_?$AAs?$AA?$CI?$AAc?$AAa?$AAc?$AAh?$AAe?$AAi?$AAn?$AA?0?$AA?5?$AAc?$AAa?$AAc?$AAh?$AAe?$AAi?$AAn?$AAL?$AAe?$AAn?$AA?0?$AA?5?$AAe@ 00000001800db2c0     LIBCMTD:wsetloca.obj
 0002:00013350       ??_C@_1FA@HOOAAHFF@?$AAw?$AAc?$AAs?$AAc?$AAp?$AAy?$AA_?$AAs?$AA?$CI?$AAo?$AAu?$AAt?$AAp?$AAu?$AAt?$AA?0?$AA?5?$AAs?$AAi?$AAz?$AAe?$AAI?$AAn?$AAC?$AAh?$AAa?$AAr?$AAs?$AA?0?$AA?5?$AAc?$AAa@ 00000001800db350     LIBCMTD:wsetloca.obj
 0002:000133a0       ??_C@_1BC@LEOKFFML@?$AA_?$AAw?$AAc?$AAs?$AAc?$AAa?$AAt?$AAs?$AA?$AA@ 00000001800db3a0     LIBCMTD:wsetloca.obj
 0002:000133c0       ??_C@_1CCE@OOPDKDD@?$AAw?$AAc?$AAs?$AAc?$AAa?$AAt?$AA_?$AAs?$AA?$CI?$AAo?$AAu?$AAt?$AAs?$AAt?$AAr?$AA?0?$AA?5?$AAn?$AAu?$AAm?$AAb?$AAe?$AAr?$AAO?$AAf?$AAE?$AAl?$AAe?$AAm?$AAe?$AAn?$AAt@ 00000001800db3c0     LIBCMTD:wsetloca.obj
 0002:000135e8       ??_C@_1BK@GNCHCGCN@?$AA_?$AA_?$AAl?$AAc?$AA_?$AAw?$AAc?$AAs?$AAt?$AAo?$AAl?$AAc?$AA?$AA@ 00000001800db5e8     LIBCMTD:wsetloca.obj
 0002:00013610       ??_C@_1NI@NELJHJBO@?$AAw?$AAc?$AAs?$AAn?$AAc?$AAp?$AAy?$AA_?$AAs?$AA?$CI?$AAn?$AAa?$AAm?$AAe?$AAs?$AA?9?$AA?$DO?$AAs?$AAz?$AAC?$AAo?$AAd?$AAe?$AAP?$AAa?$AAg?$AAe?$AA?0?$AA?5?$AA?$CI?$AAs?$AAi@ 00000001800db610     LIBCMTD:wsetloca.obj
 0002:000136e8       ??_C@_17MBJJLFDM@?$AA_?$AA?4?$AA?0?$AA?$AA@ 00000001800db6e8     LIBCMTD:wsetloca.obj
 0002:000136f0       ??_C@_1MO@PBGOIBFL@?$AAw?$AAc?$AAs?$AAn?$AAc?$AAp?$AAy?$AA_?$AAs?$AA?$CI?$AAn?$AAa?$AAm?$AAe?$AAs?$AA?9?$AA?$DO?$AAs?$AAz?$AAL?$AAa?$AAn?$AAg?$AAu?$AAa?$AAg?$AAe?$AA?0?$AA?5?$AA?$CI?$AAs?$AAi@ 00000001800db6f0     LIBCMTD:wsetloca.obj
 0002:000137c0       ??_C@_1MI@CLMFNAAJ@?$AAw?$AAc?$AAs?$AAn?$AAc?$AAp?$AAy?$AA_?$AAs?$AA?$CI?$AAn?$AAa?$AAm?$AAe?$AAs?$AA?9?$AA?$DO?$AAs?$AAz?$AAC?$AAo?$AAu?$AAn?$AAt?$AAr?$AAy?$AA?0?$AA?5?$AA?$CI?$AAs?$AAi?$AAz@ 00000001800db7c0     LIBCMTD:wsetloca.obj
 0002:00013890       ??_C@_1MO@NBFBMKCB@?$AAw?$AAc?$AAs?$AAn?$AAc?$AAp?$AAy?$AA_?$AAs?$AA?$CI?$AAn?$AAa?$AAm?$AAe?$AAs?$AA?9?$AA?$DO?$AAs?$AAz?$AAC?$AAo?$AAd?$AAe?$AAP?$AAa?$AAg?$AAe?$AA?0?$AA?5?$AA?$CI?$AAs?$AAi@ 00000001800db890     LIBCMTD:wsetloca.obj
 0002:00013960       ??_C@_1BK@HEBMGPEK@?$AA_?$AA_?$AAl?$AAc?$AA_?$AAl?$AAc?$AAt?$AAo?$AAw?$AAc?$AAs?$AA?$AA@ 00000001800db960     LIBCMTD:wsetloca.obj
 0002:00013980       ??_C@_1GM@FOFMGOEK@?$AAw?$AAc?$AAs?$AAc?$AAp?$AAy?$AA_?$AAs?$AA?$CI?$AAl?$AAo?$AAc?$AAa?$AAl?$AAe?$AA?0?$AA?5?$AAn?$AAu?$AAm?$AAb?$AAe?$AAr?$AAO?$AAf?$AAE?$AAl?$AAe?$AAm?$AAe?$AAn?$AAt@ 00000001800db980     LIBCMTD:wsetloca.obj
 0002:000139ec       ??_C@_13ENNFDPBH@?$AA_?$AA?$AA@ 00000001800db9ec     LIBCMTD:wsetloca.obj
 0002:000139f0       ??_C@_13JOFGPIOO@?$AA?4?$AA?$AA@ 00000001800db9f0     LIBCMTD:wsetloca.obj
 0002:000139f8       ??_C@_1CG@HCGEAFEA@?$AA_?$AA_?$AAc?$AAo?$AAp?$AAy?$AA_?$AAl?$AAo?$AAc?$AAa?$AAl?$AAe?$AA_?$AAn?$AAa?$AAm?$AAe?$AA?$AA@ 00000001800db9f8     LIBCMTD:wsetloca.obj
 0002:00013a20       ??_C@_1GI@HBNMCKGD@?$AAw?$AAc?$AAs?$AAn?$AAc?$AAp?$AAy?$AA_?$AAs?$AA?$CI?$AAl?$AAo?$AAc?$AAa?$AAl?$AAe?$AAN?$AAa?$AAm?$AAe?$AAC?$AAo?$AAp?$AAy?$AA?0?$AA?5?$AAc?$AAc?$AAh?$AA?$CL?$AA1?$AA?0@ 00000001800dba20     LIBCMTD:wsetloca.obj
 0002:00013a88       ??_C@_1CA@MBDBOHIB@?$AA_?$AAL?$AAo?$AAc?$AAa?$AAl?$AAe?$AA?5?$AA?$CB?$AA?$DN?$AA?5?$AAN?$AAU?$AAL?$AAL?$AA?$AA@ 00000001800dba88     LIBCMTD:strgtold.obj
 0002:00013ab0       ??_C@_1FO@OFJNJPKB@?$AAf?$AA?3?$AA?2?$AAd?$AAd?$AA?2?$AAv?$AAc?$AAt?$AAo?$AAo?$AAl?$AAs?$AA?2?$AAc?$AAr?$AAt?$AA?2?$AAf?$AAp?$AAw?$AA3?$AA2?$AA?2?$AAi?$AAn?$AAc?$AAl?$AAu?$AAd?$AAe?$AA?2@ 00000001800dbab0     LIBCMTD:strgtold.obj
 0002:00013b10       ??_C@_1BO@IHLJHOPI@?$AA_?$AA_?$AAs?$AAt?$AAr?$AAg?$AAt?$AAo?$AAl?$AAd?$AA1?$AA2?$AA_?$AAl?$AA?$AA@ 00000001800dbb10     LIBCMTD:strgtold.obj
 0002:00013b30       ??_C@_1EO@IKHIJFCK@?$AAf?$AA?3?$AA?2?$AAd?$AAd?$AA?2?$AAv?$AAc?$AAt?$AAo?$AAo?$AAl?$AAs?$AA?2?$AAc?$AAr?$AAt?$AA?2?$AAf?$AAp?$AAw?$AA3?$AA2?$AA?2?$AAc?$AAo?$AAn?$AAv?$AA?2?$AAx?$AA1?$AA0@ 00000001800dbb30     LIBCMTD:x10fout.obj
 0002:00013b80       ??_C@_1BI@ELMAAFLN@?$AA$?$AAI?$AA1?$AA0?$AA_?$AAO?$AAU?$AAT?$AAP?$AAU?$AAT?$AA?$AA@ 00000001800dbb80     LIBCMTD:x10fout.obj
 0002:00013ba0       ??_C@_1EG@CDDBFNOB@?$AAs?$AAt?$AAr?$AAc?$AAp?$AAy?$AA_?$AAs?$AA?$CI?$AAf?$AAo?$AAs?$AA?9?$AA?$DO?$AAm?$AAa?$AAn?$AA?0?$AA?5?$AA2?$AA1?$AA?$CL?$AA1?$AA?0?$AA?5?$AA?$CC?$AA1?$AA?$CD?$AAS?$AAN?$AAA?$AAN@ 00000001800dbba0     LIBCMTD:x10fout.obj
 0002:00013be8       ??_C@_06PGGFOGJG@1?$CDSNAN?$AA@ 00000001800dbbe8     LIBCMTD:x10fout.obj
 0002:00013bf0       ??_C@_1EE@MADEBIHF@?$AAs?$AAt?$AAr?$AAc?$AAp?$AAy?$AA_?$AAs?$AA?$CI?$AAf?$AAo?$AAs?$AA?9?$AA?$DO?$AAm?$AAa?$AAn?$AA?0?$AA?5?$AA2?$AA1?$AA?$CL?$AA1?$AA?0?$AA?5?$AA?$CC?$AA1?$AA?$CD?$AAI?$AAN?$AAD?$AA?$CC@ 00000001800dbbf0     LIBCMTD:x10fout.obj
 0002:00013c34       ??_C@_05PHHOCPM@1?$CDIND?$AA@ 00000001800dbc34     LIBCMTD:x10fout.obj
 0002:00013c40       ??_C@_1EE@ICBBBPAI@?$AAs?$AAt?$AAr?$AAc?$AAp?$AAy?$AA_?$AAs?$AA?$CI?$AAf?$AAo?$AAs?$AA?9?$AA?$DO?$AAm?$AAa?$AAn?$AA?0?$AA?5?$AA2?$AA1?$AA?$CL?$AA1?$AA?0?$AA?5?$AA?$CC?$AA1?$AA?$CD?$AAI?$AAN?$AAF?$AA?$CC@ 00000001800dbc40     LIBCMTD:x10fout.obj
 0002:00013c84       ??_C@_05DNEBIAHO@1?$CDINF?$AA@ 00000001800dbc84     LIBCMTD:x10fout.obj
 0002:00013c90       ??_C@_1EG@MCFPJJEM@?$AAs?$AAt?$AAr?$AAc?$AAp?$AAy?$AA_?$AAs?$AA?$CI?$AAf?$AAo?$AAs?$AA?9?$AA?$DO?$AAm?$AAa?$AAn?$AA?0?$AA?5?$AA2?$AA1?$AA?$CL?$AA1?$AA?0?$AA?5?$AA?$CC?$AA1?$AA?$CD?$AAQ?$AAN?$AAA?$AAN@ 00000001800dbc90     LIBCMTD:x10fout.obj
 0002:00013cd8       ??_C@_06IMKFLFPG@1?$CDQNAN?$AA@ 00000001800dbcd8     LIBCMTD:x10fout.obj
 0002:00013ce0       __newctype                 00000001800dbce0     LIBCMTD:ctype.obj
 0002:00013fe0       _wctype                    00000001800dbfe0     LIBCMTD:ctype.obj
 0002:000141f0       __newclmap                 00000001800dc1f0     LIBCMTD:ctype.obj
 0002:00014370       __newcumap                 00000001800dc370     LIBCMTD:ctype.obj
 0002:000144f0       ??_C@_1FE@DHCMIOFC@?$AAf?$AA?3?$AA?2?$AAd?$AAd?$AA?2?$AAv?$AAc?$AAt?$AAo?$AAo?$AAl?$AAs?$AA?2?$AAc?$AAr?$AAt?$AA?2?$AAc?$AAr?$AAt?$AAw?$AA3?$AA2?$AA?2?$AAs?$AAt?$AAd?$AAi?$AAo?$AA?2?$AAv@ 00000001800dc4f0     LIBCMTD:vswprint.obj
 0002:00014548       ??_C@_1BK@EPLNBKAK@?$AA_?$AAv?$AAs?$AAw?$AAp?$AAr?$AAi?$AAn?$AAt?$AAf?$AA_?$AAl?$AA?$AA@ 00000001800dc548     LIBCMTD:vswprint.obj
 0002:00014568       ??_C@_1CG@IMMIEPNA@?$AA_?$AAv?$AAs?$AAc?$AAw?$AAp?$AAr?$AAi?$AAn?$AAt?$AAf?$AA_?$AAh?$AAe?$AAl?$AAp?$AAe?$AAr?$AA?$AA@ 00000001800dc568     LIBCMTD:vswprint.obj
 0002:00014590       ??_C@_1CE@IGKFIJFD@?$AA_?$AAv?$AAs?$AAw?$AAp?$AAr?$AAi?$AAn?$AAt?$AAf?$AA_?$AAh?$AAe?$AAl?$AAp?$AAe?$AAr?$AA?$AA@ 00000001800dc590     LIBCMTD:vswprnc.obj
 0002:000145c0       ??_C@_1EC@FABAOFFO@?$AA?$CI?$AAc?$AAo?$AAu?$AAn?$AAt?$AA?5?$AA?$DN?$AA?$DN?$AA?5?$AA0?$AA?$CJ?$AA?5?$AA?$HM?$AA?$HM?$AA?5?$AA?$CI?$AAs?$AAt?$AAr?$AAi?$AAn?$AAg?$AA?5?$AA?$CB?$AA?$DN?$AA?5?$AAN?$AAU?$AAL?$AAL?$AA?$CJ@ 00000001800dc5c0     LIBCMTD:vswprnc.obj
 0002:00014608       ??_C@_1BO@MLMCMBKN@?$AAf?$AAo?$AAr?$AAm?$AAa?$AAt?$AA?5?$AA?$CB?$AA?$DN?$AA?5?$AAN?$AAU?$AAL?$AAL?$AA?$AA@ 00000001800dc608     LIBCMTD:vswprnc.obj
 0002:00014628       ??_C@_1BO@OALHJLCI@?$AA_?$AAv?$AAs?$AAw?$AAp?$AAr?$AAi?$AAn?$AAt?$AAf?$AA_?$AAs?$AA_?$AAl?$AA?$AA@ 00000001800dc628     LIBCMTD:vswprnc.obj
 0002:00014650       ??_C@_1EE@MPCHJFGP@?$AAs?$AAt?$AAr?$AAi?$AAn?$AAg?$AA?5?$AA?$CB?$AA?$DN?$AA?5?$AAN?$AAU?$AAL?$AAL?$AA?5?$AA?$CG?$AA?$CG?$AA?5?$AAs?$AAi?$AAz?$AAe?$AAI?$AAn?$AAW?$AAo?$AAr?$AAd?$AAs?$AA?5?$AA?$DO?$AA?5@ 00000001800dc650     LIBCMTD:vswprnc.obj
 0002:00014698       ??_C@_1CA@BKFKMJFF@?$AA_?$AAv?$AAs?$AAn?$AAw?$AAp?$AAr?$AAi?$AAn?$AAt?$AAf?$AA_?$AAs?$AA_?$AAl?$AA?$AA@ 00000001800dc698     LIBCMTD:vswprnc.obj
 0002:000146b8       ??_C@_1BG@BBCDFOMA@?$AA_?$AAw?$AAo?$AAu?$AAt?$AAp?$AAu?$AAt?$AA_?$AAl?$AA?$AA@ 00000001800dc6b8     LIBCMTD:woutput.obj
 0002:000146d0       ??_C@_1BC@HGPNAKGC@?$AAs?$AAt?$AAr?$AAc?$AAa?$AAt?$AA_?$AAs?$AA?$AA@ 00000001800dc6d0     LIBCMTD:strcat_s.obj
 0002:000146f0       ??_C@_1FA@LEFFAILN@?$AAf?$AA?3?$AA?2?$AAd?$AAd?$AA?2?$AAv?$AAc?$AAt?$AAo?$AAo?$AAl?$AAs?$AA?2?$AAc?$AAr?$AAt?$AA?2?$AAc?$AAr?$AAt?$AAw?$AA3?$AA2?$AA?2?$AAc?$AAo?$AAn?$AAv?$AAe?$AAr?$AAt@ 00000001800dc6f0     LIBCMTD:xtoas.obj
 0002:00014740       ??_C@_1O@GIMBNLEI@?$AAx?$AAt?$AAo?$AAa?$AA_?$AAs?$AA?$AA@ 00000001800dc740     LIBCMTD:xtoas.obj
 0002:00014750       ??_C@_1CC@JNJFIMGE@?$AAs?$AAi?$AAz?$AAe?$AAI?$AAn?$AAT?$AAC?$AAh?$AAa?$AAr?$AAs?$AA?5?$AA?$DO?$AA?5?$AA0?$AA?$AA@ 00000001800dc750     LIBCMTD:xtoas.obj
 0002:00014780       ??_C@_1FA@MKGGAGEI@?$AAs?$AAi?$AAz?$AAe?$AAI?$AAn?$AAT?$AAC?$AAh?$AAa?$AAr?$AAs?$AA?5?$AA?$DO?$AA?5?$AA?$CI?$AAs?$AAi?$AAz?$AAe?$AA_?$AAt?$AA?$CJ?$AA?$CI?$AAi?$AAs?$AA_?$AAn?$AAe?$AAg?$AA?5?$AA?$DP@ 00000001800dc780     LIBCMTD:xtoas.obj
 0002:000147d0       ??_C@_1DE@PCJGDBBD@?$AA2?$AA?5?$AA?$DM?$AA?$DN?$AA?5?$AAr?$AAa?$AAd?$AAi?$AAx?$AA?5?$AA?$CG?$AA?$CG?$AA?5?$AAr?$AAa?$AAd?$AAi?$AAx?$AA?5?$AA?$DM?$AA?$DN?$AA?5?$AA3?$AA6?$AA?$AA@ 00000001800dc7d0     LIBCMTD:xtoas.obj
 0002:00014808       ??_C@_1CM@HABGDNLJ@?$AAl?$AAe?$AAn?$AAg?$AAt?$AAh?$AA?5?$AA?$DM?$AA?5?$AAs?$AAi?$AAz?$AAe?$AAI?$AAn?$AAT?$AAC?$AAh?$AAa?$AAr?$AAs?$AA?$AA@ 00000001800dc808     LIBCMTD:xtoas.obj
 0002:00014838       ??_C@_1BC@MJJNBNFN@?$AAx?$AA6?$AA4?$AAt?$AAo?$AAa?$AA_?$AAs?$AA?$AA@ 00000001800dc838     LIBCMTD:xtoas.obj
 0002:00014850       ??_C@_1BE@EEKACIGI@?$AAs?$AA?5?$AA?$CB?$AA?$DN?$AA?5?$AAN?$AAU?$AAL?$AAL?$AA?$AA@ 00000001800dc850     LIBCMTD:mbstowcs.obj
 0002:00014870       ??_C@_1FI@DADFCCMF@?$AAf?$AA?3?$AA?2?$AAd?$AAd?$AA?2?$AAv?$AAc?$AAt?$AAo?$AAo?$AAl?$AAs?$AA?2?$AAc?$AAr?$AAt?$AA?2?$AAc?$AAr?$AAt?$AAw?$AA3?$AA2?$AA?2?$AAc?$AAo?$AAn?$AAv?$AAe?$AAr?$AAt@ 00000001800dc870     LIBCMTD:mbstowcs.obj
 0002:000148c8       ??_C@_1CG@JEHFHLNG@?$AA_?$AAm?$AAb?$AAs?$AAt?$AAo?$AAw?$AAc?$AAs?$AA_?$AAl?$AA_?$AAh?$AAe?$AAl?$AAp?$AAe?$AAr?$AA?$AA@ 00000001800dc8c8     LIBCMTD:mbstowcs.obj
 0002:000148f0       ??_C@_1JA@JKDFMOPO@?$AA?$CI?$AAp?$AAw?$AAc?$AAs?$AA?5?$AA?$DN?$AA?$DN?$AA?5?$AAN?$AAU?$AAL?$AAL?$AA?5?$AA?$CG?$AA?$CG?$AA?5?$AAs?$AAi?$AAz?$AAe?$AAI?$AAn?$AAW?$AAo?$AAr?$AAd?$AAs?$AA?5?$AA?$DN?$AA?$DN?$AA?5@ 00000001800dc8f0     LIBCMTD:mbstowcs.obj
 0002:00014980       ??_C@_1BM@PHENIGHD@?$AA_?$AAm?$AAb?$AAs?$AAt?$AAo?$AAw?$AAc?$AAs?$AA_?$AAs?$AA_?$AAl?$AA?$AA@ 00000001800dc980     LIBCMTD:mbstowcs.obj
 0002:000149a0       ??_C@_1CM@LLECFMFH@?$AAb?$AAu?$AAf?$AAf?$AAe?$AAr?$AAS?$AAi?$AAz?$AAe?$AA?5?$AA?$DM?$AA?$DN?$AA?5?$AAI?$AAN?$AAT?$AA_?$AAM?$AAA?$AAX?$AA?$AA@ 00000001800dc9a0     LIBCMTD:mbstowcs.obj
 0002:000149d0       ??_C@_1CO@JNPEPJAL@?$AAr?$AAe?$AAt?$AAs?$AAi?$AAz?$AAe?$AA?5?$AA?$DM?$AA?$DN?$AA?5?$AAs?$AAi?$AAz?$AAe?$AAI?$AAn?$AAW?$AAo?$AAr?$AAd?$AAs?$AA?$AA@ 00000001800dc9d0     LIBCMTD:mbstowcs.obj
 0002:00014a00       ??_C@_1BK@OIBENBPM@?$AAp?$AAw?$AAc?$AAs?$AA?5?$AA?$CB?$AA?$DN?$AA?5?$AAN?$AAU?$AAL?$AAL?$AA?$AA@ 00000001800dca00     LIBCMTD:wcstombs.obj
 0002:00014a20       ??_C@_1FI@GCFLNCOB@?$AAf?$AA?3?$AA?2?$AAd?$AAd?$AA?2?$AAv?$AAc?$AAt?$AAo?$AAo?$AAl?$AAs?$AA?2?$AAc?$AAr?$AAt?$AA?2?$AAc?$AAr?$AAt?$AAw?$AA3?$AA2?$AA?2?$AAc?$AAo?$AAn?$AAv?$AAe?$AAr?$AAt@ 00000001800dca20     LIBCMTD:wcstombs.obj
 0002:00014a78       ??_C@_1CG@LLJCAOHF@?$AA_?$AAw?$AAc?$AAs?$AAt?$AAo?$AAm?$AAb?$AAs?$AA_?$AAl?$AA_?$AAh?$AAe?$AAl?$AAp?$AAe?$AAr?$AA?$AA@ 00000001800dca78     LIBCMTD:wcstombs.obj
 0002:00014aa0       ??_C@_1IM@MFGKHGBP@?$AA?$CI?$AAd?$AAs?$AAt?$AA?5?$AA?$CB?$AA?$DN?$AA?5?$AAN?$AAU?$AAL?$AAL?$AA?5?$AA?$CG?$AA?$CG?$AA?5?$AAs?$AAi?$AAz?$AAe?$AAI?$AAn?$AAB?$AAy?$AAt?$AAe?$AAs?$AA?5?$AA?$DO?$AA?5?$AA0?$AA?$CJ@ 00000001800dcaa0     LIBCMTD:wcstombs.obj
 0002:00014b30       ??_C@_1BM@BDMCLLDL@?$AA_?$AAw?$AAc?$AAs?$AAt?$AAo?$AAm?$AAb?$AAs?$AA_?$AAs?$AA_?$AAl?$AA?$AA@ 00000001800dcb30     LIBCMTD:wcstombs.obj
 0002:00014b50       ??_C@_1CM@KEOGBFLI@?$AAs?$AAi?$AAz?$AAe?$AAI?$AAn?$AAB?$AAy?$AAt?$AAe?$AAs?$AA?5?$AA?$DO?$AA?5?$AAr?$AAe?$AAt?$AAs?$AAi?$AAz?$AAe?$AA?$AA@ 00000001800dcb50     LIBCMTD:wcstombs.obj
 0002:00014b80       ??_C@_1O@NCBFODOE@?$AAx?$AAt?$AAo?$AAw?$AA_?$AAs?$AA?$AA@ 00000001800dcb80     LIBCMTD:xtows.obj
 0002:00014b90       ??_C@_1BC@HDEJCFPB@?$AAx?$AA6?$AA4?$AAt?$AAo?$AAw?$AA_?$AAs?$AA?$AA@ 00000001800dcb90     LIBCMTD:xtows.obj
 0002:00014bb0       ??_C@_1FE@CKCGICM@?$AAf?$AA?3?$AA?2?$AAd?$AAd?$AA?2?$AAv?$AAc?$AAt?$AAo?$AAo?$AAl?$AAs?$AA?2?$AAc?$AAr?$AAt?$AA?2?$AAc?$AAr?$AAt?$AAw?$AA3?$AA2?$AA?2?$AAs?$AAt?$AAd?$AAi?$AAo?$AA?2?$AAv@ 00000001800dcbb0     LIBCMTD:vsnprnc.obj
 0002:00014c08       ??_C@_1CE@PCFPEIFI@?$AA_?$AAv?$AAs?$AAn?$AAp?$AAr?$AAi?$AAn?$AAt?$AAf?$AA_?$AAh?$AAe?$AAl?$AAp?$AAe?$AAr?$AA?$AA@ 00000001800dcc08     LIBCMTD:vsnprnc.obj
 0002:00014c30       ??_C@_1BM@BLJALHEF@?$AA_?$AAv?$AAs?$AAp?$AAr?$AAi?$AAn?$AAt?$AAf?$AA_?$AAs?$AA_?$AAl?$AA?$AA@ 00000001800dcc30     LIBCMTD:vsnprnc.obj
 0002:00014c50       ??_C@_1EE@OKCKIGFK@?$AAs?$AAt?$AAr?$AAi?$AAn?$AAg?$AA?5?$AA?$CB?$AA?$DN?$AA?5?$AAN?$AAU?$AAL?$AAL?$AA?5?$AA?$CG?$AA?$CG?$AA?5?$AAs?$AAi?$AAz?$AAe?$AAI?$AAn?$AAB?$AAy?$AAt?$AAe?$AAs?$AA?5?$AA?$DO?$AA?5@ 00000001800dcc50     LIBCMTD:vsnprnc.obj
 0002:00014c98       ??_C@_1BO@MMPELNIM@?$AA_?$AAv?$AAs?$AAn?$AAp?$AAr?$AAi?$AAn?$AAt?$AAf?$AA_?$AAs?$AA_?$AAl?$AA?$AA@ 00000001800dcc98     LIBCMTD:vsnprnc.obj
 0002:00014cb8       ??_C@_1BI@IGILPKD@?$AA_?$AAv?$AAs?$AAp?$AAr?$AAi?$AAn?$AAt?$AAf?$AA_?$AAl?$AA?$AA@ 00000001800dccb8     LIBCMTD:vsprintf.obj
 0002:00014cd0       ??_C@_1CE@HMKDJHB@?$AA_?$AAv?$AAs?$AAc?$AAp?$AAr?$AAi?$AAn?$AAt?$AAf?$AA_?$AAh?$AAe?$AAl?$AAp?$AAe?$AAr?$AA?$AA@ 00000001800dccd0     LIBCMTD:vsprintf.obj
 0002:00014d00       ??_C@_1FA@HHFEGMDA@?$AAf?$AA?3?$AA?2?$AAd?$AAd?$AA?2?$AAv?$AAc?$AAt?$AAo?$AAo?$AAl?$AAs?$AA?2?$AAc?$AAr?$AAt?$AA?2?$AAc?$AAr?$AAt?$AAw?$AA3?$AA2?$AA?2?$AAs?$AAt?$AAd?$AAi?$AAo?$AA?2?$AAf@ 00000001800dcd00     LIBCMTD:fclose.obj
 0002:00014d50       ??_C@_1O@EGMJNCOI@?$AAf?$AAc?$AAl?$AAo?$AAs?$AAe?$AA?$AA@ 00000001800dcd50     LIBCMTD:fclose.obj
 0002:00014d60       ??_C@_1BM@JMKHIAHP@?$AA?$CI?$AAs?$AAt?$AAr?$AA?5?$AA?$CB?$AA?$DN?$AA?5?$AAN?$AAU?$AAL?$AAL?$AA?$CJ?$AA?$AA@ 00000001800dcd60     LIBCMTD:fclose.obj
 0002:00014d80       ??_C@_1BO@JINCABEC@?$AA_?$AAf?$AAc?$AAl?$AAo?$AAs?$AAe?$AA_?$AAn?$AAo?$AAl?$AAo?$AAc?$AAk?$AA?$AA@ 00000001800dcd80     LIBCMTD:fclose.obj
 0002:00014da0       ??_C@_1HC@KFLBHHBC@?$AA?$CI?$AAf?$AAi?$AAl?$AAe?$AAd?$AAe?$AAs?$AA?5?$AA?$DO?$AA?$DN?$AA?5?$AA0?$AA?5?$AA?$CG?$AA?$CG?$AA?5?$AA?$CI?$AAu?$AAn?$AAs?$AAi?$AAg?$AAn?$AAe?$AAd?$AA?$CJ?$AAf?$AAi?$AAl?$AAe?$AAd@ 00000001800dcda0     LIBCMTD:commit.obj
 0002:00014e20       ??_C@_1FA@HELGICMG@?$AAf?$AA?3?$AA?2?$AAd?$AAd?$AA?2?$AAv?$AAc?$AAt?$AAo?$AAo?$AAl?$AAs?$AA?2?$AAc?$AAr?$AAt?$AA?2?$AAc?$AAr?$AAt?$AAw?$AA3?$AA2?$AA?2?$AAl?$AAo?$AAw?$AAi?$AAo?$AA?2?$AAc@ 00000001800dce20     LIBCMTD:commit.obj
 0002:00014e70       ??_C@_1BA@FLNMBBIM@?$AA_?$AAc?$AAo?$AAm?$AAm?$AAi?$AAt?$AA?$AA@ 00000001800dce70     LIBCMTD:commit.obj
 0002:00014e80       ??_C@_1DG@LNNHNFHJ@?$AA?$CI?$AA_?$AAo?$AAs?$AAf?$AAi?$AAl?$AAe?$AA?$CI?$AAf?$AAi?$AAl?$AAe?$AAd?$AAe?$AAs?$AA?$CJ?$AA?5?$AA?$CG?$AA?5?$AAF?$AAO?$AAP?$AAE?$AAN?$AA?$CJ?$AA?$AA@ 00000001800dce80     LIBCMTD:commit.obj
 0002:00014ec0       ??_C@_1JE@ECKHFIFP@?$AA?$CI?$AA?$CC?$AAI?$AAn?$AAv?$AAa?$AAl?$AAi?$AAd?$AA?5?$AAf?$AAi?$AAl?$AAe?$AA?5?$AAd?$AAe?$AAs?$AAc?$AAr?$AAi?$AAp?$AAt?$AAo?$AAr?$AA?4?$AA?5?$AAF?$AAi?$AAl?$AAe?$AA?5@ 00000001800dcec0     LIBCMTD:commit.obj
 0002:00014f60       ??_C@_1EO@NLGPLDCN@?$AAf?$AA?3?$AA?2?$AAd?$AAd?$AA?2?$AAv?$AAc?$AAt?$AAo?$AAo?$AAl?$AAs?$AA?2?$AAc?$AAr?$AAt?$AA?2?$AAc?$AAr?$AAt?$AAw?$AA3?$AA2?$AA?2?$AAl?$AAo?$AAw?$AAi?$AAo?$AA?2?$AAw@ 00000001800dcf60     LIBCMTD:write.obj
 0002:00014fb0       ??_C@_1O@KOFKDHPL@?$AA_?$AAw?$AAr?$AAi?$AAt?$AAe?$AA?$AA@ 00000001800dcfb0     LIBCMTD:write.obj
 0002:00014fc0       ??_C@_1CM@OKGMMMDH@?$AA?$CI?$AA_?$AAo?$AAs?$AAf?$AAi?$AAl?$AAe?$AA?$CI?$AAf?$AAh?$AA?$CJ?$AA?5?$AA?$CG?$AA?5?$AAF?$AAO?$AAP?$AAE?$AAN?$AA?$CJ?$AA?$AA@ 00000001800dcfc0     LIBCMTD:write.obj
 0002:00014ff0       ??_C@_1BM@KFJLMBPG@?$AA?$CI?$AAb?$AAu?$AAf?$AA?5?$AA?$CB?$AA?$DN?$AA?5?$AAN?$AAU?$AAL?$AAL?$AA?$CJ?$AA?$AA@ 00000001800dcff0     LIBCMTD:write.obj
 0002:00015010       ??_C@_1BM@NCANHCIP@?$AA_?$AAw?$AAr?$AAi?$AAt?$AAe?$AA_?$AAn?$AAo?$AAl?$AAo?$AAc?$AAk?$AA?$AA@ 00000001800dd010     LIBCMTD:write.obj
 0002:00015030       ??_C@_1CC@EEOLPHGO@?$AA?$CI?$AA?$CI?$AAc?$AAn?$AAt?$AA?5?$AA?$CG?$AA?5?$AA1?$AA?$CJ?$AA?5?$AA?$DN?$AA?$DN?$AA?5?$AA0?$AA?$CJ?$AA?$AA@ 00000001800dd030     LIBCMTD:write.obj
 0002:00015058       ??_C@_1DI@CNMHHHLG@?$AAi?$AAs?$AAl?$AAe?$AAa?$AAd?$AAb?$AAy?$AAt?$AAe?$AA?$CI?$AA_?$AAd?$AAb?$AAc?$AAs?$AAB?$AAu?$AAf?$AAf?$AAe?$AAr?$AA?$CI?$AAf?$AAh?$AA?$CJ?$AA?$CJ?$AA?$AA@ 00000001800dd058     LIBCMTD:write.obj
 0002:000150b8       ??_C@_1BK@LAOAACLJ@?$AAn?$AAp?$AAt?$AAr?$AA?5?$AA?$CB?$AA?$DN?$AA?5?$AAN?$AAU?$AAL?$AAL?$AA?$AA@ 00000001800dd0b8     LIBCMTD:strtol.obj
 0002:000150e0       ??_C@_1FE@OOICPOFH@?$AAf?$AA?3?$AA?2?$AAd?$AAd?$AA?2?$AAv?$AAc?$AAt?$AAo?$AAo?$AAl?$AAs?$AA?2?$AAc?$AAr?$AAt?$AA?2?$AAc?$AAr?$AAt?$AAw?$AA3?$AA2?$AA?2?$AAc?$AAo?$AAn?$AAv?$AAe?$AAr?$AAt@ 00000001800dd0e0     LIBCMTD:strtol.obj
 0002:00015138       ??_C@_1BA@LOLAMAJG@?$AAs?$AAt?$AAr?$AAt?$AAo?$AAx?$AAl?$AA?$AA@ 00000001800dd138     LIBCMTD:strtol.obj
 0002:00015150       ??_C@_1FE@CEHLKAHD@?$AAi?$AAb?$AAa?$AAs?$AAe?$AA?5?$AA?$DN?$AA?$DN?$AA?5?$AA0?$AA?5?$AA?$HM?$AA?$HM?$AA?5?$AA?$CI?$AA2?$AA?5?$AA?$DM?$AA?$DN?$AA?5?$AAi?$AAb?$AAa?$AAs?$AAe?$AA?5?$AA?$CG?$AA?$CG?$AA?5?$AAi?$AAb?$AAa@ 00000001800dd150     LIBCMTD:strtol.obj
 0002:000151b0       ??_C@_1FE@NDDOFCDF@?$AAf?$AA?3?$AA?2?$AAd?$AAd?$AA?2?$AAv?$AAc?$AAt?$AAo?$AAo?$AAl?$AAs?$AA?2?$AAc?$AAr?$AAt?$AA?2?$AAc?$AAr?$AAt?$AAw?$AA3?$AA2?$AA?2?$AAl?$AAo?$AAw?$AAi?$AAo?$AA?2?$AAl@ 00000001800dd1b0     LIBCMTD:lseeki64.obj
 0002:00015208       ??_C@_1BE@KHFBJMNM@?$AA_?$AAl?$AAs?$AAe?$AAe?$AAk?$AAi?$AA6?$AA4?$AA?$AA@ 00000001800dd208     LIBCMTD:lseeki64.obj
 0002:00015220       ??_C@_1FC@LGKDBMCL@?$AAf?$AA?3?$AA?2?$AAd?$AAd?$AA?2?$AAv?$AAc?$AAt?$AAo?$AAo?$AAl?$AAs?$AA?2?$AAc?$AAr?$AAt?$AA?2?$AAc?$AAr?$AAt?$AAw?$AA3?$AA2?$AA?2?$AAs?$AAt?$AAd?$AAi?$AAo?$AA?2?$AA_@ 00000001800dd220     LIBCMTD:_getbuf.obj
 0002:00015278       ??_C@_0CJ@NMDFOMAF@f?3?2dd?2vctools?2crt?2crtw32?2stdio?2_@ 00000001800dd278     LIBCMTD:_getbuf.obj
 0002:000152a8       ??_C@_0CJ@JJMAJPPG@f?3?2dd?2vctools?2crt?2crtw32?2misc?2in@ 00000001800dd2a8     LIBCMTD:initctyp.obj
 0002:000152e0       ??_C@_1FC@OGCCCEID@?$AAf?$AA?3?$AA?2?$AAd?$AAd?$AA?2?$AAv?$AAc?$AAt?$AAo?$AAo?$AAl?$AAs?$AA?2?$AAc?$AAr?$AAt?$AA?2?$AAc?$AAr?$AAt?$AAw?$AA3?$AA2?$AA?2?$AAm?$AAi?$AAs?$AAc?$AA?2?$AAi?$AAn@ 00000001800dd2e0     LIBCMTD:initctyp.obj
 0002:00015338       ??_C@_1DG@NMBGBDM@?$AAp?$AAl?$AAo?$AAc?$AAi?$AA?9?$AA?$DO?$AAc?$AAt?$AAy?$AAp?$AAe?$AA1?$AA_?$AAr?$AAe?$AAf?$AAc?$AAo?$AAu?$AAn?$AAt?$AA?5?$AA?$DO?$AA?5?$AA0?$AA?$AA@ 00000001800dd338     LIBCMTD:initctyp.obj
 0002:00015370       ??_C@_1FG@DIHJFNHH@?$AAf?$AA?3?$AA?2?$AAd?$AAd?$AA?2?$AAv?$AAc?$AAt?$AAo?$AAo?$AAl?$AAs?$AA?2?$AAc?$AAr?$AAt?$AA?2?$AAc?$AAr?$AAt?$AAw?$AA3?$AA2?$AA?2?$AAh?$AA?2?$AAt?$AAm?$AAa?$AAk?$AAe@ 00000001800dd370     LIBCMTD:wmakepath_s.obj
 0002:000153c8       ??_C@_1BK@KHBCJPCH@?$AA_?$AAw?$AAm?$AAa?$AAk?$AAe?$AAp?$AAa?$AAt?$AAh?$AA_?$AAs?$AA?$AA@ 00000001800dd3c8     LIBCMTD:wmakepath_s.obj
 0002:000153e8       ??_C@_1CI@MLPLHPBP@?$AA?$CI?$AA?$CI?$AA?$CI?$AA_?$AAP?$AAa?$AAt?$AAh?$AA?$CJ?$AA?$CJ?$AA?$CJ?$AA?5?$AA?$CB?$AA?$DN?$AA?5?$AAN?$AAU?$AAL?$AAL?$AA?$AA@ 00000001800dd3e8     LIBCMTD:wsplitpath_s.obj
 0002:00015410       ??_C@_1FI@NIGODNLP@?$AAf?$AA?3?$AA?2?$AAd?$AAd?$AA?2?$AAv?$AAc?$AAt?$AAo?$AAo?$AAl?$AAs?$AA?2?$AAc?$AAr?$AAt?$AA?2?$AAc?$AAr?$AAt?$AAw?$AA3?$AA2?$AA?2?$AAh?$AA?2?$AAt?$AAs?$AAp?$AAl?$AAi@ 00000001800dd410     LIBCMTD:wsplitpath_s.obj
 0002:00015468       ??_C@_1BM@OEAFIBCF@?$AA_?$AAw?$AAs?$AAp?$AAl?$AAi?$AAt?$AAp?$AAa?$AAt?$AAh?$AA_?$AAs?$AA?$AA@ 00000001800dd468     LIBCMTD:wsplitpath_s.obj
 0002:00015488       ??_C@_1DE@MLEJGPLF@?$AA?$CI?$AAL?$AA?$CC?$AAI?$AAn?$AAv?$AAa?$AAl?$AAi?$AAd?$AA?5?$AAp?$AAa?$AAr?$AAa?$AAm?$AAe?$AAt?$AAe?$AAr?$AA?$CC?$AA?0?$AA?5?$AA0?$AA?$CJ?$AA?$AA@ 00000001800dd488     LIBCMTD:wsplitpath_s.obj
 0002:000154c0       _pDestructExceptionObject  00000001800dd4c0     LIBCMTD:frame.obj
 0002:000154d0       ??_7bad_exception@std@@6B@ 00000001800dd4d0     LIBCMTD:frame.obj
 0002:000154e0       ??_C@_0O@DPKOEFFH@bad?5exception?$AA@ 00000001800dd4e0     LIBCMTD:frame.obj
 0002:000154f0       __rg_language              00000001800dd4f0     LIBCMTD:getqloc.obj
 0002:00015900       ??_C@_1BC@LLOKLNP@?$AAa?$AAm?$AAe?$AAr?$AAi?$AAc?$AAa?$AAn?$AA?$AA@ 00000001800dd900     LIBCMTD:getqloc.obj
 0002:00015918       ??_C@_1CC@HEIGCDGG@?$AAa?$AAm?$AAe?$AAr?$AAi?$AAc?$AAa?$AAn?$AA?5?$AAe?$AAn?$AAg?$AAl?$AAi?$AAs?$AAh?$AA?$AA@ 00000001800dd918     LIBCMTD:getqloc.obj
 0002:00015940       ??_C@_1CC@IHCNOMIN@?$AAa?$AAm?$AAe?$AAr?$AAi?$AAc?$AAa?$AAn?$AA?9?$AAe?$AAn?$AAg?$AAl?$AAi?$AAs?$AAh?$AA?$AA@ 00000001800dd940     LIBCMTD:getqloc.obj
 0002:00015968       ??_C@_1BG@GKAGPCGG@?$AAa?$AAu?$AAs?$AAt?$AAr?$AAa?$AAl?$AAi?$AAa?$AAn?$AA?$AA@ 00000001800dd968     LIBCMTD:getqloc.obj
 0002:00015980       ??_C@_1BA@GMENCENF@?$AAb?$AAe?$AAl?$AAg?$AAi?$AAa?$AAn?$AA?$AA@ 00000001800dd980     LIBCMTD:getqloc.obj
 0002:00015990       ??_C@_1BC@PJMIIAAN@?$AAc?$AAa?$AAn?$AAa?$AAd?$AAi?$AAa?$AAn?$AA?$AA@ 00000001800dd990     LIBCMTD:getqloc.obj
 0002:000159a8       ??_C@_17NOIMNFBF@?$AAc?$AAh?$AAh?$AA?$AA@ 00000001800dd9a8     LIBCMTD:getqloc.obj
 0002:000159b0       ??_C@_17GGDALCHA@?$AAc?$AAh?$AAi?$AA?$AA@ 00000001800dd9b0     LIBCMTD:getqloc.obj
 0002:000159b8       ??_C@_1BA@NPNJKIBL@?$AAc?$AAh?$AAi?$AAn?$AAe?$AAs?$AAe?$AA?$AA@ 00000001800dd9b8     LIBCMTD:getqloc.obj
 0002:000159c8       ??_C@_1CC@DINBAMMJ@?$AAc?$AAh?$AAi?$AAn?$AAe?$AAs?$AAe?$AA?9?$AAh?$AAo?$AAn?$AAg?$AAk?$AAo?$AAn?$AAg?$AA?$AA@ 00000001800dd9c8     LIBCMTD:getqloc.obj
 0002:000159f0       ??_C@_1CG@IOBJPACO@?$AAc?$AAh?$AAi?$AAn?$AAe?$AAs?$AAe?$AA?9?$AAs?$AAi?$AAm?$AAp?$AAl?$AAi?$AAf?$AAi?$AAe?$AAd?$AA?$AA@ 00000001800dd9f0     LIBCMTD:getqloc.obj
 0002:00015a18       ??_C@_1CE@GAJNDCKG@?$AAc?$AAh?$AAi?$AAn?$AAe?$AAs?$AAe?$AA?9?$AAs?$AAi?$AAn?$AAg?$AAa?$AAp?$AAo?$AAr?$AAe?$AA?$AA@ 00000001800dda18     LIBCMTD:getqloc.obj
 0002:00015a40       ??_C@_1CI@PAJPIOOD@?$AAc?$AAh?$AAi?$AAn?$AAe?$AAs?$AAe?$AA?9?$AAt?$AAr?$AAa?$AAd?$AAi?$AAt?$AAi?$AAo?$AAn?$AAa?$AAl?$AA?$AA@ 00000001800dda40     LIBCMTD:getqloc.obj
 0002:00015a68       ??_C@_1BM@NILJBMMD@?$AAd?$AAu?$AAt?$AAc?$AAh?$AA?9?$AAb?$AAe?$AAl?$AAg?$AAi?$AAa?$AAn?$AA?$AA@ 00000001800dda68     LIBCMTD:getqloc.obj
 0002:00015a88       ??_C@_1CC@OOJPJNEJ@?$AAe?$AAn?$AAg?$AAl?$AAi?$AAs?$AAh?$AA?9?$AAa?$AAm?$AAe?$AAr?$AAi?$AAc?$AAa?$AAn?$AA?$AA@ 00000001800dda88     LIBCMTD:getqloc.obj
 0002:00015ab0       ??_C@_1BI@IOLFEEM@?$AAe?$AAn?$AAg?$AAl?$AAi?$AAs?$AAh?$AA?9?$AAa?$AAu?$AAs?$AA?$AA@ 00000001800ddab0     LIBCMTD:getqloc.obj
 0002:00015ac8       ??_C@_1BO@HFFNLENJ@?$AAe?$AAn?$AAg?$AAl?$AAi?$AAs?$AAh?$AA?9?$AAb?$AAe?$AAl?$AAi?$AAz?$AAe?$AA?$AA@ 00000001800ddac8     LIBCMTD:getqloc.obj
 0002:00015ae8       ??_C@_1BI@HAPKJMPO@?$AAe?$AAn?$AAg?$AAl?$AAi?$AAs?$AAh?$AA?9?$AAc?$AAa?$AAn?$AA?$AA@ 00000001800ddae8     LIBCMTD:getqloc.obj
 0002:00015b00       ??_C@_1CE@HLNDMIOJ@?$AAe?$AAn?$AAg?$AAl?$AAi?$AAs?$AAh?$AA?9?$AAc?$AAa?$AAr?$AAi?$AAb?$AAb?$AAe?$AAa?$AAn?$AA?$AA@ 00000001800ddb00     LIBCMTD:getqloc.obj
 0002:00015b28       ??_C@_1BI@LDHJHHAC@?$AAe?$AAn?$AAg?$AAl?$AAi?$AAs?$AAh?$AA?9?$AAi?$AAr?$AAe?$AA?$AA@ 00000001800ddb28     LIBCMTD:getqloc.obj
 0002:00015b40       ??_C@_1CA@NJMMCFOC@?$AAe?$AAn?$AAg?$AAl?$AAi?$AAs?$AAh?$AA?9?$AAj?$AAa?$AAm?$AAa?$AAi?$AAc?$AAa?$AA?$AA@ 00000001800ddb40     LIBCMTD:getqloc.obj
 0002:00015b60       ??_C@_1BG@BHJEBBGG@?$AAe?$AAn?$AAg?$AAl?$AAi?$AAs?$AAh?$AA?9?$AAn?$AAz?$AA?$AA@ 00000001800ddb60     LIBCMTD:getqloc.obj
 0002:00015b78       ??_C@_1CK@FGOEJJCO@?$AAe?$AAn?$AAg?$AAl?$AAi?$AAs?$AAh?$AA?9?$AAs?$AAo?$AAu?$AAt?$AAh?$AA?5?$AAa?$AAf?$AAr?$AAi?$AAc?$AAa?$AA?$AA@ 00000001800ddb78     LIBCMTD:getqloc.obj
 0002:00015ba8       ??_C@_1DE@PDBJPCJ@?$AAe?$AAn?$AAg?$AAl?$AAi?$AAs?$AAh?$AA?9?$AAt?$AAr?$AAi?$AAn?$AAi?$AAd?$AAa?$AAd?$AA?5?$AAy?$AA?5?$AAt?$AAo?$AAb?$AAa?$AAg?$AAo?$AA?$AA@ 00000001800ddba8     LIBCMTD:getqloc.obj
 0002:00015be0       ??_C@_1BG@JGCANDME@?$AAe?$AAn?$AAg?$AAl?$AAi?$AAs?$AAh?$AA?9?$AAu?$AAk?$AA?$AA@ 00000001800ddbe0     LIBCMTD:getqloc.obj
 0002:00015bf8       ??_C@_1BG@DINKMLE@?$AAe?$AAn?$AAg?$AAl?$AAi?$AAs?$AAh?$AA?9?$AAu?$AAs?$AA?$AA@ 00000001800ddbf8     LIBCMTD:getqloc.obj
 0002:00015c10       ??_C@_1BI@NMFDBHJE@?$AAe?$AAn?$AAg?$AAl?$AAi?$AAs?$AAh?$AA?9?$AAu?$AAs?$AAa?$AA?$AA@ 00000001800ddc10     LIBCMTD:getqloc.obj
 0002:00015c28       ??_C@_1BO@OIHKJKII@?$AAf?$AAr?$AAe?$AAn?$AAc?$AAh?$AA?9?$AAb?$AAe?$AAl?$AAg?$AAi?$AAa?$AAn?$AA?$AA@ 00000001800ddc28     LIBCMTD:getqloc.obj
 0002:00015c48       ??_C@_1CA@NKAELJKI@?$AAf?$AAr?$AAe?$AAn?$AAc?$AAh?$AA?9?$AAc?$AAa?$AAn?$AAa?$AAd?$AAi?$AAa?$AAn?$AA?$AA@ 00000001800ddc48     LIBCMTD:getqloc.obj
 0002:00015c68       ??_C@_1CE@MGKCNLGN@?$AAf?$AAr?$AAe?$AAn?$AAc?$AAh?$AA?9?$AAl?$AAu?$AAx?$AAe?$AAm?$AAb?$AAo?$AAu?$AAr?$AAg?$AA?$AA@ 00000001800ddc68     LIBCMTD:getqloc.obj
 0002:00015c90       ??_C@_1BK@CEGEAILM@?$AAf?$AAr?$AAe?$AAn?$AAc?$AAh?$AA?9?$AAs?$AAw?$AAi?$AAs?$AAs?$AA?$AA@ 00000001800ddc90     LIBCMTD:getqloc.obj
 0002:00015cb0       ??_C@_1CA@PAFKEOCC@?$AAg?$AAe?$AAr?$AAm?$AAa?$AAn?$AA?9?$AAa?$AAu?$AAs?$AAt?$AAr?$AAi?$AAa?$AAn?$AA?$AA@ 00000001800ddcb0     LIBCMTD:getqloc.obj
 0002:00015cd0       ??_C@_1CI@HCFHGOFD@?$AAg?$AAe?$AAr?$AAm?$AAa?$AAn?$AA?9?$AAl?$AAi?$AAc?$AAh?$AAt?$AAe?$AAn?$AAs?$AAt?$AAe?$AAi?$AAn?$AA?$AA@ 00000001800ddcd0     LIBCMTD:getqloc.obj
 0002:00015cf8       ??_C@_1CE@FEDDNPDG@?$AAg?$AAe?$AAr?$AAm?$AAa?$AAn?$AA?9?$AAl?$AAu?$AAx?$AAe?$AAm?$AAb?$AAo?$AAu?$AAr?$AAg?$AA?$AA@ 00000001800ddcf8     LIBCMTD:getqloc.obj
 0002:00015d20       ??_C@_1BK@LIMINNMN@?$AAg?$AAe?$AAr?$AAm?$AAa?$AAn?$AA?9?$AAs?$AAw?$AAi?$AAs?$AAs?$AA?$AA@ 00000001800ddd20     LIBCMTD:getqloc.obj
 0002:00015d40       ??_C@_1BM@LGMDBEPD@?$AAi?$AAr?$AAi?$AAs?$AAh?$AA?9?$AAe?$AAn?$AAg?$AAl?$AAi?$AAs?$AAh?$AA?$AA@ 00000001800ddd40     LIBCMTD:getqloc.obj
 0002:00015d60       ??_C@_1BM@NNCFBAEE@?$AAi?$AAt?$AAa?$AAl?$AAi?$AAa?$AAn?$AA?9?$AAs?$AAw?$AAi?$AAs?$AAs?$AA?$AA@ 00000001800ddd60     LIBCMTD:getqloc.obj
 0002:00015d80       ??_C@_1BE@FEDJNPIB@?$AAn?$AAo?$AAr?$AAw?$AAe?$AAg?$AAi?$AAa?$AAn?$AA?$AA@ 00000001800ddd80     LIBCMTD:getqloc.obj
 0002:00015d98       ??_C@_1CC@CILKDEIE@?$AAn?$AAo?$AAr?$AAw?$AAe?$AAg?$AAi?$AAa?$AAn?$AA?9?$AAb?$AAo?$AAk?$AAm?$AAa?$AAl?$AA?$AA@ 00000001800ddd98     LIBCMTD:getqloc.obj
 0002:00015dc0       ??_C@_1CE@DHMMHEPL@?$AAn?$AAo?$AAr?$AAw?$AAe?$AAg?$AAi?$AAa?$AAn?$AA?9?$AAn?$AAy?$AAn?$AAo?$AAr?$AAs?$AAk?$AA?$AA@ 00000001800dddc0     LIBCMTD:getqloc.obj
 0002:00015de8       ??_C@_1CK@OPNMHECD@?$AAp?$AAo?$AAr?$AAt?$AAu?$AAg?$AAu?$AAe?$AAs?$AAe?$AA?9?$AAb?$AAr?$AAa?$AAz?$AAi?$AAl?$AAi?$AAa?$AAn?$AA?$AA@ 00000001800ddde8     LIBCMTD:getqloc.obj
 0002:00015e18       ??_C@_1CE@KEEHCDB@?$AAs?$AAp?$AAa?$AAn?$AAi?$AAs?$AAh?$AA?9?$AAa?$AAr?$AAg?$AAe?$AAn?$AAt?$AAi?$AAn?$AAa?$AA?$AA@ 00000001800dde18     LIBCMTD:getqloc.obj
 0002:00015e40       ??_C@_1CA@GIAOLHJD@?$AAs?$AAp?$AAa?$AAn?$AAi?$AAs?$AAh?$AA?9?$AAb?$AAo?$AAl?$AAi?$AAv?$AAi?$AAa?$AA?$AA@ 00000001800dde40     LIBCMTD:getqloc.obj
 0002:00015e60       ??_C@_1BM@OJNDFNPD@?$AAs?$AAp?$AAa?$AAn?$AAi?$AAs?$AAh?$AA?9?$AAc?$AAh?$AAi?$AAl?$AAe?$AA?$AA@ 00000001800dde60     LIBCMTD:getqloc.obj
 0002:00015e80       ??_C@_1CC@OCOLPALL@?$AAs?$AAp?$AAa?$AAn?$AAi?$AAs?$AAh?$AA?9?$AAc?$AAo?$AAl?$AAo?$AAm?$AAb?$AAi?$AAa?$AA?$AA@ 00000001800dde80     LIBCMTD:getqloc.obj
 0002:00015ea8       ??_C@_1CG@BPOFMKBB@?$AAs?$AAp?$AAa?$AAn?$AAi?$AAs?$AAh?$AA?9?$AAc?$AAo?$AAs?$AAt?$AAa?$AA?5?$AAr?$AAi?$AAc?$AAa?$AA?$AA@ 00000001800ddea8     LIBCMTD:getqloc.obj
 0002:00015ed0       ??_C@_1DG@IGOBAPBB@?$AAs?$AAp?$AAa?$AAn?$AAi?$AAs?$AAh?$AA?9?$AAd?$AAo?$AAm?$AAi?$AAn?$AAi?$AAc?$AAa?$AAn?$AA?5?$AAr?$AAe?$AAp?$AAu?$AAb?$AAl?$AAi?$AAc?$AA?$AA@ 00000001800dded0     LIBCMTD:getqloc.obj
 0002:00015f08       ??_C@_1CA@JHAPGEGI@?$AAs?$AAp?$AAa?$AAn?$AAi?$AAs?$AAh?$AA?9?$AAe?$AAc?$AAu?$AAa?$AAd?$AAo?$AAr?$AA?$AA@ 00000001800ddf08     LIBCMTD:getqloc.obj
 0002:00015f28       ??_C@_1CI@LAPALJPP@?$AAs?$AAp?$AAa?$AAn?$AAi?$AAs?$AAh?$AA?9?$AAe?$AAl?$AA?5?$AAs?$AAa?$AAl?$AAv?$AAa?$AAd?$AAo?$AAr?$AA?$AA@ 00000001800ddf28     LIBCMTD:getqloc.obj
 0002:00015f50       ??_C@_1CE@PDGBOFOM@?$AAs?$AAp?$AAa?$AAn?$AAi?$AAs?$AAh?$AA?9?$AAg?$AAu?$AAa?$AAt?$AAe?$AAm?$AAa?$AAl?$AAa?$AA?$AA@ 00000001800ddf50     LIBCMTD:getqloc.obj
 0002:00015f78       ??_C@_1CC@NBEBAODI@?$AAs?$AAp?$AAa?$AAn?$AAi?$AAs?$AAh?$AA?9?$AAh?$AAo?$AAn?$AAd?$AAu?$AAr?$AAa?$AAs?$AA?$AA@ 00000001800ddf78     LIBCMTD:getqloc.obj
 0002:00015fa0       ??_C@_1CA@LLKGHBMF@?$AAs?$AAp?$AAa?$AAn?$AAi?$AAs?$AAh?$AA?9?$AAm?$AAe?$AAx?$AAi?$AAc?$AAa?$AAn?$AA?$AA@ 00000001800ddfa0     LIBCMTD:getqloc.obj
 0002:00015fc0       ??_C@_1BO@LKNDOIGD@?$AAs?$AAp?$AAa?$AAn?$AAi?$AAs?$AAh?$AA?9?$AAm?$AAo?$AAd?$AAe?$AAr?$AAn?$AA?$AA@ 00000001800ddfc0     LIBCMTD:getqloc.obj
 0002:00015fe0       ??_C@_1CE@NMDMOEEB@?$AAs?$AAp?$AAa?$AAn?$AAi?$AAs?$AAh?$AA?9?$AAn?$AAi?$AAc?$AAa?$AAr?$AAa?$AAg?$AAu?$AAa?$AA?$AA@ 00000001800ddfe0     LIBCMTD:getqloc.obj
 0002:00016008       ??_C@_1BO@LLCBEJGB@?$AAs?$AAp?$AAa?$AAn?$AAi?$AAs?$AAh?$AA?9?$AAp?$AAa?$AAn?$AAa?$AAm?$AAa?$AA?$AA@ 00000001800de008     LIBCMTD:getqloc.obj
 0002:00016028       ??_C@_1CC@FKPGGIHO@?$AAs?$AAp?$AAa?$AAn?$AAi?$AAs?$AAh?$AA?9?$AAp?$AAa?$AAr?$AAa?$AAg?$AAu?$AAa?$AAy?$AA?$AA@ 00000001800de028     LIBCMTD:getqloc.obj
 0002:00016050       ??_C@_1BK@CDEIHOOP@?$AAs?$AAp?$AAa?$AAn?$AAi?$AAs?$AAh?$AA?9?$AAp?$AAe?$AAr?$AAu?$AA?$AA@ 00000001800de050     LIBCMTD:getqloc.obj
 0002:00016070       ??_C@_1CI@GAHAKKGP@?$AAs?$AAp?$AAa?$AAn?$AAi?$AAs?$AAh?$AA?9?$AAp?$AAu?$AAe?$AAr?$AAt?$AAo?$AA?5?$AAr?$AAi?$AAc?$AAo?$AA?$AA@ 00000001800de070     LIBCMTD:getqloc.obj
 0002:00016098       ??_C@_1CA@NKJBCAGP@?$AAs?$AAp?$AAa?$AAn?$AAi?$AAs?$AAh?$AA?9?$AAu?$AAr?$AAu?$AAg?$AAu?$AAa?$AAy?$AA?$AA@ 00000001800de098     LIBCMTD:getqloc.obj
 0002:000160b8       ??_C@_1CE@ODILCONM@?$AAs?$AAp?$AAa?$AAn?$AAi?$AAs?$AAh?$AA?9?$AAv?$AAe?$AAn?$AAe?$AAz?$AAu?$AAe?$AAl?$AAa?$AA?$AA@ 00000001800de0b8     LIBCMTD:getqloc.obj
 0002:000160e0       ??_C@_1CA@OBNMCGFO@?$AAs?$AAw?$AAe?$AAd?$AAi?$AAs?$AAh?$AA?9?$AAf?$AAi?$AAn?$AAl?$AAa?$AAn?$AAd?$AA?$AA@ 00000001800de0e0     LIBCMTD:getqloc.obj
 0002:00016100       ??_C@_1M@PIPDDPPI@?$AAs?$AAw?$AAi?$AAs?$AAs?$AA?$AA@ 00000001800de100     LIBCMTD:getqloc.obj
 0002:0001610c       ??_C@_15GMFIMNFM@?$AAu?$AAs?$AA?$AA@ 00000001800de10c     LIBCMTD:getqloc.obj
 0002:00016118       ??_C@_17HAEBFAGL@?$AAu?$AAs?$AAa?$AA?$AA@ 00000001800de118     LIBCMTD:getqloc.obj
 0002:00016120       __rg_country               00000001800de120     LIBCMTD:getqloc.obj
 0002:00016290       ??_C@_1BA@DPFJEPHB@?$AAa?$AAm?$AAe?$AAr?$AAi?$AAc?$AAa?$AA?$AA@ 00000001800de290     LIBCMTD:getqloc.obj
 0002:000162a0       ??_C@_1BA@ELOGGFK@?$AAb?$AAr?$AAi?$AAt?$AAa?$AAi?$AAn?$AA?$AA@ 00000001800de2a0     LIBCMTD:getqloc.obj
 0002:000162b0       ??_C@_1M@GHBGIGDA@?$AAc?$AAh?$AAi?$AAn?$AAa?$AA?$AA@ 00000001800de2b0     LIBCMTD:getqloc.obj
 0002:000162c0       ??_C@_1M@NCHEJOPO@?$AAc?$AAz?$AAe?$AAc?$AAh?$AA?$AA@ 00000001800de2c0     LIBCMTD:getqloc.obj
 0002:000162d0       ??_C@_1BA@BKPAPBLA@?$AAe?$AAn?$AAg?$AAl?$AAa?$AAn?$AAd?$AA?$AA@ 00000001800de2d0     LIBCMTD:getqloc.obj
 0002:000162e0       ??_C@_1BM@HKBCKIPC@?$AAg?$AAr?$AAe?$AAa?$AAt?$AA?5?$AAb?$AAr?$AAi?$AAt?$AAa?$AAi?$AAn?$AA?$AA@ 00000001800de2e0     LIBCMTD:getqloc.obj
 0002:00016300       ??_C@_1BA@PPCHPGJB@?$AAh?$AAo?$AAl?$AAl?$AAa?$AAn?$AAd?$AA?$AA@ 00000001800de300     LIBCMTD:getqloc.obj
 0002:00016310       ??_C@_1BE@JBMPEGDG@?$AAh?$AAo?$AAn?$AAg?$AA?9?$AAk?$AAo?$AAn?$AAg?$AA?$AA@ 00000001800de310     LIBCMTD:getqloc.obj
 0002:00016328       ??_C@_1BI@KOELBBPJ@?$AAn?$AAe?$AAw?$AA?9?$AAz?$AAe?$AAa?$AAl?$AAa?$AAn?$AAd?$AA?$AA@ 00000001800de328     LIBCMTD:getqloc.obj
 0002:00016340       ??_C@_15HIEBHAIO@?$AAn?$AAz?$AA?$AA@ 00000001800de340     LIBCMTD:getqloc.obj
 0002:00016348       ??_C@_1BC@CHBCPFPI@?$AAp?$AAr?$AA?5?$AAc?$AAh?$AAi?$AAn?$AAa?$AA?$AA@ 00000001800de348     LIBCMTD:getqloc.obj
 0002:00016360       ??_C@_1BC@JAOIIFKD@?$AAp?$AAr?$AA?9?$AAc?$AAh?$AAi?$AAn?$AAa?$AA?$AA@ 00000001800de360     LIBCMTD:getqloc.obj
 0002:00016378       ??_C@_1BI@BEHPPHKC@?$AAp?$AAu?$AAe?$AAr?$AAt?$AAo?$AA?9?$AAr?$AAi?$AAc?$AAo?$AA?$AA@ 00000001800de378     LIBCMTD:getqloc.obj
 0002:00016390       ??_C@_1O@PAEOFKDI@?$AAs?$AAl?$AAo?$AAv?$AAa?$AAk?$AA?$AA@ 00000001800de390     LIBCMTD:getqloc.obj
 0002:000163a0       ??_C@_1BK@FIHMCKAM@?$AAs?$AAo?$AAu?$AAt?$AAh?$AA?5?$AAa?$AAf?$AAr?$AAi?$AAc?$AAa?$AA?$AA@ 00000001800de3a0     LIBCMTD:getqloc.obj
 0002:000163c0       ??_C@_1BI@NAEOODKB@?$AAs?$AAo?$AAu?$AAt?$AAh?$AA?5?$AAk?$AAo?$AAr?$AAe?$AAa?$AA?$AA@ 00000001800de3c0     LIBCMTD:getqloc.obj
 0002:000163d8       ??_C@_1BK@FBDGGIFF@?$AAs?$AAo?$AAu?$AAt?$AAh?$AA?9?$AAa?$AAf?$AAr?$AAi?$AAc?$AAa?$AA?$AA@ 00000001800de3d8     LIBCMTD:getqloc.obj
 0002:000163f8       ??_C@_1BI@GHLEJDPK@?$AAs?$AAo?$AAu?$AAt?$AAh?$AA?9?$AAk?$AAo?$AAr?$AAe?$AAa?$AA?$AA@ 00000001800de3f8     LIBCMTD:getqloc.obj
 0002:00016410       ??_C@_1CE@PLHLOMJF@?$AAt?$AAr?$AAi?$AAn?$AAi?$AAd?$AAa?$AAd?$AA?5?$AA?$CG?$AA?5?$AAt?$AAo?$AAb?$AAa?$AAg?$AAo?$AA?$AA@ 00000001800de410     LIBCMTD:getqloc.obj
 0002:00016438       ??_C@_1BO@MODIMHHI@?$AAu?$AAn?$AAi?$AAt?$AAe?$AAd?$AA?9?$AAk?$AAi?$AAn?$AAg?$AAd?$AAo?$AAm?$AA?$AA@ 00000001800de438     LIBCMTD:getqloc.obj
 0002:00016458       ??_C@_1BM@FFHJONBJ@?$AAu?$AAn?$AAi?$AAt?$AAe?$AAd?$AA?9?$AAs?$AAt?$AAa?$AAt?$AAe?$AAs?$AA?$AA@ 00000001800de458     LIBCMTD:getqloc.obj
 0002:00016474       __rg_language_count        00000001800de474     LIBCMTD:getqloc.obj
 0002:00016478       __rg_country_count         00000001800de478     LIBCMTD:getqloc.obj
 0002:00016480       ??_C@_1FA@KCJCBMIG@?$AAf?$AA?3?$AA?2?$AAd?$AAd?$AA?2?$AAv?$AAc?$AAt?$AAo?$AAo?$AAl?$AAs?$AA?2?$AAc?$AAr?$AAt?$AA?2?$AAc?$AAr?$AAt?$AAw?$AA3?$AA2?$AA?2?$AAm?$AAi?$AAs?$AAc?$AA?2?$AAg?$AAe@ 00000001800de480     LIBCMTD:getqloc.obj
 0002:000164d0       ??_C@_1CO@NJACLALJ@?$AA_?$AA_?$AAg?$AAe?$AAt?$AA_?$AAq?$AAu?$AAa?$AAl?$AAi?$AAf?$AAi?$AAe?$AAd?$AA_?$AAl?$AAo?$AAc?$AAa?$AAl?$AAe?$AA?$AA@ 00000001800de4d0     LIBCMTD:getqloc.obj
 0002:00016500       ??_C@_1BGM@FCCPEFDE@?$AAw?$AAc?$AAs?$AAn?$AAc?$AAp?$AAy?$AA_?$AAs?$AA?$CI?$AAl?$AAp?$AAO?$AAu?$AAt?$AAS?$AAt?$AAr?$AA?9?$AA?$DO?$AAs?$AAz?$AAL?$AAo?$AAc?$AAa?$AAl?$AAe?$AAN?$AAa?$AAm?$AAe@ 00000001800de500     LIBCMTD:getqloc.obj
 0002:00016670       ??_C@_1CM@OGEMFJNJ@?$AAL?$AAa?$AAn?$AAg?$AAC?$AAo?$AAu?$AAn?$AAt?$AAr?$AAy?$AAE?$AAn?$AAu?$AAm?$AAP?$AAr?$AAo?$AAc?$AAE?$AAx?$AA?$AA@ 00000001800de670     LIBCMTD:getqloc.obj
 0002:000166a0       ??_C@_1BFO@LLJKJAIC@?$AAw?$AAc?$AAs?$AAn?$AAc?$AAp?$AAy?$AA_?$AAs?$AA?$CI?$AA_?$AAp?$AAs?$AAe?$AAt?$AAl?$AAo?$AAc?$AA_?$AAd?$AAa?$AAt?$AAa?$AA?9?$AA?$DO?$AA_?$AAc?$AAa?$AAc?$AAh?$AAe?$AAL@ 00000001800de6a0     LIBCMTD:getqloc.obj
 0002:00016800       ??_C@_1CG@PGLLICHO@?$AAL?$AAa?$AAn?$AAg?$AAu?$AAa?$AAg?$AAe?$AAE?$AAn?$AAu?$AAm?$AAP?$AAr?$AAo?$AAc?$AAE?$AAx?$AA?$AA@ 00000001800de800     LIBCMTD:getqloc.obj
 0002:00016828       ??_C@_1DC@CPKFANGP@?$AAG?$AAe?$AAt?$AAL?$AAo?$AAc?$AAa?$AAl?$AAe?$AAN?$AAa?$AAm?$AAe?$AAF?$AAr?$AAo?$AAm?$AAD?$AAe?$AAf?$AAa?$AAu?$AAl?$AAt?$AA?$AA@ 00000001800de828     LIBCMTD:getqloc.obj
 0002:00016860       ??_C@_1BEO@EJBNGKHB@?$AAw?$AAc?$AAs?$AAn?$AAc?$AAp?$AAy?$AA_?$AAs?$AA?$CI?$AA_?$AAp?$AAs?$AAe?$AAt?$AAl?$AAo?$AAc?$AA_?$AAd?$AAa?$AAt?$AAa?$AA?9?$AA?$DO?$AA_?$AAc?$AAa?$AAc?$AAh?$AAe?$AAL@ 00000001800de860     LIBCMTD:getqloc.obj
 0002:000169b0       ??_C@_17DNCLJFIF@?$AAA?$AAC?$AAP?$AA?$AA@ 00000001800de9b0     LIBCMTD:getqloc.obj
 0002:000169b8       ??_C@_17CIKBIHLH@?$AAO?$AAC?$AAP?$AA?$AA@ 00000001800de9b8     LIBCMTD:getqloc.obj
 0002:000169c0       __rglangidNotDefault       00000001800de9c0     LIBCMTD:getqloc_downlevel.obj
 0002:00016a00       ??_C@_1FE@JDMNKKN@?$AAf?$AA?3?$AA?2?$AAd?$AAd?$AA?2?$AAv?$AAc?$AAt?$AAo?$AAo?$AAl?$AAs?$AA?2?$AAc?$AAr?$AAt?$AA?2?$AAc?$AAr?$AAt?$AAw?$AA3?$AA2?$AA?2?$AAc?$AAo?$AAn?$AAv?$AAe?$AAr?$AAt@ 00000001800dea00     LIBCMTD:strtoq.obj
 0002:00016a58       ??_C@_1BA@BMMDEPNE@?$AAs?$AAt?$AAr?$AAt?$AAo?$AAx?$AAq?$AA?$AA@ 00000001800dea58     LIBCMTD:strtoq.obj
 0002:00016a68       ??_C@_1BK@GDEKGMNC@?$AA_?$AAw?$AAo?$AAu?$AAt?$AAp?$AAu?$AAt?$AA_?$AAp?$AA_?$AAl?$AA?$AA@ 00000001800dea68     LIBCMTD:woutputp.obj
 0002:00016a88       ??_C@_1BK@ONMFGLDB@?$AA_?$AAw?$AAo?$AAu?$AAt?$AAp?$AAu?$AAt?$AA_?$AAs?$AA_?$AAl?$AA?$AA@ 00000001800dea88     LIBCMTD:woutputs.obj
 0002:00016ab0       ??_C@_1FA@MCFBMFHP@?$AAf?$AA?3?$AA?2?$AAd?$AAd?$AA?2?$AAv?$AAc?$AAt?$AAo?$AAo?$AAl?$AAs?$AA?2?$AAc?$AAr?$AAt?$AA?2?$AAc?$AAr?$AAt?$AAw?$AA3?$AA2?$AA?2?$AAs?$AAt?$AAd?$AAi?$AAo?$AA?2?$AAf@ 00000001800deab0     LIBCMTD:fputwc.obj
 0002:00016b00       ??_C@_1O@HJNPHHHB@?$AAf?$AAp?$AAu?$AAt?$AAw?$AAc?$AA?$AA@ 00000001800deb00     LIBCMTD:fputwc.obj
 0002:00016b10       ??_C@_1NC@EINCOKCO@?$AA_?$AAl?$AAo?$AAc?$AA_?$AAu?$AAp?$AAd?$AAa?$AAt?$AAe?$AA?4?$AAG?$AAe?$AAt?$AAL?$AAo?$AAc?$AAa?$AAl?$AAe?$AAT?$AA?$CI?$AA?$CJ?$AA?9?$AA?$DO?$AAl?$AAo?$AAc?$AAi?$AAn?$AAf@ 00000001800deb10     LIBCMTD:mbtowc.obj
 0002:00016bf0       ??_C@_1FE@EKLDGEI@?$AAf?$AA?3?$AA?2?$AAd?$AAd?$AA?2?$AAv?$AAc?$AAt?$AAo?$AAo?$AAl?$AAs?$AA?2?$AAc?$AAr?$AAt?$AA?2?$AAc?$AAr?$AAt?$AAw?$AA3?$AA2?$AA?2?$AAc?$AAo?$AAn?$AAv?$AAe?$AAr?$AAt@ 00000001800debf0     LIBCMTD:mbtowc.obj
 0002:00016c50       ??_C@_1EO@EJLBBGEB@?$AAf?$AA?3?$AA?2?$AAd?$AAd?$AA?2?$AAv?$AAc?$AAt?$AAo?$AAo?$AAl?$AAs?$AA?2?$AAc?$AAr?$AAt?$AA?2?$AAc?$AAr?$AAt?$AAw?$AA3?$AA2?$AA?2?$AAl?$AAo?$AAw?$AAi?$AAo?$AA?2?$AAc@ 00000001800dec50     LIBCMTD:close.obj
 0002:00016ca0       ??_C@_1O@EDEJGJBM@?$AA_?$AAc?$AAl?$AAo?$AAs?$AAe?$AA?$AA@ 00000001800deca0     LIBCMTD:close.obj
 0002:00016cb0       ??_C@_1BO@KIJENGPH@?$AAs?$AAt?$AAr?$AAe?$AAa?$AAm?$AA?5?$AA?$CB?$AA?$DN?$AA?5?$AAN?$AAU?$AAL?$AAL?$AA?$AA@ 00000001800decb0     LIBCMTD:_freebuf.obj
 0002:00016cd0       ??_C@_1FE@DBCNNJOP@?$AAf?$AA?3?$AA?2?$AAd?$AAd?$AA?2?$AAv?$AAc?$AAt?$AAo?$AAo?$AAl?$AAs?$AA?2?$AAc?$AAr?$AAt?$AA?2?$AAc?$AAr?$AAt?$AAw?$AA3?$AA2?$AA?2?$AAs?$AAt?$AAd?$AAi?$AAo?$AA?2?$AA_@ 00000001800decd0     LIBCMTD:_freebuf.obj
 0002:00016d28       ??_C@_0CJ@IGOJMKM@f?3?2dd?2vctools?2crt?2crtw32?2lowio?2o@ 00000001800ded28     LIBCMTD:osfinfo.obj
 0002:00016d60       ??_C@_1FC@BEKMGBFL@?$AAf?$AA?3?$AA?2?$AAd?$AAd?$AA?2?$AAv?$AAc?$AAt?$AAo?$AAo?$AAl?$AAs?$AA?2?$AAc?$AAr?$AAt?$AA?2?$AAc?$AAr?$AAt?$AAw?$AA3?$AA2?$AA?2?$AAl?$AAo?$AAw?$AAi?$AAo?$AA?2?$AAo@ 00000001800ded60     LIBCMTD:osfinfo.obj
 0002:00016db8       ??_C@_1BO@EMBOBGKE@?$AA_?$AAg?$AAe?$AAt?$AA_?$AAo?$AAs?$AAf?$AAh?$AAa?$AAn?$AAd?$AAl?$AAe?$AA?$AA@ 00000001800dedb8     LIBCMTD:osfinfo.obj
 0002:00016de0       ??_C@_1FE@NDFDLJMJ@?$AAf?$AA?3?$AA?2?$AAd?$AAd?$AA?2?$AAv?$AAc?$AAt?$AAo?$AAo?$AAl?$AAs?$AA?2?$AAc?$AAr?$AAt?$AA?2?$AAc?$AAr?$AAt?$AAw?$AA3?$AA2?$AA?2?$AAs?$AAt?$AAr?$AAi?$AAn?$AAg?$AA?2@ 00000001800dede0     LIBCMTD:wcsicmp.obj
 0002:00016e38       ??_C@_1BG@EELGPCPD@?$AA_?$AAw?$AAc?$AAs?$AAi?$AAc?$AAm?$AAp?$AA_?$AAl?$AA?$AA@ 00000001800dee38     LIBCMTD:wcsicmp.obj
 0002:00016e50       ??_C@_1BC@NHIBDOMC@?$AA_?$AAw?$AAc?$AAs?$AAi?$AAc?$AAm?$AAp?$AA?$AA@ 00000001800dee50     LIBCMTD:wcsicmp.obj
 0002:00016e68       ??_C@_1BM@CBACDFHA@?$AAf?$AAi?$AAr?$AAs?$AAt?$AA?5?$AA?$CB?$AA?$DN?$AA?5?$AAN?$AAU?$AAL?$AAL?$AA?$AA@ 00000001800dee68     LIBCMTD:wcsnicmp.obj
 0002:00016e90       ??_C@_1FG@GGNDOPHP@?$AAf?$AA?3?$AA?2?$AAd?$AAd?$AA?2?$AAv?$AAc?$AAt?$AAo?$AAo?$AAl?$AAs?$AA?2?$AAc?$AAr?$AAt?$AA?2?$AAc?$AAr?$AAt?$AAw?$AA3?$AA2?$AA?2?$AAs?$AAt?$AAr?$AAi?$AAn?$AAg?$AA?2@ 00000001800dee90     LIBCMTD:wcsnicmp.obj
 0002:00016ee8       ??_C@_1BI@KLMFNDBC@?$AA_?$AAw?$AAc?$AAs?$AAn?$AAi?$AAc?$AAm?$AAp?$AA_?$AAl?$AA?$AA@ 00000001800deee8     LIBCMTD:wcsnicmp.obj
 0002:00016f00       ??_C@_1BK@LKBOPAFJ@?$AAl?$AAa?$AAs?$AAt?$AA?5?$AA?$CB?$AA?$DN?$AA?5?$AAN?$AAU?$AAL?$AAL?$AA?$AA@ 00000001800def00     LIBCMTD:wcsnicmp.obj
 0002:00016f20       ??_C@_1BE@JKOKKFEL@?$AA_?$AAw?$AAc?$AAs?$AAn?$AAi?$AAc?$AAm?$AAp?$AA?$AA@ 00000001800def20     LIBCMTD:wcsnicmp.obj
 0002:00016f40       ??_C@_1FE@DNGHOFOC@?$AAf?$AA?3?$AA?2?$AAd?$AAd?$AA?2?$AAv?$AAc?$AAt?$AAo?$AAo?$AAl?$AAs?$AA?2?$AAc?$AAr?$AAt?$AA?2?$AAc?$AAr?$AAt?$AAw?$AA3?$AA2?$AA?2?$AAc?$AAo?$AAn?$AAv?$AAe?$AAr?$AAt@ 00000001800def40     LIBCMTD:strtod.obj
 0002:00016f98       ??_C@_1BE@KFBKGHJC@?$AA_?$AAs?$AAt?$AAr?$AAt?$AAo?$AAd?$AA_?$AAl?$AA?$AA@ 00000001800def98     LIBCMTD:strtod.obj
 0002:00016fb0       ??_C@_1FE@GDPLAOMM@?$AAf?$AA?3?$AA?2?$AAd?$AAd?$AA?2?$AAv?$AAc?$AAt?$AAo?$AAo?$AAl?$AAs?$AA?2?$AAc?$AAr?$AAt?$AA?2?$AAc?$AAr?$AAt?$AAw?$AA3?$AA2?$AA?2?$AAc?$AAo?$AAn?$AAv?$AAe?$AAr?$AAt@ 00000001800defb0     LIBCMTD:wcstol.obj
 0002:00017008       ??_C@_1BA@PCFLFGNC@?$AAw?$AAc?$AAs?$AAt?$AAo?$AAx?$AAl?$AA?$AA@ 00000001800df008     LIBCMTD:wcstol.obj
 0002:00017018       ??_C@_1BA@BALFACEM@?$AAC?$AAO?$AAN?$AAO?$AAU?$AAT?$AA$?$AA?$AA@ 00000001800df018     LIBCMTD:initcon.obj
 0002:00017050       ??_C@_1FE@IEEFCKDG@?$AAf?$AA?3?$AA?2?$AAd?$AAd?$AA?2?$AAv?$AAc?$AAt?$AAo?$AAo?$AAl?$AAs?$AA?2?$AAc?$AAr?$AAt?$AA?2?$AAc?$AAr?$AAt?$AAw?$AA3?$AA2?$AA?2?$AAc?$AAo?$AAn?$AAv?$AAe?$AAr?$AAt@ 00000001800df050     LIBCMTD:wcstoq.obj
 0002:000170a8       ??_C@_1BA@FACINJJA@?$AAw?$AAc?$AAs?$AAt?$AAo?$AAx?$AAq?$AA?$AA@ 00000001800df0a8     LIBCMTD:wcstoq.obj
 0002:000170b8       ??_C@_0CK@CEJCOKEF@f?3?2dd?2vctools?2crt?2crtw32?2convert@ 00000001800df0b8     LIBCMTD:wcstoq.obj
 0002:000170f0       ??_C@_1FE@LABOBFHJ@?$AAf?$AA?3?$AA?2?$AAd?$AAd?$AA?2?$AAv?$AAc?$AAt?$AAo?$AAo?$AAl?$AAs?$AA?2?$AAc?$AAr?$AAt?$AA?2?$AAc?$AAr?$AAt?$AAw?$AA3?$AA2?$AA?2?$AAc?$AAo?$AAn?$AAv?$AAe?$AAr?$AAt@ 00000001800df0f0     LIBCMTD:wcstod.obj
 0002:00017148       ??_C@_1BE@CIGDJHAJ@?$AA_?$AAw?$AAc?$AAs?$AAt?$AAo?$AAd?$AA_?$AAl?$AA?$AA@ 00000001800df148     LIBCMTD:wcstod.obj
 0002:00017160       ??_C@_1CA@JGBKKNCE@?$AA_?$AA_?$AAw?$AAs?$AAt?$AAr?$AAg?$AAt?$AAo?$AAl?$AAd?$AA1?$AA2?$AA_?$AAl?$AA?$AA@ 00000001800df160     LIBCMTD:wstrgtold.obj
 0002:00017180       _load_config_used          00000001800df180     LIBCMTD:loadcfg.obj
 0002:0001b140       ??_R4type_info@@6B@        00000001800e3140     LIBCMTD:typinfo.obj
 0002:0001b168       ??_R3type_info@@8          00000001800e3168     LIBCMTD:typinfo.obj
 0002:0001b180       ??_R2type_info@@8          00000001800e3180     LIBCMTD:typinfo.obj
 0002:0001b190       ??_R1A@?0A@EA@type_info@@8 00000001800e3190     LIBCMTD:typinfo.obj
 0002:0001b1b8       ??_R1A@?0A@EA@exception@std@@8 00000001800e31b8     LIBCMTD:new.obj
 0002:0001b1e0       ??_R3exception@std@@8      00000001800e31e0     LIBCMTD:new.obj
 0002:0001b1f8       ??_R2exception@std@@8      00000001800e31f8     LIBCMTD:new.obj
 0002:0001b208       ??_R4bad_alloc@std@@6B@    00000001800e3208     LIBCMTD:new.obj
 0002:0001b230       ??_R3bad_alloc@std@@8      00000001800e3230     LIBCMTD:new.obj
 0002:0001b248       ??_R2bad_alloc@std@@8      00000001800e3248     LIBCMTD:new.obj
 0002:0001b260       ??_R1A@?0A@EA@bad_alloc@std@@8 00000001800e3260     LIBCMTD:new.obj
 0002:0001b288       ??_R4exception@std@@6B@    00000001800e3288     LIBCMTD:stdexcpt.obj
 0002:0001b2b0       ??_R4bad_cast@std@@6B@     00000001800e32b0     LIBCMTD:stdexcpt.obj
 0002:0001b2d8       ??_R3bad_cast@std@@8       00000001800e32d8     LIBCMTD:stdexcpt.obj
 0002:0001b2f0       ??_R2bad_cast@std@@8       00000001800e32f0     LIBCMTD:stdexcpt.obj
 0002:0001b308       ??_R1A@?0A@EA@bad_cast@std@@8 00000001800e3308     LIBCMTD:stdexcpt.obj
 0002:0001b330       ??_R4bad_typeid@std@@6B@   00000001800e3330     LIBCMTD:stdexcpt.obj
 0002:0001b358       ??_R3bad_typeid@std@@8     00000001800e3358     LIBCMTD:stdexcpt.obj
 0002:0001b370       ??_R2bad_typeid@std@@8     00000001800e3370     LIBCMTD:stdexcpt.obj
 0002:0001b388       ??_R1A@?0A@EA@bad_typeid@std@@8 00000001800e3388     LIBCMTD:stdexcpt.obj
 0002:0001b3b0       ??_R4__non_rtti_object@std@@6B@ 00000001800e33b0     LIBCMTD:stdexcpt.obj
 0002:0001b3d8       ??_R3__non_rtti_object@std@@8 00000001800e33d8     LIBCMTD:stdexcpt.obj
 0002:0001b3f0       ??_R2__non_rtti_object@std@@8 00000001800e33f0     LIBCMTD:stdexcpt.obj
 0002:0001b410       ??_R1A@?0A@EA@__non_rtti_object@std@@8 00000001800e3410     LIBCMTD:stdexcpt.obj
 0002:0001b438       ??_R4DNameNode@@6B@        00000001800e3438     LIBCMTD:undname.obj
 0002:0001b460       ??_R3DNameNode@@8          00000001800e3460     LIBCMTD:undname.obj
 0002:0001b478       ??_R2DNameNode@@8          00000001800e3478     LIBCMTD:undname.obj
 0002:0001b488       ??_R1A@?0A@EA@DNameNode@@8 00000001800e3488     LIBCMTD:undname.obj
 0002:0001b4b0       ??_R4charNode@@6B@         00000001800e34b0     LIBCMTD:undname.obj
 0002:0001b4d8       ??_R3charNode@@8           00000001800e34d8     LIBCMTD:undname.obj
 0002:0001b4f0       ??_R2charNode@@8           00000001800e34f0     LIBCMTD:undname.obj
 0002:0001b508       ??_R1A@?0A@EA@charNode@@8  00000001800e3508     LIBCMTD:undname.obj
 0002:0001b530       ??_R4pcharNode@@6B@        00000001800e3530     LIBCMTD:undname.obj
 0002:0001b558       ??_R3pcharNode@@8          00000001800e3558     LIBCMTD:undname.obj
 0002:0001b570       ??_R2pcharNode@@8          00000001800e3570     LIBCMTD:undname.obj
 0002:0001b588       ??_R1A@?0A@EA@pcharNode@@8 00000001800e3588     LIBCMTD:undname.obj
 0002:0001b5b0       ??_R4pDNameNode@@6B@       00000001800e35b0     LIBCMTD:undname.obj
 0002:0001b5d8       ??_R3pDNameNode@@8         00000001800e35d8     LIBCMTD:undname.obj
 0002:0001b5f0       ??_R2pDNameNode@@8         00000001800e35f0     LIBCMTD:undname.obj
 0002:0001b608       ??_R1A@?0A@EA@pDNameNode@@8 00000001800e3608     LIBCMTD:undname.obj
 0002:0001b630       ??_R4DNameStatusNode@@6B@  00000001800e3630     LIBCMTD:undname.obj
 0002:0001b658       ??_R3DNameStatusNode@@8    00000001800e3658     LIBCMTD:undname.obj
 0002:0001b670       ??_R2DNameStatusNode@@8    00000001800e3670     LIBCMTD:undname.obj
 0002:0001b688       ??_R1A@?0A@EA@DNameStatusNode@@8 00000001800e3688     LIBCMTD:undname.obj
 0002:0001b6b0       ??_R4pairNode@@6B@         00000001800e36b0     LIBCMTD:undname.obj
 0002:0001b6d8       ??_R3pairNode@@8           00000001800e36d8     LIBCMTD:undname.obj
 0002:0001b6f0       ??_R2pairNode@@8           00000001800e36f0     LIBCMTD:undname.obj
 0002:0001b708       ??_R1A@?0A@EA@pairNode@@8  00000001800e3708     LIBCMTD:undname.obj
 0002:0001b730       ??_R4bad_exception@std@@6B@ 00000001800e3730     LIBCMTD:frame.obj
 0002:0001b758       ??_R3bad_exception@std@@8  00000001800e3758     LIBCMTD:frame.obj
 0002:0001b770       ??_R2bad_exception@std@@8  00000001800e3770     LIBCMTD:frame.obj
 0002:0001b788       ??_R1A@?0A@EA@bad_exception@std@@8 00000001800e3788     LIBCMTD:frame.obj
 0002:0001b9f8       __rtc_iaa                  00000001800e39f8     LIBCMTD:initsect.obj
 0002:0001bd10       __rtc_izz                  00000001800e3d10     LIBCMTD:initsect.obj
 0002:0001be20       __rtc_taa                  00000001800e3e20     LIBCMTD:initsect.obj
 0002:0001c138       __rtc_tzz                  00000001800e4138     LIBCMTD:initsect.obj
 0002:00020fa8       _TI2?AVbad_alloc@std@@     00000001800e8fa8     LIBCMTD:new.obj
 0002:00020fc8       _CTA2?AVbad_alloc@std@@    00000001800e8fc8     LIBCMTD:new.obj
 0002:00020fe0       _CT??_R0?AVbad_alloc@std@@@8??0bad_alloc@std@@QEAA@AEBV01@@Z24 00000001800e8fe0     LIBCMTD:new.obj
 0002:00021008       _CT??_R0?AVexception@std@@@8??0exception@std@@QEAA@AEBV01@@Z24 00000001800e9008     LIBCMTD:new.obj
 0002:00021030       _TI2?AVbad_exception@std@@ 00000001800e9030     LIBCMTD:frame.obj
 0002:00021050       _CTA2?AVbad_exception@std@@ 00000001800e9050     LIBCMTD:frame.obj
 0002:00021068       _CT??_R0?AVbad_exception@std@@@8??0bad_exception@std@@QEAA@AEBV01@@Z24 00000001800e9068     LIBCMTD:frame.obj
 0003:00000060       __pfnDliNotifyHook2        00000001800ea060     WindowsCookingDelayLoadHook.obj
 0003:00000080       ?g_PXTanEstCoefficients@aos@shdfnd@physx@@3UPX_VECTORF32@123@B 00000001800ea080     RTreeCooking.obj
 0003:000000a0       ?g_PXATanEstCoefficients@aos@shdfnd@physx@@3UPX_VECTORF32@123@B 00000001800ea0a0     RTreeCooking.obj
 0003:000000c0       ?g_PXASinEstConstants@aos@shdfnd@physx@@3UPX_VECTORF32@123@B 00000001800ea0c0     RTreeCooking.obj
 0003:000000e0       ?g_PXPiConstants0@aos@shdfnd@physx@@3UPX_VECTORF32@123@B 00000001800ea0e0     RTreeCooking.obj
 0003:00000100       ?g_PXReciprocalTwoPi@aos@shdfnd@physx@@3UPX_VECTORF32@123@B 00000001800ea100     RTreeCooking.obj
 0003:00000120       ?g_PXTwoPi@aos@shdfnd@physx@@3UPX_VECTORF32@123@B 00000001800ea120     RTreeCooking.obj
 0003:00000134       ?planetestepsilon@physx@@3MA 00000001800ea134     hulllib.obj
 0003:00000140       _fltused                   00000001800ea140     LIBCMTD:fpinit.obj
 0003:00000144       _ldused                    00000001800ea144     LIBCMTD:fpinit.obj
 0003:00000170       __isa_available            00000001800ea170     LIBCMTD:cpu_disp.obj
 0003:00000174       __isa_enabled              00000001800ea174     LIBCMTD:cpu_disp.obj
 0003:00000180       _cfltcvt_tab               00000001800ea180     LIBCMTD:cmiscdat.obj
 0003:000003a0       _d_inf                     00000001800ea3a0     LIBCMTD:util.obj
 0003:000003a8       _d_ind                     00000001800ea3a8     LIBCMTD:util.obj
 0003:000003b0       _d_max                     00000001800ea3b0     LIBCMTD:util.obj
 0003:000003b8       _d_min                     00000001800ea3b8     LIBCMTD:util.obj
 0003:000003c0       _d_mzero                   00000001800ea3c0     LIBCMTD:util.obj
 0003:00000618       _crtBreakAlloc             00000001800ea618     LIBCMTD:dbgheap.obj
 0003:0000061c       _crtDbgFlag                00000001800ea61c     LIBCMTD:dbgheap.obj
 0003:00000620       __crtDebugFillThreshold    00000001800ea620     LIBCMTD:dbgheap.obj
 0003:00000630       _iob                       00000001800ea630     LIBCMTD:_file.obj
 0003:000009f0       __nullstring               00000001800ea9f0     LIBCMTD:output.obj
 0003:000009f8       __wnullstring              00000001800ea9f8     LIBCMTD:output.obj
 0003:00000b70       __security_cookie          00000001800eab70     LIBCMTD:gs_cookie.obj
 0003:00000b78       __security_cookie_complement 00000001800eab78     LIBCMTD:gs_cookie.obj
 0003:00000b80       __abort_behavior           00000001800eab80     LIBCMTD:abort.obj
 0003:00000b84       __flsindex                 00000001800eab84     LIBCMTD:tidtable.obj
 0003:00000b90       __badioinfo                00000001800eab90     LIBCMTD:ioinit.obj
 0003:00000bf0       ?_RTC_ErrorLevels@@3PAHA   00000001800eabf0     LIBCMTD:error.obj
 0003:00000c10       _mbctype                   00000001800eac10     LIBCMTD:mbctype.obj
 0003:00000d20       _mbcasemap                 00000001800ead20     LIBCMTD:mbctype.obj
 0003:00000e20       __initialmbcinfo           00000001800eae20     LIBCMTD:mbctype.obj
 0003:00001140       __ptmbcinfo                00000001800eb140     LIBCMTD:mbctype.obj
 0003:00001150       __mb_cur_max               00000001800eb150     LIBCMTD:nlsdata.obj
 0003:00001154       __wclocalestr              00000001800eb154     LIBCMTD:nlsdata.obj
 0003:00001160       __lc_time_c                00000001800eb160     LIBCMTD:nlsdata.obj
 0003:00001420       __ptlocinfo                00000001800eb420     LIBCMTD:nlsdata.obj
 0003:00001430       __initiallocinfo           00000001800eb430     LIBCMTD:nlsdata.obj
 0003:00001588       __initiallocalestructinfo  00000001800eb588     LIBCMTD:nlsdata.obj
 0003:00001598       __globallocalestatus       00000001800eb598     LIBCMTD:glstatus.obj
 0003:0000159c       _matherr_flag              00000001800eb59c     LIBCMTD:matherr.obj
 0003:000015a0       _crtAssertBusy             00000001800eb5a0     LIBCMTD:dbgrptt.obj
 0003:000015a8       _CrtDbgMode                00000001800eb5a8     LIBCMTD:dbgrptt.obj
 0003:000015b8       _CrtDbgFile                00000001800eb5b8     LIBCMTD:dbgrptt.obj
 0003:000015d0       _pfnAllocHook              00000001800eb5d0     LIBCMTD:dbghook.obj
 0003:000015e0       __lconv                    00000001800eb5e0     LIBCMTD:lconv.obj
 0003:000015e8       __lconv_static_decimal     00000001800eb5e8     LIBCMTD:lconv.obj
 0003:000015f0       __lconv_c                  00000001800eb5f0     LIBCMTD:lconv.obj
 0003:00001688       __lconv_static_W_decimal   00000001800eb688     LIBCMTD:lconv.obj
 0003:000016c8       _pctype                    00000001800eb6c8     LIBCMTD:ctype.obj
 0003:000016d0       _pwctype                   00000001800eb6d0     LIBCMTD:ctype.obj
 0003:000016e0       _pow10pos                  00000001800eb6e0     LIBCMTD:constpow.obj
 0003:00001840       _pow10neg                  00000001800eb840     LIBCMTD:constpow.obj
 0003:000019a0       _confh                     00000001800eb9a0     LIBCMTD:initcon.obj
 0003:000019b0       _HUGE                      00000001800eb9b0     LIBCMTD:huge.obj
 0003:00001fb0       ??_R0I@8                   00000001800ebfb0     TriangleMeshBuilder.obj
 0003:00001fc8       ??_R0E@8                   00000001800ebfc8     BigConvexDataBuilder.obj
 0003:00001fe0       ??_R0?AUValency@Gu@physx@@@8 00000001800ebfe0     BigConvexDataBuilder.obj
 0003:00002010       ??_R0G@8                   00000001800ec010     BigConvexDataBuilder.obj
 0003:00002028       ??_R0?AUHullTriangleData@physx@@@8 00000001800ec028     ConvexHullBuilder.obj
 0003:00002060       ??_R0?AUEdgeDescData@Gu@physx@@@8 00000001800ec060     ConvexHullBuilder.obj
 0003:00002098       ??_R0?AVBigConvexData@physx@@@8 00000001800ec098     ConvexMeshBuilder.obj
 0003:000020d0       ??_R0?AVConvexH@physx@@@8  00000001800ec0d0     hulllib.obj
 0003:00002100       ??_R0?AVTri@physx@@@8      00000001800ec100     hulllib.obj
 0003:00002128       ??_R0M@8                   00000001800ec128     hulllib.obj
 0003:00002140       ??_R0?AVAdjTriangle@physx@@@8 00000001800ec140     Adjacencies.obj
 0003:00002170       ??_R0?AVAdjEdge@@@8        00000001800ec170     Adjacencies.obj
 0003:00002198       ??_R0?AVTriangleMeshBuilder@physx@@@8 00000001800ec198     Cooking.obj
 0003:000021d8       ??_R0?AVHeightField@Gu@physx@@@8 00000001800ec1d8     Cooking.obj
 0003:00002210       ??_R0?AVCooking@physx@@@8  00000001800ec210     Cooking.obj
 0003:00002240       ??_R0?AUEdgeTriangleData@Gu@physx@@@8 00000001800ec240     EdgeList.obj
 0003:00002280       ??_R0?AUEdgeData@Gu@physx@@@8 00000001800ec280     EdgeList.obj
 0003:000022b0       ??_R0?AVEdgeListBuilder@Gu@physx@@@8 00000001800ec2b0     InternalTriangleMeshBuilder.obj
 0003:000022e8       ??_R0?AVtype_info@@@8      00000001800ec2e8     LIBCMTD:typinfo.obj
 0003:00002308       ??_R0?AVbad_alloc@std@@@8  00000001800ec308     LIBCMTD:new.obj
 0003:00002330       ??_R0?AVexception@std@@@8  00000001800ec330     LIBCMTD:new.obj
 0003:00002358       ??_R0?AVbad_cast@std@@@8   00000001800ec358     LIBCMTD:stdexcpt.obj
 0003:00002380       ??_R0?AVbad_typeid@std@@@8 00000001800ec380     LIBCMTD:stdexcpt.obj
 0003:000023a8       ??_R0?AV__non_rtti_object@std@@@8 00000001800ec3a8     LIBCMTD:stdexcpt.obj
 0003:000023d8       ??_R0?AVDNameNode@@@8      00000001800ec3d8     LIBCMTD:undname.obj
 0003:000023f8       ??_R0?AVcharNode@@@8       00000001800ec3f8     LIBCMTD:undname.obj
 0003:00002418       ??_R0?AVpcharNode@@@8      00000001800ec418     LIBCMTD:undname.obj
 0003:00002438       ??_R0?AVpDNameNode@@@8     00000001800ec438     LIBCMTD:undname.obj
 0003:00002460       ??_R0?AVDNameStatusNode@@@8 00000001800ec460     LIBCMTD:undname.obj
 0003:00002488       ??_R0?AVpairNode@@@8       00000001800ec488     LIBCMTD:undname.obj
 0003:000024a8       ??_R0?AVbad_exception@std@@@8 00000001800ec4a8     LIBCMTD:frame.obj
 0003:00002669       ?_ignore@?2???APxVec3@physx@@QEBAAEBMI@Z@4_NA 00000001800ec669     RTreeCooking.obj
 0003:0000266a       ?_ignore@?2??isInside@PxBounds3@physx@@QEBA_NAEBV23@@Z@4_NA 00000001800ec66a     RTreeCooking.obj
 0003:000026e4       ?_ignore@?5??sort4@SubSortQuick@physx@@QEAAXPEIAIIAEAV?$Array@URTreeNodeNQ@physx@@VNamedAllocator@shdfnd@2@@shdfnd@3@AEAIAEAUPxBounds3V@3@I@Z@4_NA 00000001800ec6e4     RTreeCooking.obj
 0003:000026e5       ?_ignore@?6??sort4@SubSortQuick@physx@@QEAAXPEIAIIAEAV?$Array@URTreeNodeNQ@physx@@VNamedAllocator@shdfnd@2@@shdfnd@3@AEAIAEAUPxBounds3V@3@I@Z@4_NA 00000001800ec6e5     RTreeCooking.obj
 0003:000026e6       ?_ignore@?7??sort4@SubSortQuick@physx@@QEAAXPEIAIIAEAV?$Array@URTreeNodeNQ@physx@@VNamedAllocator@shdfnd@2@@shdfnd@3@AEAIAEAUPxBounds3V@3@I@Z@4_NA 00000001800ec6e6     RTreeCooking.obj
 0003:000026e7       ?_ignore@?8??sort4@SubSortQuick@physx@@QEAAXPEIAIIAEAV?$Array@URTreeNodeNQ@physx@@VNamedAllocator@shdfnd@2@@shdfnd@3@AEAIAEAUPxBounds3V@3@I@Z@4_NA 00000001800ec6e7     RTreeCooking.obj
 0003:000026e8       ?_ignore@?M@??sort4@SubSortQuick@physx@@QEAAXPEIAIIAEAV?$Array@URTreeNodeNQ@physx@@VNamedAllocator@shdfnd@2@@shdfnd@3@AEAIAEAUPxBounds3V@3@I@Z@4_NA 00000001800ec6e8     RTreeCooking.obj
 0003:000026e9       ?_ignore@?BH@??sort4@SubSortQuick@physx@@QEAAXPEIAIIAEAV?$Array@URTreeNodeNQ@physx@@VNamedAllocator@shdfnd@2@@shdfnd@3@AEAIAEAUPxBounds3V@3@I@Z@4_NA 00000001800ec6e9     RTreeCooking.obj
 0003:000026ea       ?_ignore@?6??split@SubSortSAH@physx@@QEAAIPEAII@Z@4_NA 00000001800ec6ea     RTreeCooking.obj
 0003:000026eb       ?_ignore@?7??split@SubSortSAH@physx@@QEAAIPEAII@Z@4_NA 00000001800ec6eb     RTreeCooking.obj
 0003:000026ec       ?_ignore@?8??split@SubSortSAH@physx@@QEAAIPEAII@Z@4_NA 00000001800ec6ec     RTreeCooking.obj
 0003:000026ed       ?_ignore@?9??split@SubSortSAH@physx@@QEAAIPEAII@Z@4_NA 00000001800ec6ed     RTreeCooking.obj
 0003:000026ee       ?_ignore@?L@??split@SubSortSAH@physx@@QEAAIPEAII@Z@4_NA 00000001800ec6ee     RTreeCooking.obj
 0003:000026ef       ?_ignore@?BO@??split@SubSortSAH@physx@@QEAAIPEAII@Z@4_NA 00000001800ec6ef     RTreeCooking.obj
 0003:000026f0       ?_ignore@?CB@??split@SubSortSAH@physx@@QEAAIPEAII@Z@4_NA 00000001800ec6f0     RTreeCooking.obj
 0003:000026f1       ?_ignore@?2??computeSA@SubSortSAH@physx@@QEAAMPEBIAEBUInterval@3@@Z@4_NA 00000001800ec6f1     RTreeCooking.obj
 0003:000026f2       ?_ignore@?BD@??sort4@SubSortSAH@physx@@QEAAXPEAIIAEAV?$Array@URTreeNodeNQ@physx@@VNamedAllocator@shdfnd@2@@shdfnd@3@AEAIIPEAURTreeNodeNQ@3@@Z@4_NA 00000001800ec6f2     RTreeCooking.obj
 0003:000026f3       ?_ignore@?BE@??sort4@SubSortSAH@physx@@QEAAXPEAIIAEAV?$Array@URTreeNodeNQ@physx@@VNamedAllocator@shdfnd@2@@shdfnd@3@AEAIIPEAURTreeNodeNQ@3@@Z@4_NA 00000001800ec6f3     RTreeCooking.obj
 0003:000026f4       ?_ignore@?BF@??sort4@SubSortSAH@physx@@QEAAXPEAIIAEAV?$Array@URTreeNodeNQ@physx@@VNamedAllocator@shdfnd@2@@shdfnd@3@AEAIIPEAURTreeNodeNQ@3@@Z@4_NA 00000001800ec6f4     RTreeCooking.obj
 0003:000026f5       ?_ignore@?BG@??sort4@SubSortSAH@physx@@QEAAXPEAIIAEAV?$Array@URTreeNodeNQ@physx@@VNamedAllocator@shdfnd@2@@shdfnd@3@AEAIIPEAURTreeNodeNQ@3@@Z@4_NA 00000001800ec6f5     RTreeCooking.obj
 0003:000026f6       ?_ignore@?BH@??sort4@SubSortSAH@physx@@QEAAXPEAIIAEAV?$Array@URTreeNodeNQ@physx@@VNamedAllocator@shdfnd@2@@shdfnd@3@AEAIIPEAURTreeNodeNQ@3@@Z@4_NA 00000001800ec6f6     RTreeCooking.obj
 0003:000026f7       ?_ignore@?BJ@??sort4@SubSortSAH@physx@@QEAAXPEAIIAEAV?$Array@URTreeNodeNQ@physx@@VNamedAllocator@shdfnd@2@@shdfnd@3@AEAIIPEAURTreeNodeNQ@3@@Z@4_NA 00000001800ec6f7     RTreeCooking.obj
 0003:000026f8       ?_ignore@?BP@??sort4@SubSortSAH@physx@@QEAAXPEAIIAEAV?$Array@URTreeNodeNQ@physx@@VNamedAllocator@shdfnd@2@@shdfnd@3@AEAIIPEAURTreeNodeNQ@3@@Z@4_NA 00000001800ec6f8     RTreeCooking.obj
 0003:000026f9       ?_ignore@?CA@??sort4@SubSortSAH@physx@@QEAAXPEAIIAEAV?$Array@URTreeNodeNQ@physx@@VNamedAllocator@shdfnd@2@@shdfnd@3@AEAIIPEAURTreeNodeNQ@3@@Z@4_NA 00000001800ec6f9     RTreeCooking.obj
 0003:000026fa       ?_ignore@?CB@??sort4@SubSortSAH@physx@@QEAAXPEAIIAEAV?$Array@URTreeNodeNQ@physx@@VNamedAllocator@shdfnd@2@@shdfnd@3@AEAIIPEAURTreeNodeNQ@3@@Z@4_NA 00000001800ec6fa     RTreeCooking.obj
 0003:000026fb       ?_ignore@?CC@??sort4@SubSortSAH@physx@@QEAAXPEAIIAEAV?$Array@URTreeNodeNQ@physx@@VNamedAllocator@shdfnd@2@@shdfnd@3@AEAIIPEAURTreeNodeNQ@3@@Z@4_NA 00000001800ec6fb     RTreeCooking.obj
 0003:000026fc       ?_ignore@?CD@??sort4@SubSortSAH@physx@@QEAAXPEAIIAEAV?$Array@URTreeNodeNQ@physx@@VNamedAllocator@shdfnd@2@@shdfnd@3@AEAIIPEAURTreeNodeNQ@3@@Z@4_NA 00000001800ec6fc     RTreeCooking.obj
 0003:000026fd       ?_ignore@?DD@??sort4@SubSortSAH@physx@@QEAAXPEAIIAEAV?$Array@URTreeNodeNQ@physx@@VNamedAllocator@shdfnd@2@@shdfnd@3@AEAIIPEAURTreeNodeNQ@3@@Z@4_NA 00000001800ec6fd     RTreeCooking.obj
 0003:000026fe       ?_ignore@?DI@??sort4@SubSortSAH@physx@@QEAAXPEAIIAEAV?$Array@URTreeNodeNQ@physx@@VNamedAllocator@shdfnd@2@@shdfnd@3@AEAIIPEAURTreeNodeNQ@3@@Z@4_NA 00000001800ec6fe     RTreeCooking.obj
 0003:00002707       ?_ignore@?2???A?$Array@IVNamedAllocator@shdfnd@physx@@@shdfnd@physx@@QEAAAEAII@Z@4_NA 00000001800ec707     RTreeCooking.obj
 0003:00002708       ?_ignore@?2??popBack@?$Array@IVNamedAllocator@shdfnd@physx@@@shdfnd@physx@@QEAAIXZ@4_NA 00000001800ec708     RTreeCooking.obj
 0003:00002709       ?_ignore@?2???A?$Array@URTreeNodeNQ@physx@@VNamedAllocator@shdfnd@2@@shdfnd@physx@@QEAAAEAURTreeNodeNQ@3@I@Z@4_NA 00000001800ec709     RTreeCooking.obj
 0003:0000270a       ?_ignore@?2???A?$Array@UInterval@physx@@V?$InlineAllocator@$0CA@VNamedAllocator@shdfnd@physx@@@shdfnd@2@@shdfnd@physx@@QEAAAEAUInterval@3@I@Z@4_NA 00000001800ec70a     RTreeCooking.obj
 0003:0000270b       ?_ignore@?2??replaceWithLast@?$Array@UInterval@physx@@V?$InlineAllocator@$0CA@VNamedAllocator@shdfnd@physx@@@shdfnd@2@@shdfnd@physx@@QEAAXI@Z@4_NA 00000001800ec70b     RTreeCooking.obj
 0003:0000270c       ?_ignore@?2???A?$Array@URTreeNodeQ@Gu@physx@@VNamedAllocator@shdfnd@3@@shdfnd@physx@@QEAAAEAURTreeNodeQ@Gu@3@I@Z@4_NA 00000001800ec70c     RTreeCooking.obj
 0003:0000270d       ?_ignore@?2??grow@?$Array@UPxBounds3V@physx@@VNamedAllocator@shdfnd@2@@shdfnd@physx@@IEAAXI@Z@4_NA 00000001800ec70d     RTreeCooking.obj
 0003:0000270e       ?_ignore@?2??grow@?$Array@IVNamedAllocator@shdfnd@physx@@@shdfnd@physx@@IEAAXI@Z@4_NA 00000001800ec70e     RTreeCooking.obj
 0003:0000270f       ?_ignore@?2??grow@?$Array@VPxVec3@physx@@VNamedAllocator@shdfnd@2@@shdfnd@physx@@IEAAXI@Z@4_NA 00000001800ec70f     RTreeCooking.obj
 0003:00002710       ?_ignore@?2??grow@?$Array@URTreeNodeNQ@physx@@VNamedAllocator@shdfnd@2@@shdfnd@physx@@IEAAXI@Z@4_NA 00000001800ec710     RTreeCooking.obj
 0003:00002711       ?_ignore@?2??grow@?$Array@URTreeNodeQ@Gu@physx@@VNamedAllocator@shdfnd@3@@shdfnd@physx@@IEAAXI@Z@4_NA 00000001800ec711     RTreeCooking.obj
 0003:00002712       ?_ignore@?2??growAndPushBack@?$Array@UPxBounds3V@physx@@VNamedAllocator@shdfnd@2@@shdfnd@physx@@IEAAAEAUPxBounds3V@4@AEBU54@@Z@4_NA 00000001800ec712     RTreeCooking.obj
 0003:00002713       ?_ignore@?2??recreate@?$Array@UPxBounds3V@physx@@VNamedAllocator@shdfnd@2@@shdfnd@physx@@IEAAXI@Z@4_NA 00000001800ec713     RTreeCooking.obj
 0003:00002714       ?_ignore@?2??growAndPushBack@?$Array@IVNamedAllocator@shdfnd@physx@@@shdfnd@physx@@IEAAAEAIAEBI@Z@4_NA 00000001800ec714     RTreeCooking.obj
 0003:00002715       ?_ignore@?2??recreate@?$Array@IVNamedAllocator@shdfnd@physx@@@shdfnd@physx@@IEAAXI@Z@4_NA 00000001800ec715     RTreeCooking.obj
 0003:00002716       ?_ignore@?2??growAndPushBack@?$Array@VPxVec3@physx@@VNamedAllocator@shdfnd@2@@shdfnd@physx@@IEAAAEAVPxVec3@4@AEBV54@@Z@4_NA 00000001800ec716     RTreeCooking.obj
 0003:00002717       ?_ignore@?2??recreate@?$Array@VPxVec3@physx@@VNamedAllocator@shdfnd@2@@shdfnd@physx@@IEAAXI@Z@4_NA 00000001800ec717     RTreeCooking.obj
 0003:00002718       ?_ignore@?2??growAndPushBack@?$Array@URTreeNodeNQ@physx@@VNamedAllocator@shdfnd@2@@shdfnd@physx@@IEAAAEAURTreeNodeNQ@4@AEBU54@@Z@4_NA 00000001800ec718     RTreeCooking.obj
 0003:00002719       ?_ignore@?2??recreate@?$Array@URTreeNodeNQ@physx@@VNamedAllocator@shdfnd@2@@shdfnd@physx@@IEAAXI@Z@4_NA 00000001800ec719     RTreeCooking.obj
 0003:0000271a       ?_ignore@?2???$quickSelectFirstK@UBoundsLTE@physx@@@quickSelect@physx@@YAXPEIAIIIIAEBUBoundsLTE@2@@Z@4_NA 00000001800ec71a     RTreeCooking.obj
 0003:0000271b       ?_ignore@?M@???$quickSelectFirstK@UBoundsLTE@physx@@@quickSelect@physx@@YAXPEIAIIIIAEBUBoundsLTE@2@@Z@4_NA 00000001800ec71b     RTreeCooking.obj
 0003:0000271c       ?_ignore@?2??growAndPushBack@?$Array@UInterval@physx@@V?$InlineAllocator@$0CA@VNamedAllocator@shdfnd@physx@@@shdfnd@2@@shdfnd@physx@@IEAAAEAUInterval@4@AEBU54@@Z@4_NA 00000001800ec71c     RTreeCooking.obj
 0003:0000271d       ?_ignore@?2??growAndPushBack@?$Array@URTreeNodeQ@Gu@physx@@VNamedAllocator@shdfnd@3@@shdfnd@physx@@IEAAAEAURTreeNodeQ@Gu@4@AEBU564@@Z@4_NA 00000001800ec71d     RTreeCooking.obj
 0003:0000271e       ?_ignore@?2??recreate@?$Array@URTreeNodeQ@Gu@physx@@VNamedAllocator@shdfnd@3@@shdfnd@physx@@IEAAXI@Z@4_NA 00000001800ec71e     RTreeCooking.obj
 0003:0000271f       ?_ignore@?2???$partition@UBoundsLTE@physx@@@quickSelect@physx@@YAIPEIAIIIIAEBUBoundsLTE@2@@Z@4_NA 00000001800ec71f     RTreeCooking.obj
 0003:00002720       ?_ignore@?M@???$partition@UBoundsLTE@physx@@@quickSelect@physx@@YAIPEIAIIIIAEBUBoundsLTE@2@@Z@4_NA 00000001800ec720     RTreeCooking.obj
 0003:00002721       ?_ignore@?O@???$partition@UBoundsLTE@physx@@@quickSelect@physx@@YAIPEIAIIIIAEBUBoundsLTE@2@@Z@4_NA 00000001800ec721     RTreeCooking.obj
 0003:00002722       ?_ignore@?O@???$sort@IU?$Less@I@shdfnd@physx@@VNamedAllocator@23@@shdfnd@physx@@YAXPEAIIAEBU?$Less@I@12@AEBVNamedAllocator@12@I@Z@4_NA 00000001800ec722     RTreeCooking.obj
 0003:00002723       ?_ignore@?BM@???$sort@IU?$Less@I@shdfnd@physx@@VNamedAllocator@23@@shdfnd@physx@@YAXPEAIIAEBU?$Less@I@12@AEBVNamedAllocator@12@I@Z@4_NA 00000001800ec723     RTreeCooking.obj
 0003:00002724       ?_ignore@?O@???$sort@IUSortBoundsPredicate@physx@@VNamedAllocator@shdfnd@2@@shdfnd@physx@@YAXPEAIIAEBUSortBoundsPredicate@2@AEBVNamedAllocator@12@I@Z@4_NA 00000001800ec724     RTreeCooking.obj
 0003:00002725       ?_ignore@?BM@???$sort@IUSortBoundsPredicate@physx@@VNamedAllocator@shdfnd@2@@shdfnd@physx@@YAXPEAIIAEBUSortBoundsPredicate@2@AEBVNamedAllocator@12@I@Z@4_NA 00000001800ec725     RTreeCooking.obj
 0003:00002726       ?_ignore@?2??pop@?$Stack@VNamedAllocator@shdfnd@physx@@@internal@shdfnd@physx@@QEAAXAEAH0@Z@4_NA 00000001800ec726     RTreeCooking.obj
 0003:00002727       ?_ignore@?8???$partition@I$$CBU?$Less@I@shdfnd@physx@@@internal@shdfnd@physx@@YAHPEAIHHAEBU?$Less@I@23@@Z@4_NA 00000001800ec727     RTreeCooking.obj
 0003:00002728       ?_ignore@?9???$partition@I$$CBU?$Less@I@shdfnd@physx@@@internal@shdfnd@physx@@YAHPEAIHHAEBU?$Less@I@23@@Z@4_NA 00000001800ec728     RTreeCooking.obj
 0003:00002729       ?_ignore@?8???$partition@I$$CBUSortBoundsPredicate@physx@@@internal@shdfnd@physx@@YAHPEAIHHAEBUSortBoundsPredicate@3@@Z@4_NA 00000001800ec729     RTreeCooking.obj
 0003:0000272a       ?_ignore@?9???$partition@I$$CBUSortBoundsPredicate@physx@@@internal@shdfnd@physx@@YAHPEAIHHAEBUSortBoundsPredicate@3@@Z@4_NA 00000001800ec72a     RTreeCooking.obj
 0003:0000272b       ?_ignore@?2???APxVec3@physx@@QEAAAEAMI@Z@4_NA 00000001800ec72b     TriangleMeshBuilder.obj
 0003:000027a3       ?_ignore@?2??to16@shdfnd@physx@@YAGI@Z@4_NA 00000001800ec7a3     TriangleMeshBuilder.obj
 0003:000027ab       ?_ignore@?2??to8@shdfnd@physx@@YAEI@Z@4_NA 00000001800ec7ab     ConvexHullBuilder.obj
 0003:00002843       ?_ignore@?4??PxGetGaussMapVertexLimitForPlatform@physx@@YAIW4Enum@PxPlatform@2@@Z@4_NA 00000001800ec843     ConvexMeshBuilder.obj
 0003:00002845       ?_ignore@?2??to8@shdfnd@physx@@YAEG@Z@4_NA 00000001800ec845     hulllib.obj
 0003:00002846       ?_ignore@?2???Afloat3@physx@@QEAAAEAMH@Z@4_NA 00000001800ec846     hulllib.obj
 0003:00002847       ?_ignore@?2???Afloat3@physx@@QEBAAEBMH@Z@4_NA 00000001800ec847     hulllib.obj
 0003:00002848       ?_ignore@?2???Afloat3x3@physx@@QEAAAEAVfloat3@2@H@Z@4_NA 00000001800ec848     hulllib.obj
 0003:00002849       ?_ignore@?2???Afloat3x3@physx@@QEBAAEBVfloat3@2@H@Z@4_NA 00000001800ec849     hulllib.obj
 0003:0000287a       ?_ignore@?2???A?$Array@Vfloat3@physx@@@hullLibArray@physx@@QEAAAEAVfloat3@3@H@Z@4_NA 00000001800ec87a     hulllib.obj
 0003:0000287b       ?_ignore@?2???A?$Array@VHalfEdge@ConvexH@physx@@@hullLibArray@physx@@QEAAAEAVHalfEdge@ConvexH@3@H@Z@4_NA 00000001800ec87b     hulllib.obj
 0003:0000287c       ?_ignore@?2???A?$Array@VPlane@physx@@@hullLibArray@physx@@QEAAAEAVPlane@3@H@Z@4_NA 00000001800ec87c     hulllib.obj
 0003:0000287d       ?_ignore@?2???A?$Array@PEAVTri@physx@@@hullLibArray@physx@@QEAAAEAPEAVTri@3@H@Z@4_NA 00000001800ec87d     hulllib.obj
 0003:0000287e       ?_ignore@?2???A?$Array@H@hullLibArray@physx@@QEAAAEAHH@Z@4_NA 00000001800ec87e     hulllib.obj
 0003:0000287f       ?_ignore@?2???A?$Array@UExpandPlane@physx@@@hullLibArray@physx@@QEAAAEAUExpandPlane@3@H@Z@4_NA 00000001800ec87f     hulllib.obj
 0003:00002880       ?_ignore@?2??Add@?$Array@Vfloat3@physx@@@hullLibArray@physx@@QEAAAEAVfloat3@4@V54@@Z@4_NA 00000001800ec880     hulllib.obj
 0003:00002881       ?_ignore@?2??Add@?$Array@VPlane@physx@@@hullLibArray@physx@@QEAAAEAVPlane@4@V54@@Z@4_NA 00000001800ec881     hulllib.obj
 0003:00002882       ?_ignore@?2??Add@?$Array@PEAVTri@physx@@@hullLibArray@physx@@QEAAAEAPEAVTri@4@PEAV54@@Z@4_NA 00000001800ec882     hulllib.obj
 0003:00002883       ?_ignore@?2??Add@?$Array@H@hullLibArray@physx@@QEAAAEAHH@Z@4_NA 00000001800ec883     hulllib.obj
 0003:00002884       ?_ignore@?BI@???$maxdirsterid@Vfloat3@physx@@@physx@@YAHPEBVfloat3@1@HAEBV21@AEAV?$Array@H@hullLibArray@1@@Z@4_NA 00000001800ec884     hulllib.obj
 0003:00002885       ?_ignore@?2??Add@?$Array@UExpandPlane@physx@@@hullLibArray@physx@@QEAAAEAUExpandPlane@4@U54@@Z@4_NA 00000001800ec885     hulllib.obj
 0003:00002886       ?_ignore@?2???$maxdir@Vfloat3@physx@@@physx@@YAHPEBVfloat3@1@HAEBV21@@Z@4_NA 00000001800ec886     hulllib.obj
 0003:00002887       ?_ignore@?2??Add@?$Array@Vint3@physx@@@hullLibArray@physx@@QEAAAEAVint3@4@V54@@Z@4_NA 00000001800ec887     hulllib.obj
 0003:00002888       ?_ignore@?2??allocate@?$Array@Vfloat3@physx@@@hullLibArray@physx@@QEAAXH@Z@4_NA 00000001800ec888     hulllib.obj
 0003:00002889       ?_ignore@?3??allocate@?$Array@Vfloat3@physx@@@hullLibArray@physx@@QEAAXH@Z@4_NA 00000001800ec889     hulllib.obj
 0003:0000288a       ?_ignore@?4??allocate@?$Array@Vfloat3@physx@@@hullLibArray@physx@@QEAAXH@Z@4_NA 00000001800ec88a     hulllib.obj
 0003:0000288b       ?_ignore@?2??allocate@?$Array@VHalfEdge@ConvexH@physx@@@hullLibArray@physx@@QEAAXH@Z@4_NA 00000001800ec88b     hulllib.obj
 0003:0000288c       ?_ignore@?3??allocate@?$Array@VHalfEdge@ConvexH@physx@@@hullLibArray@physx@@QEAAXH@Z@4_NA 00000001800ec88c     hulllib.obj
 0003:0000288d       ?_ignore@?4??allocate@?$Array@VHalfEdge@ConvexH@physx@@@hullLibArray@physx@@QEAAXH@Z@4_NA 00000001800ec88d     hulllib.obj
 0003:0000288e       ?_ignore@?2??allocate@?$Array@VPlane@physx@@@hullLibArray@physx@@QEAAXH@Z@4_NA 00000001800ec88e     hulllib.obj
 0003:0000288f       ?_ignore@?3??allocate@?$Array@VPlane@physx@@@hullLibArray@physx@@QEAAXH@Z@4_NA 00000001800ec88f     hulllib.obj
 0003:00002890       ?_ignore@?4??allocate@?$Array@VPlane@physx@@@hullLibArray@physx@@QEAAXH@Z@4_NA 00000001800ec890     hulllib.obj
 0003:00002891       ?_ignore@?2??allocate@?$Array@PEAVTri@physx@@@hullLibArray@physx@@QEAAXH@Z@4_NA 00000001800ec891     hulllib.obj
 0003:00002892       ?_ignore@?3??allocate@?$Array@PEAVTri@physx@@@hullLibArray@physx@@QEAAXH@Z@4_NA 00000001800ec892     hulllib.obj
 0003:00002893       ?_ignore@?4??allocate@?$Array@PEAVTri@physx@@@hullLibArray@physx@@QEAAXH@Z@4_NA 00000001800ec893     hulllib.obj
 0003:00002894       ?_ignore@?2??allocate@?$Array@H@hullLibArray@physx@@QEAAXH@Z@4_NA 00000001800ec894     hulllib.obj
 0003:00002895       ?_ignore@?3??allocate@?$Array@H@hullLibArray@physx@@QEAAXH@Z@4_NA 00000001800ec895     hulllib.obj
 0003:00002896       ?_ignore@?4??allocate@?$Array@H@hullLibArray@physx@@QEAAXH@Z@4_NA 00000001800ec896     hulllib.obj
 0003:00002897       ?_ignore@?2???$maxdirfiltered@Vfloat3@physx@@@physx@@YAHPEBVfloat3@1@HAEBV21@PEA_N@Z@4_NA 00000001800ec897     hulllib.obj
 0003:00002898       ?_ignore@?9???$maxdirfiltered@Vfloat3@physx@@@physx@@YAHPEBVfloat3@1@HAEBV21@PEA_N@Z@4_NA 00000001800ec898     hulllib.obj
 0003:00002899       ?_ignore@?2??allocate@?$Array@UExpandPlane@physx@@@hullLibArray@physx@@QEAAXH@Z@4_NA 00000001800ec899     hulllib.obj
 0003:0000289a       ?_ignore@?3??allocate@?$Array@UExpandPlane@physx@@@hullLibArray@physx@@QEAAXH@Z@4_NA 00000001800ec89a     hulllib.obj
 0003:0000289b       ?_ignore@?4??allocate@?$Array@UExpandPlane@physx@@@hullLibArray@physx@@QEAAXH@Z@4_NA 00000001800ec89b     hulllib.obj
